
build/G473ZET6.elf:     file format elf32-littlearm


Disassembly of section .isr_vector:

08000000 <g_pfnVectors>:
 8000000:	20020000 	andcs	r0, r2, r0
 8000004:	08001025 	stmdaeq	r0, {r0, r2, r5, ip}
 8000008:	0800037d 	stmdaeq	r0, {r0, r2, r3, r4, r5, r6, r8, r9}
 800000c:	0800037f 	stmdaeq	r0, {r0, r1, r2, r3, r4, r5, r6, r8, r9}
 8000010:	08000381 	stmdaeq	r0, {r0, r7, r8, r9}
 8000014:	08000383 	stmdaeq	r0, {r0, r1, r7, r8, r9}
 8000018:	08000385 	stmdaeq	r0, {r0, r2, r7, r8, r9}
	...
 800002c:	08000387 	stmdaeq	r0, {r0, r1, r2, r7, r8, r9}
 8000030:	08000389 	stmdaeq	r0, {r0, r3, r7, r8, r9}
 8000034:	00000000 	andeq	r0, r0, r0
 8000038:	0800038b 	stmdaeq	r0, {r0, r1, r3, r7, r8, r9}
 800003c:	0800038d 	stmdaeq	r0, {r0, r2, r3, r7, r8, r9}
 8000040:	08001075 	stmdaeq	r0, {r0, r2, r4, r5, r6, ip}
 8000044:	08001075 	stmdaeq	r0, {r0, r2, r4, r5, r6, ip}
 8000048:	08001075 	stmdaeq	r0, {r0, r2, r4, r5, r6, ip}
 800004c:	08001075 	stmdaeq	r0, {r0, r2, r4, r5, r6, ip}
 8000050:	08001075 	stmdaeq	r0, {r0, r2, r4, r5, r6, ip}
 8000054:	08001075 	stmdaeq	r0, {r0, r2, r4, r5, r6, ip}
 8000058:	08001075 	stmdaeq	r0, {r0, r2, r4, r5, r6, ip}
 800005c:	08001075 	stmdaeq	r0, {r0, r2, r4, r5, r6, ip}
 8000060:	08001075 	stmdaeq	r0, {r0, r2, r4, r5, r6, ip}
 8000064:	08001075 	stmdaeq	r0, {r0, r2, r4, r5, r6, ip}
 8000068:	08001075 	stmdaeq	r0, {r0, r2, r4, r5, r6, ip}
 800006c:	08001075 	stmdaeq	r0, {r0, r2, r4, r5, r6, ip}
 8000070:	08001075 	stmdaeq	r0, {r0, r2, r4, r5, r6, ip}
 8000074:	08001075 	stmdaeq	r0, {r0, r2, r4, r5, r6, ip}
 8000078:	08001075 	stmdaeq	r0, {r0, r2, r4, r5, r6, ip}
 800007c:	08001075 	stmdaeq	r0, {r0, r2, r4, r5, r6, ip}
 8000080:	08001075 	stmdaeq	r0, {r0, r2, r4, r5, r6, ip}
 8000084:	08001075 	stmdaeq	r0, {r0, r2, r4, r5, r6, ip}
 8000088:	08001075 	stmdaeq	r0, {r0, r2, r4, r5, r6, ip}
 800008c:	08001075 	stmdaeq	r0, {r0, r2, r4, r5, r6, ip}
 8000090:	08001075 	stmdaeq	r0, {r0, r2, r4, r5, r6, ip}
 8000094:	08001075 	stmdaeq	r0, {r0, r2, r4, r5, r6, ip}
 8000098:	08001075 	stmdaeq	r0, {r0, r2, r4, r5, r6, ip}
 800009c:	08001075 	stmdaeq	r0, {r0, r2, r4, r5, r6, ip}
 80000a0:	08001075 	stmdaeq	r0, {r0, r2, r4, r5, r6, ip}
 80000a4:	08001075 	stmdaeq	r0, {r0, r2, r4, r5, r6, ip}
 80000a8:	08001075 	stmdaeq	r0, {r0, r2, r4, r5, r6, ip}
 80000ac:	08001075 	stmdaeq	r0, {r0, r2, r4, r5, r6, ip}
 80000b0:	08001075 	stmdaeq	r0, {r0, r2, r4, r5, r6, ip}
 80000b4:	08001075 	stmdaeq	r0, {r0, r2, r4, r5, r6, ip}
 80000b8:	08001075 	stmdaeq	r0, {r0, r2, r4, r5, r6, ip}
 80000bc:	08001075 	stmdaeq	r0, {r0, r2, r4, r5, r6, ip}
 80000c0:	08001075 	stmdaeq	r0, {r0, r2, r4, r5, r6, ip}
 80000c4:	08001075 	stmdaeq	r0, {r0, r2, r4, r5, r6, ip}
 80000c8:	08001075 	stmdaeq	r0, {r0, r2, r4, r5, r6, ip}
 80000cc:	08001075 	stmdaeq	r0, {r0, r2, r4, r5, r6, ip}
 80000d0:	08001075 	stmdaeq	r0, {r0, r2, r4, r5, r6, ip}
 80000d4:	08001075 	stmdaeq	r0, {r0, r2, r4, r5, r6, ip}
 80000d8:	08001075 	stmdaeq	r0, {r0, r2, r4, r5, r6, ip}
 80000dc:	08001075 	stmdaeq	r0, {r0, r2, r4, r5, r6, ip}
 80000e0:	08001075 	stmdaeq	r0, {r0, r2, r4, r5, r6, ip}
 80000e4:	08001075 	stmdaeq	r0, {r0, r2, r4, r5, r6, ip}
 80000e8:	08001075 	stmdaeq	r0, {r0, r2, r4, r5, r6, ip}
 80000ec:	08001075 	stmdaeq	r0, {r0, r2, r4, r5, r6, ip}
 80000f0:	08001075 	stmdaeq	r0, {r0, r2, r4, r5, r6, ip}
 80000f4:	08001075 	stmdaeq	r0, {r0, r2, r4, r5, r6, ip}
 80000f8:	08001075 	stmdaeq	r0, {r0, r2, r4, r5, r6, ip}
 80000fc:	08001075 	stmdaeq	r0, {r0, r2, r4, r5, r6, ip}
 8000100:	08001075 	stmdaeq	r0, {r0, r2, r4, r5, r6, ip}
 8000104:	08001075 	stmdaeq	r0, {r0, r2, r4, r5, r6, ip}
 8000108:	08001075 	stmdaeq	r0, {r0, r2, r4, r5, r6, ip}
 800010c:	08001075 	stmdaeq	r0, {r0, r2, r4, r5, r6, ip}
 8000110:	08001075 	stmdaeq	r0, {r0, r2, r4, r5, r6, ip}
 8000114:	08001075 	stmdaeq	r0, {r0, r2, r4, r5, r6, ip}
 8000118:	08001075 	stmdaeq	r0, {r0, r2, r4, r5, r6, ip}
 800011c:	08001075 	stmdaeq	r0, {r0, r2, r4, r5, r6, ip}
 8000120:	08001075 	stmdaeq	r0, {r0, r2, r4, r5, r6, ip}
 8000124:	08001075 	stmdaeq	r0, {r0, r2, r4, r5, r6, ip}
 8000128:	08001075 	stmdaeq	r0, {r0, r2, r4, r5, r6, ip}
 800012c:	08001075 	stmdaeq	r0, {r0, r2, r4, r5, r6, ip}
 8000130:	08001075 	stmdaeq	r0, {r0, r2, r4, r5, r6, ip}
 8000134:	08001075 	stmdaeq	r0, {r0, r2, r4, r5, r6, ip}
 8000138:	08001075 	stmdaeq	r0, {r0, r2, r4, r5, r6, ip}
 800013c:	08001075 	stmdaeq	r0, {r0, r2, r4, r5, r6, ip}
 8000140:	08001075 	stmdaeq	r0, {r0, r2, r4, r5, r6, ip}
 8000144:	08001075 	stmdaeq	r0, {r0, r2, r4, r5, r6, ip}
 8000148:	08001075 	stmdaeq	r0, {r0, r2, r4, r5, r6, ip}
	...
 800016c:	08001075 	stmdaeq	r0, {r0, r2, r4, r5, r6, ip}
 8000170:	08001075 	stmdaeq	r0, {r0, r2, r4, r5, r6, ip}
 8000174:	08001075 	stmdaeq	r0, {r0, r2, r4, r5, r6, ip}
 8000178:	08001075 	stmdaeq	r0, {r0, r2, r4, r5, r6, ip}
 800017c:	08001075 	stmdaeq	r0, {r0, r2, r4, r5, r6, ip}
 8000180:	08001075 	stmdaeq	r0, {r0, r2, r4, r5, r6, ip}
 8000184:	08001075 	stmdaeq	r0, {r0, r2, r4, r5, r6, ip}
 8000188:	08001075 	stmdaeq	r0, {r0, r2, r4, r5, r6, ip}
 800018c:	08001075 	stmdaeq	r0, {r0, r2, r4, r5, r6, ip}
 8000190:	08001075 	stmdaeq	r0, {r0, r2, r4, r5, r6, ip}
 8000194:	00000000 	andeq	r0, r0, r0
 8000198:	08001075 	stmdaeq	r0, {r0, r2, r4, r5, r6, ip}
 800019c:	08001075 	stmdaeq	r0, {r0, r2, r4, r5, r6, ip}
 80001a0:	08001075 	stmdaeq	r0, {r0, r2, r4, r5, r6, ip}
 80001a4:	08001075 	stmdaeq	r0, {r0, r2, r4, r5, r6, ip}
 80001a8:	08001075 	stmdaeq	r0, {r0, r2, r4, r5, r6, ip}
 80001ac:	08001075 	stmdaeq	r0, {r0, r2, r4, r5, r6, ip}
 80001b0:	08001075 	stmdaeq	r0, {r0, r2, r4, r5, r6, ip}
 80001b4:	08001075 	stmdaeq	r0, {r0, r2, r4, r5, r6, ip}
 80001b8:	08001075 	stmdaeq	r0, {r0, r2, r4, r5, r6, ip}
 80001bc:	08001075 	stmdaeq	r0, {r0, r2, r4, r5, r6, ip}
 80001c0:	08001075 	stmdaeq	r0, {r0, r2, r4, r5, r6, ip}
 80001c4:	08001075 	stmdaeq	r0, {r0, r2, r4, r5, r6, ip}
 80001c8:	08001075 	stmdaeq	r0, {r0, r2, r4, r5, r6, ip}
 80001cc:	08001075 	stmdaeq	r0, {r0, r2, r4, r5, r6, ip}
 80001d0:	08001075 	stmdaeq	r0, {r0, r2, r4, r5, r6, ip}
 80001d4:	08001075 	stmdaeq	r0, {r0, r2, r4, r5, r6, ip}

Disassembly of section .text:

080001d8 <__do_global_dtors_aux>:
 80001d8:	b510      	push	{r4, lr}
 80001da:	4c05      	ldr	r4, [pc, #20]	; (80001f0 <__do_global_dtors_aux+0x18>)
 80001dc:	7823      	ldrb	r3, [r4, #0]
 80001de:	b933      	cbnz	r3, 80001ee <__do_global_dtors_aux+0x16>
 80001e0:	4b04      	ldr	r3, [pc, #16]	; (80001f4 <__do_global_dtors_aux+0x1c>)
 80001e2:	b113      	cbz	r3, 80001ea <__do_global_dtors_aux+0x12>
 80001e4:	4804      	ldr	r0, [pc, #16]	; (80001f8 <__do_global_dtors_aux+0x20>)
 80001e6:	f3af 8000 	nop.w
 80001ea:	2301      	movs	r3, #1
 80001ec:	7023      	strb	r3, [r4, #0]
 80001ee:	bd10      	pop	{r4, pc}
 80001f0:	2000000c 	andcs	r0, r0, ip
 80001f4:	00000000 	andeq	r0, r0, r0
 80001f8:	080010d0 	stmdaeq	r0, {r4, r6, r7, ip}

080001fc <frame_dummy>:
 80001fc:	b508      	push	{r3, lr}
 80001fe:	4b03      	ldr	r3, [pc, #12]	; (800020c <frame_dummy+0x10>)
 8000200:	b11b      	cbz	r3, 800020a <frame_dummy+0xe>
 8000202:	4903      	ldr	r1, [pc, #12]	; (8000210 <frame_dummy+0x14>)
 8000204:	4803      	ldr	r0, [pc, #12]	; (8000214 <frame_dummy+0x18>)
 8000206:	f3af 8000 	nop.w
 800020a:	bd08      	pop	{r3, pc}
 800020c:	00000000 	andeq	r0, r0, r0
 8000210:	20000010 	andcs	r0, r0, r0, lsl r0
 8000214:	080010d0 	stmdaeq	r0, {r4, r6, r7, ip}

08000218 <iap_load_app>:
 8000218:	b538      	push	{r3, r4, r5, lr}
 800021a:	4b15      	ldr	r3, [pc, #84]	; (8000270 <iap_load_app+0x58>)
 800021c:	681b      	ldr	r3, [r3, #0]
 800021e:	f023 4350 	bic.w	r3, r3, #3489660928	; 0xd0000000
 8000222:	f423 2340 	bic.w	r3, r3, #786432	; 0xc0000
 8000226:	0c5b      	lsrs	r3, r3, #17
 8000228:	045b      	lsls	r3, r3, #17
 800022a:	4a12      	ldr	r2, [pc, #72]	; (8000274 <iap_load_app+0x5c>)
 800022c:	4293      	cmp	r3, r2
 800022e:	d007      	beq.n	8000240 <iap_load_app+0x28>
 8000230:	2032      	movs	r0, #50	; 0x32
 8000232:	f000 f91f 	bl	8000474 <HAL_Delay>
 8000236:	2180      	movs	r1, #128	; 0x80
 8000238:	480f      	ldr	r0, [pc, #60]	; (8000278 <iap_load_app+0x60>)
 800023a:	f000 fdfe 	bl	8000e3a <HAL_GPIO_TogglePin>
 800023e:	e7f7      	b.n	8000230 <iap_load_app+0x18>
 8000240:	4b0b      	ldr	r3, [pc, #44]	; (8000270 <iap_load_app+0x58>)
 8000242:	685d      	ldr	r5, [r3, #4]
 8000244:	681b      	ldr	r3, [r3, #0]
 8000246:	f383 8808 	msr	MSP, r3
 800024a:	2301      	movs	r3, #1
 800024c:	f383 8810 	msr	PRIMASK, r3
 8000250:	2400      	movs	r4, #0
 8000252:	e009      	b.n	8000268 <iap_load_app+0x50>
 8000254:	f44f 707a 	mov.w	r0, #1000	; 0x3e8
 8000258:	f000 f90c 	bl	8000474 <HAL_Delay>
 800025c:	2180      	movs	r1, #128	; 0x80
 800025e:	4806      	ldr	r0, [pc, #24]	; (8000278 <iap_load_app+0x60>)
 8000260:	f000 fdeb 	bl	8000e3a <HAL_GPIO_TogglePin>
 8000264:	3401      	adds	r4, #1
 8000266:	b2e4      	uxtb	r4, r4
 8000268:	2c09      	cmp	r4, #9
 800026a:	d9f3      	bls.n	8000254 <iap_load_app+0x3c>
 800026c:	47a8      	blx	r5
 800026e:	bd38      	pop	{r3, r4, r5, pc}
 8000270:	08004000 	stmdaeq	r0, {lr}
 8000274:	20020000 	andcs	r0, r2, r0
 8000278:	48001000 	stmdami	r0, {ip}

0800027c <Error_Handler>:
 800027c:	b672      	cpsid	i
 800027e:	e7fe      	b.n	800027e <Error_Handler+0x2>

08000280 <SystemClock_Config>:
 8000280:	b500      	push	{lr}
 8000282:	b095      	sub	sp, #84	; 0x54
 8000284:	2238      	movs	r2, #56	; 0x38
 8000286:	2100      	movs	r1, #0
 8000288:	a806      	add	r0, sp, #24
 800028a:	f000 ff19 	bl	80010c0 <memset>
 800028e:	2000      	movs	r0, #0
 8000290:	9001      	str	r0, [sp, #4]
 8000292:	9002      	str	r0, [sp, #8]
 8000294:	9003      	str	r0, [sp, #12]
 8000296:	9004      	str	r0, [sp, #16]
 8000298:	9005      	str	r0, [sp, #20]
 800029a:	f000 fdd7 	bl	8000e4c <HAL_PWREx_ControlVoltageScaling>
 800029e:	2309      	movs	r3, #9
 80002a0:	9306      	str	r3, [sp, #24]
 80002a2:	f44f 3380 	mov.w	r3, #65536	; 0x10000
 80002a6:	9307      	str	r3, [sp, #28]
 80002a8:	2301      	movs	r3, #1
 80002aa:	930b      	str	r3, [sp, #44]	; 0x2c
 80002ac:	2302      	movs	r3, #2
 80002ae:	930d      	str	r3, [sp, #52]	; 0x34
 80002b0:	2203      	movs	r2, #3
 80002b2:	920e      	str	r2, [sp, #56]	; 0x38
 80002b4:	920f      	str	r2, [sp, #60]	; 0x3c
 80002b6:	2255      	movs	r2, #85	; 0x55
 80002b8:	9210      	str	r2, [sp, #64]	; 0x40
 80002ba:	9311      	str	r3, [sp, #68]	; 0x44
 80002bc:	9312      	str	r3, [sp, #72]	; 0x48
 80002be:	9313      	str	r3, [sp, #76]	; 0x4c
 80002c0:	a806      	add	r0, sp, #24
 80002c2:	f000 f917 	bl	80004f4 <HAL_RCC_OscConfig>
 80002c6:	b980      	cbnz	r0, 80002ea <SystemClock_Config+0x6a>
 80002c8:	230f      	movs	r3, #15
 80002ca:	9301      	str	r3, [sp, #4]
 80002cc:	2303      	movs	r3, #3
 80002ce:	9302      	str	r3, [sp, #8]
 80002d0:	2300      	movs	r3, #0
 80002d2:	9303      	str	r3, [sp, #12]
 80002d4:	9304      	str	r3, [sp, #16]
 80002d6:	9305      	str	r3, [sp, #20]
 80002d8:	2104      	movs	r1, #4
 80002da:	eb0d 0001 	add.w	r0, sp, r1
 80002de:	f000 fbc1 	bl	8000a64 <HAL_RCC_ClockConfig>
 80002e2:	b920      	cbnz	r0, 80002ee <SystemClock_Config+0x6e>
 80002e4:	b015      	add	sp, #84	; 0x54
 80002e6:	f85d fb04 	ldr.w	pc, [sp], #4
 80002ea:	f7ff ffc7 	bl	800027c <Error_Handler>
 80002ee:	f7ff ffc5 	bl	800027c <Error_Handler>

080002f2 <main>:
 80002f2:	b508      	push	{r3, lr}
 80002f4:	f000 f89c 	bl	8000430 <HAL_Init>
 80002f8:	f7ff ffc2 	bl	8000280 <SystemClock_Config>
 80002fc:	f000 f804 	bl	8000308 <MX_GPIO_Init>
 8000300:	f7ff ff8a 	bl	8000218 <iap_load_app>
 8000304:	e7fe      	b.n	8000304 <main+0x12>
	...

08000308 <MX_GPIO_Init>:
 8000308:	b530      	push	{r4, r5, lr}
 800030a:	b089      	sub	sp, #36	; 0x24
 800030c:	2400      	movs	r4, #0
 800030e:	9403      	str	r4, [sp, #12]
 8000310:	9404      	str	r4, [sp, #16]
 8000312:	9405      	str	r4, [sp, #20]
 8000314:	9406      	str	r4, [sp, #24]
 8000316:	9407      	str	r4, [sp, #28]
 8000318:	4b16      	ldr	r3, [pc, #88]	; (8000374 <MX_GPIO_Init+0x6c>)
 800031a:	6cda      	ldr	r2, [r3, #76]	; 0x4c
 800031c:	f042 0220 	orr.w	r2, r2, #32
 8000320:	64da      	str	r2, [r3, #76]	; 0x4c
 8000322:	6cda      	ldr	r2, [r3, #76]	; 0x4c
 8000324:	f002 0220 	and.w	r2, r2, #32
 8000328:	9200      	str	r2, [sp, #0]
 800032a:	9a00      	ldr	r2, [sp, #0]
 800032c:	6cda      	ldr	r2, [r3, #76]	; 0x4c
 800032e:	f042 0210 	orr.w	r2, r2, #16
 8000332:	64da      	str	r2, [r3, #76]	; 0x4c
 8000334:	6cda      	ldr	r2, [r3, #76]	; 0x4c
 8000336:	f002 0210 	and.w	r2, r2, #16
 800033a:	9201      	str	r2, [sp, #4]
 800033c:	9a01      	ldr	r2, [sp, #4]
 800033e:	6cda      	ldr	r2, [r3, #76]	; 0x4c
 8000340:	f042 0201 	orr.w	r2, r2, #1
 8000344:	64da      	str	r2, [r3, #76]	; 0x4c
 8000346:	6cdb      	ldr	r3, [r3, #76]	; 0x4c
 8000348:	f003 0301 	and.w	r3, r3, #1
 800034c:	9302      	str	r3, [sp, #8]
 800034e:	9b02      	ldr	r3, [sp, #8]
 8000350:	4d09      	ldr	r5, [pc, #36]	; (8000378 <MX_GPIO_Init+0x70>)
 8000352:	4622      	mov	r2, r4
 8000354:	2180      	movs	r1, #128	; 0x80
 8000356:	4628      	mov	r0, r5
 8000358:	f000 fd6a 	bl	8000e30 <HAL_GPIO_WritePin>
 800035c:	2380      	movs	r3, #128	; 0x80
 800035e:	9303      	str	r3, [sp, #12]
 8000360:	2301      	movs	r3, #1
 8000362:	9304      	str	r3, [sp, #16]
 8000364:	9405      	str	r4, [sp, #20]
 8000366:	9406      	str	r4, [sp, #24]
 8000368:	a903      	add	r1, sp, #12
 800036a:	4628      	mov	r0, r5
 800036c:	f000 fc76 	bl	8000c5c <HAL_GPIO_Init>
 8000370:	b009      	add	sp, #36	; 0x24
 8000372:	bd30      	pop	{r4, r5, pc}
 8000374:	40021000 	andmi	r1, r2, r0
 8000378:	48001000 	stmdami	r0, {ip}

0800037c <NMI_Handler>:
 800037c:	e7fe      	b.n	800037c <NMI_Handler>

0800037e <HardFault_Handler>:
 800037e:	e7fe      	b.n	800037e <HardFault_Handler>

08000380 <MemManage_Handler>:
 8000380:	e7fe      	b.n	8000380 <MemManage_Handler>

08000382 <BusFault_Handler>:
 8000382:	e7fe      	b.n	8000382 <BusFault_Handler>

08000384 <UsageFault_Handler>:
 8000384:	e7fe      	b.n	8000384 <UsageFault_Handler>

08000386 <SVC_Handler>:
 8000386:	4770      	bx	lr

08000388 <DebugMon_Handler>:
 8000388:	4770      	bx	lr

0800038a <PendSV_Handler>:
 800038a:	4770      	bx	lr

0800038c <SysTick_Handler>:
 800038c:	b508      	push	{r3, lr}
 800038e:	f000 f85f 	bl	8000450 <HAL_IncTick>
 8000392:	bd08      	pop	{r3, pc}

08000394 <HAL_MspInit>:
 8000394:	b500      	push	{lr}
 8000396:	b083      	sub	sp, #12
 8000398:	4b0b      	ldr	r3, [pc, #44]	; (80003c8 <HAL_MspInit+0x34>)
 800039a:	6e1a      	ldr	r2, [r3, #96]	; 0x60
 800039c:	f042 0201 	orr.w	r2, r2, #1
 80003a0:	661a      	str	r2, [r3, #96]	; 0x60
 80003a2:	6e1a      	ldr	r2, [r3, #96]	; 0x60
 80003a4:	f002 0201 	and.w	r2, r2, #1
 80003a8:	9200      	str	r2, [sp, #0]
 80003aa:	9a00      	ldr	r2, [sp, #0]
 80003ac:	6d9a      	ldr	r2, [r3, #88]	; 0x58
 80003ae:	f042 5280 	orr.w	r2, r2, #268435456	; 0x10000000
 80003b2:	659a      	str	r2, [r3, #88]	; 0x58
 80003b4:	6d9b      	ldr	r3, [r3, #88]	; 0x58
 80003b6:	f003 5380 	and.w	r3, r3, #268435456	; 0x10000000
 80003ba:	9301      	str	r3, [sp, #4]
 80003bc:	9b01      	ldr	r3, [sp, #4]
 80003be:	f000 fdcb 	bl	8000f58 <HAL_PWREx_DisableUCPDDeadBattery>
 80003c2:	b003      	add	sp, #12
 80003c4:	f85d fb04 	ldr.w	pc, [sp], #4
 80003c8:	40021000 	andmi	r1, r2, r0

080003cc <SystemInit>:
 80003cc:	4a03      	ldr	r2, [pc, #12]	; (80003dc <SystemInit+0x10>)
 80003ce:	f8d2 3088 	ldr.w	r3, [r2, #136]	; 0x88
 80003d2:	f443 0370 	orr.w	r3, r3, #15728640	; 0xf00000
 80003d6:	f8c2 3088 	str.w	r3, [r2, #136]	; 0x88
 80003da:	4770      	bx	lr
 80003dc:	e000ed00 	and	lr, r0, r0, lsl #26

080003e0 <HAL_InitTick>:
 80003e0:	4b10      	ldr	r3, [pc, #64]	; (8000424 <HAL_InitTick+0x44>)
 80003e2:	681b      	ldr	r3, [r3, #0]
 80003e4:	b90b      	cbnz	r3, 80003ea <HAL_InitTick+0xa>
 80003e6:	2001      	movs	r0, #1
 80003e8:	4770      	bx	lr
 80003ea:	b510      	push	{r4, lr}
 80003ec:	4604      	mov	r4, r0
 80003ee:	f44f 707a 	mov.w	r0, #1000	; 0x3e8
 80003f2:	fbb0 f3f3 	udiv	r3, r0, r3
 80003f6:	4a0c      	ldr	r2, [pc, #48]	; (8000428 <HAL_InitTick+0x48>)
 80003f8:	6810      	ldr	r0, [r2, #0]
 80003fa:	fbb0 f0f3 	udiv	r0, r0, r3
 80003fe:	f000 fdfd 	bl	8000ffc <HAL_SYSTICK_Config>
 8000402:	b968      	cbnz	r0, 8000420 <HAL_InitTick+0x40>
 8000404:	2c0f      	cmp	r4, #15
 8000406:	d901      	bls.n	800040c <HAL_InitTick+0x2c>
 8000408:	2001      	movs	r0, #1
 800040a:	e00a      	b.n	8000422 <HAL_InitTick+0x42>
 800040c:	2200      	movs	r2, #0
 800040e:	4621      	mov	r1, r4
 8000410:	f04f 30ff 	mov.w	r0, #4294967295
 8000414:	f000 fdba 	bl	8000f8c <HAL_NVIC_SetPriority>
 8000418:	4b04      	ldr	r3, [pc, #16]	; (800042c <HAL_InitTick+0x4c>)
 800041a:	601c      	str	r4, [r3, #0]
 800041c:	2000      	movs	r0, #0
 800041e:	e000      	b.n	8000422 <HAL_InitTick+0x42>
 8000420:	2001      	movs	r0, #1
 8000422:	bd10      	pop	{r4, pc}
 8000424:	20000004 	andcs	r0, r0, r4
 8000428:	20000000 	andcs	r0, r0, r0
 800042c:	20000008 	andcs	r0, r0, r8

08000430 <HAL_Init>:
 8000430:	b510      	push	{r4, lr}
 8000432:	2003      	movs	r0, #3
 8000434:	f000 fd98 	bl	8000f68 <HAL_NVIC_SetPriorityGrouping>
 8000438:	200f      	movs	r0, #15
 800043a:	f7ff ffd1 	bl	80003e0 <HAL_InitTick>
 800043e:	b110      	cbz	r0, 8000446 <HAL_Init+0x16>
 8000440:	2401      	movs	r4, #1
 8000442:	4620      	mov	r0, r4
 8000444:	bd10      	pop	{r4, pc}
 8000446:	4604      	mov	r4, r0
 8000448:	f7ff ffa4 	bl	8000394 <HAL_MspInit>
 800044c:	e7f9      	b.n	8000442 <HAL_Init+0x12>
	...

08000450 <HAL_IncTick>:
 8000450:	4a03      	ldr	r2, [pc, #12]	; (8000460 <HAL_IncTick+0x10>)
 8000452:	6813      	ldr	r3, [r2, #0]
 8000454:	4903      	ldr	r1, [pc, #12]	; (8000464 <HAL_IncTick+0x14>)
 8000456:	6809      	ldr	r1, [r1, #0]
 8000458:	440b      	add	r3, r1
 800045a:	6013      	str	r3, [r2, #0]
 800045c:	4770      	bx	lr
 800045e:	bf00      	nop
 8000460:	20000028 	andcs	r0, r0, r8, lsr #32
 8000464:	20000004 	andcs	r0, r0, r4

08000468 <HAL_GetTick>:
 8000468:	4b01      	ldr	r3, [pc, #4]	; (8000470 <HAL_GetTick+0x8>)
 800046a:	6818      	ldr	r0, [r3, #0]
 800046c:	4770      	bx	lr
 800046e:	bf00      	nop
 8000470:	20000028 	andcs	r0, r0, r8, lsr #32

08000474 <HAL_Delay>:
 8000474:	b538      	push	{r3, r4, r5, lr}
 8000476:	4604      	mov	r4, r0
 8000478:	f7ff fff6 	bl	8000468 <HAL_GetTick>
 800047c:	4605      	mov	r5, r0
 800047e:	f1b4 3fff 	cmp.w	r4, #4294967295
 8000482:	d002      	beq.n	800048a <HAL_Delay+0x16>
 8000484:	4b04      	ldr	r3, [pc, #16]	; (8000498 <HAL_Delay+0x24>)
 8000486:	681b      	ldr	r3, [r3, #0]
 8000488:	441c      	add	r4, r3
 800048a:	f7ff ffed 	bl	8000468 <HAL_GetTick>
 800048e:	1b40      	subs	r0, r0, r5
 8000490:	42a0      	cmp	r0, r4
 8000492:	d3fa      	bcc.n	800048a <HAL_Delay+0x16>
 8000494:	bd38      	pop	{r3, r4, r5, pc}
 8000496:	bf00      	nop
 8000498:	20000004 	andcs	r0, r0, r4

0800049c <RCC_GetSysClockFreqFromPLLSource>:
 800049c:	4b12      	ldr	r3, [pc, #72]	; (80004e8 <RCC_GetSysClockFreqFromPLLSource+0x4c>)
 800049e:	68da      	ldr	r2, [r3, #12]
 80004a0:	f002 0203 	and.w	r2, r2, #3
 80004a4:	68d8      	ldr	r0, [r3, #12]
 80004a6:	f3c0 1003 	ubfx	r0, r0, #4, #4
 80004aa:	1c43      	adds	r3, r0, #1
 80004ac:	2a03      	cmp	r2, #3
 80004ae:	d011      	beq.n	80004d4 <RCC_GetSysClockFreqFromPLLSource+0x38>
 80004b0:	480e      	ldr	r0, [pc, #56]	; (80004ec <RCC_GetSysClockFreqFromPLLSource+0x50>)
 80004b2:	fbb0 f0f3 	udiv	r0, r0, r3
 80004b6:	4b0c      	ldr	r3, [pc, #48]	; (80004e8 <RCC_GetSysClockFreqFromPLLSource+0x4c>)
 80004b8:	68db      	ldr	r3, [r3, #12]
 80004ba:	f3c3 2306 	ubfx	r3, r3, #8, #7
 80004be:	fb03 f000 	mul.w	r0, r3, r0
 80004c2:	4b09      	ldr	r3, [pc, #36]	; (80004e8 <RCC_GetSysClockFreqFromPLLSource+0x4c>)
 80004c4:	68db      	ldr	r3, [r3, #12]
 80004c6:	f3c3 6341 	ubfx	r3, r3, #25, #2
 80004ca:	3301      	adds	r3, #1
 80004cc:	005b      	lsls	r3, r3, #1
 80004ce:	fbb0 f0f3 	udiv	r0, r0, r3
 80004d2:	4770      	bx	lr
 80004d4:	4806      	ldr	r0, [pc, #24]	; (80004f0 <RCC_GetSysClockFreqFromPLLSource+0x54>)
 80004d6:	fbb0 f0f3 	udiv	r0, r0, r3
 80004da:	4b03      	ldr	r3, [pc, #12]	; (80004e8 <RCC_GetSysClockFreqFromPLLSource+0x4c>)
 80004dc:	68db      	ldr	r3, [r3, #12]
 80004de:	f3c3 2306 	ubfx	r3, r3, #8, #7
 80004e2:	fb03 f000 	mul.w	r0, r3, r0
 80004e6:	e7ec      	b.n	80004c2 <RCC_GetSysClockFreqFromPLLSource+0x26>
 80004e8:	40021000 	andmi	r1, r2, r0
 80004ec:	00f42400 	rscseq	r2, r4, r0, lsl #8
 80004f0:	00b71b00 	adcseq	r1, r7, r0, lsl #22

080004f4 <HAL_RCC_OscConfig>:
 80004f4:	2800      	cmp	r0, #0
 80004f6:	f000 8254 	beq.w	80009a2 <HAL_RCC_OscConfig+0x4ae>
 80004fa:	b570      	push	{r4, r5, r6, lr}
 80004fc:	b082      	sub	sp, #8
 80004fe:	4604      	mov	r4, r0
 8000500:	6803      	ldr	r3, [r0, #0]
 8000502:	f013 0f01 	tst.w	r3, #1
 8000506:	d037      	beq.n	8000578 <HAL_RCC_OscConfig+0x84>
 8000508:	4aa4      	ldr	r2, [pc, #656]	; (800079c <HAL_RCC_OscConfig+0x2a8>)
 800050a:	6893      	ldr	r3, [r2, #8]
 800050c:	f003 030c 	and.w	r3, r3, #12
 8000510:	68d2      	ldr	r2, [r2, #12]
 8000512:	f002 0203 	and.w	r2, r2, #3
 8000516:	2b0c      	cmp	r3, #12
 8000518:	d023      	beq.n	8000562 <HAL_RCC_OscConfig+0x6e>
 800051a:	2b08      	cmp	r3, #8
 800051c:	d023      	beq.n	8000566 <HAL_RCC_OscConfig+0x72>
 800051e:	6863      	ldr	r3, [r4, #4]
 8000520:	f5b3 3f80 	cmp.w	r3, #65536	; 0x10000
 8000524:	d04e      	beq.n	80005c4 <HAL_RCC_OscConfig+0xd0>
 8000526:	f5b3 2fa0 	cmp.w	r3, #327680	; 0x50000
 800052a:	d051      	beq.n	80005d0 <HAL_RCC_OscConfig+0xdc>
 800052c:	4b9b      	ldr	r3, [pc, #620]	; (800079c <HAL_RCC_OscConfig+0x2a8>)
 800052e:	681a      	ldr	r2, [r3, #0]
 8000530:	f422 3280 	bic.w	r2, r2, #65536	; 0x10000
 8000534:	601a      	str	r2, [r3, #0]
 8000536:	681a      	ldr	r2, [r3, #0]
 8000538:	f422 2280 	bic.w	r2, r2, #262144	; 0x40000
 800053c:	601a      	str	r2, [r3, #0]
 800053e:	6863      	ldr	r3, [r4, #4]
 8000540:	2b00      	cmp	r3, #0
 8000542:	d052      	beq.n	80005ea <HAL_RCC_OscConfig+0xf6>
 8000544:	f7ff ff90 	bl	8000468 <HAL_GetTick>
 8000548:	4605      	mov	r5, r0
 800054a:	4b94      	ldr	r3, [pc, #592]	; (800079c <HAL_RCC_OscConfig+0x2a8>)
 800054c:	681b      	ldr	r3, [r3, #0]
 800054e:	f413 3f00 	tst.w	r3, #131072	; 0x20000
 8000552:	d111      	bne.n	8000578 <HAL_RCC_OscConfig+0x84>
 8000554:	f7ff ff88 	bl	8000468 <HAL_GetTick>
 8000558:	1b40      	subs	r0, r0, r5
 800055a:	2864      	cmp	r0, #100	; 0x64
 800055c:	d9f5      	bls.n	800054a <HAL_RCC_OscConfig+0x56>
 800055e:	2003      	movs	r0, #3
 8000560:	e228      	b.n	80009b4 <HAL_RCC_OscConfig+0x4c0>
 8000562:	2a03      	cmp	r2, #3
 8000564:	d1d9      	bne.n	800051a <HAL_RCC_OscConfig+0x26>
 8000566:	4b8d      	ldr	r3, [pc, #564]	; (800079c <HAL_RCC_OscConfig+0x2a8>)
 8000568:	681b      	ldr	r3, [r3, #0]
 800056a:	f413 3f00 	tst.w	r3, #131072	; 0x20000
 800056e:	d003      	beq.n	8000578 <HAL_RCC_OscConfig+0x84>
 8000570:	6863      	ldr	r3, [r4, #4]
 8000572:	2b00      	cmp	r3, #0
 8000574:	f000 8217 	beq.w	80009a6 <HAL_RCC_OscConfig+0x4b2>
 8000578:	6823      	ldr	r3, [r4, #0]
 800057a:	f013 0f02 	tst.w	r3, #2
 800057e:	d05d      	beq.n	800063c <HAL_RCC_OscConfig+0x148>
 8000580:	4a86      	ldr	r2, [pc, #536]	; (800079c <HAL_RCC_OscConfig+0x2a8>)
 8000582:	6893      	ldr	r3, [r2, #8]
 8000584:	f003 030c 	and.w	r3, r3, #12
 8000588:	68d2      	ldr	r2, [r2, #12]
 800058a:	f002 0203 	and.w	r2, r2, #3
 800058e:	2b0c      	cmp	r3, #12
 8000590:	d03a      	beq.n	8000608 <HAL_RCC_OscConfig+0x114>
 8000592:	2b04      	cmp	r3, #4
 8000594:	d03a      	beq.n	800060c <HAL_RCC_OscConfig+0x118>
 8000596:	68e3      	ldr	r3, [r4, #12]
 8000598:	2b00      	cmp	r3, #0
 800059a:	d075      	beq.n	8000688 <HAL_RCC_OscConfig+0x194>
 800059c:	4a7f      	ldr	r2, [pc, #508]	; (800079c <HAL_RCC_OscConfig+0x2a8>)
 800059e:	6813      	ldr	r3, [r2, #0]
 80005a0:	f443 7380 	orr.w	r3, r3, #256	; 0x100
 80005a4:	6013      	str	r3, [r2, #0]
 80005a6:	f7ff ff5f 	bl	8000468 <HAL_GetTick>
 80005aa:	4605      	mov	r5, r0
 80005ac:	4b7b      	ldr	r3, [pc, #492]	; (800079c <HAL_RCC_OscConfig+0x2a8>)
 80005ae:	681b      	ldr	r3, [r3, #0]
 80005b0:	f413 6f80 	tst.w	r3, #1024	; 0x400
 80005b4:	d15f      	bne.n	8000676 <HAL_RCC_OscConfig+0x182>
 80005b6:	f7ff ff57 	bl	8000468 <HAL_GetTick>
 80005ba:	1b40      	subs	r0, r0, r5
 80005bc:	2802      	cmp	r0, #2
 80005be:	d9f5      	bls.n	80005ac <HAL_RCC_OscConfig+0xb8>
 80005c0:	2003      	movs	r0, #3
 80005c2:	e1f7      	b.n	80009b4 <HAL_RCC_OscConfig+0x4c0>
 80005c4:	4a75      	ldr	r2, [pc, #468]	; (800079c <HAL_RCC_OscConfig+0x2a8>)
 80005c6:	6813      	ldr	r3, [r2, #0]
 80005c8:	f443 3380 	orr.w	r3, r3, #65536	; 0x10000
 80005cc:	6013      	str	r3, [r2, #0]
 80005ce:	e7b6      	b.n	800053e <HAL_RCC_OscConfig+0x4a>
 80005d0:	f103 4380 	add.w	r3, r3, #1073741824	; 0x40000000
 80005d4:	f5a3 333c 	sub.w	r3, r3, #192512	; 0x2f000
 80005d8:	681a      	ldr	r2, [r3, #0]
 80005da:	f442 2280 	orr.w	r2, r2, #262144	; 0x40000
 80005de:	601a      	str	r2, [r3, #0]
 80005e0:	681a      	ldr	r2, [r3, #0]
 80005e2:	f442 3280 	orr.w	r2, r2, #65536	; 0x10000
 80005e6:	601a      	str	r2, [r3, #0]
 80005e8:	e7a9      	b.n	800053e <HAL_RCC_OscConfig+0x4a>
 80005ea:	f7ff ff3d 	bl	8000468 <HAL_GetTick>
 80005ee:	4605      	mov	r5, r0
 80005f0:	4b6a      	ldr	r3, [pc, #424]	; (800079c <HAL_RCC_OscConfig+0x2a8>)
 80005f2:	681b      	ldr	r3, [r3, #0]
 80005f4:	f413 3f00 	tst.w	r3, #131072	; 0x20000
 80005f8:	d0be      	beq.n	8000578 <HAL_RCC_OscConfig+0x84>
 80005fa:	f7ff ff35 	bl	8000468 <HAL_GetTick>
 80005fe:	1b40      	subs	r0, r0, r5
 8000600:	2864      	cmp	r0, #100	; 0x64
 8000602:	d9f5      	bls.n	80005f0 <HAL_RCC_OscConfig+0xfc>
 8000604:	2003      	movs	r0, #3
 8000606:	e1d5      	b.n	80009b4 <HAL_RCC_OscConfig+0x4c0>
 8000608:	2a02      	cmp	r2, #2
 800060a:	d1c2      	bne.n	8000592 <HAL_RCC_OscConfig+0x9e>
 800060c:	4b63      	ldr	r3, [pc, #396]	; (800079c <HAL_RCC_OscConfig+0x2a8>)
 800060e:	681b      	ldr	r3, [r3, #0]
 8000610:	f413 6f80 	tst.w	r3, #1024	; 0x400
 8000614:	d003      	beq.n	800061e <HAL_RCC_OscConfig+0x12a>
 8000616:	68e3      	ldr	r3, [r4, #12]
 8000618:	2b00      	cmp	r3, #0
 800061a:	f000 81c6 	beq.w	80009aa <HAL_RCC_OscConfig+0x4b6>
 800061e:	4a5f      	ldr	r2, [pc, #380]	; (800079c <HAL_RCC_OscConfig+0x2a8>)
 8000620:	6853      	ldr	r3, [r2, #4]
 8000622:	f023 43fe 	bic.w	r3, r3, #2130706432	; 0x7f000000
 8000626:	6921      	ldr	r1, [r4, #16]
 8000628:	ea43 6301 	orr.w	r3, r3, r1, lsl #24
 800062c:	6053      	str	r3, [r2, #4]
 800062e:	4b5c      	ldr	r3, [pc, #368]	; (80007a0 <HAL_RCC_OscConfig+0x2ac>)
 8000630:	6818      	ldr	r0, [r3, #0]
 8000632:	f7ff fed5 	bl	80003e0 <HAL_InitTick>
 8000636:	2800      	cmp	r0, #0
 8000638:	f040 81b9 	bne.w	80009ae <HAL_RCC_OscConfig+0x4ba>
 800063c:	6823      	ldr	r3, [r4, #0]
 800063e:	f013 0f08 	tst.w	r3, #8
 8000642:	d04c      	beq.n	80006de <HAL_RCC_OscConfig+0x1ea>
 8000644:	6963      	ldr	r3, [r4, #20]
 8000646:	b39b      	cbz	r3, 80006b0 <HAL_RCC_OscConfig+0x1bc>
 8000648:	4a54      	ldr	r2, [pc, #336]	; (800079c <HAL_RCC_OscConfig+0x2a8>)
 800064a:	f8d2 3094 	ldr.w	r3, [r2, #148]	; 0x94
 800064e:	f043 0301 	orr.w	r3, r3, #1
 8000652:	f8c2 3094 	str.w	r3, [r2, #148]	; 0x94
 8000656:	f7ff ff07 	bl	8000468 <HAL_GetTick>
 800065a:	4605      	mov	r5, r0
 800065c:	4b4f      	ldr	r3, [pc, #316]	; (800079c <HAL_RCC_OscConfig+0x2a8>)
 800065e:	f8d3 3094 	ldr.w	r3, [r3, #148]	; 0x94
 8000662:	f013 0f02 	tst.w	r3, #2
 8000666:	d13a      	bne.n	80006de <HAL_RCC_OscConfig+0x1ea>
 8000668:	f7ff fefe 	bl	8000468 <HAL_GetTick>
 800066c:	1b40      	subs	r0, r0, r5
 800066e:	2802      	cmp	r0, #2
 8000670:	d9f4      	bls.n	800065c <HAL_RCC_OscConfig+0x168>
 8000672:	2003      	movs	r0, #3
 8000674:	e19e      	b.n	80009b4 <HAL_RCC_OscConfig+0x4c0>
 8000676:	4a49      	ldr	r2, [pc, #292]	; (800079c <HAL_RCC_OscConfig+0x2a8>)
 8000678:	6853      	ldr	r3, [r2, #4]
 800067a:	f023 43fe 	bic.w	r3, r3, #2130706432	; 0x7f000000
 800067e:	6921      	ldr	r1, [r4, #16]
 8000680:	ea43 6301 	orr.w	r3, r3, r1, lsl #24
 8000684:	6053      	str	r3, [r2, #4]
 8000686:	e7d9      	b.n	800063c <HAL_RCC_OscConfig+0x148>
 8000688:	4a44      	ldr	r2, [pc, #272]	; (800079c <HAL_RCC_OscConfig+0x2a8>)
 800068a:	6813      	ldr	r3, [r2, #0]
 800068c:	f423 7380 	bic.w	r3, r3, #256	; 0x100
 8000690:	6013      	str	r3, [r2, #0]
 8000692:	f7ff fee9 	bl	8000468 <HAL_GetTick>
 8000696:	4605      	mov	r5, r0
 8000698:	4b40      	ldr	r3, [pc, #256]	; (800079c <HAL_RCC_OscConfig+0x2a8>)
 800069a:	681b      	ldr	r3, [r3, #0]
 800069c:	f413 6f80 	tst.w	r3, #1024	; 0x400
 80006a0:	d0cc      	beq.n	800063c <HAL_RCC_OscConfig+0x148>
 80006a2:	f7ff fee1 	bl	8000468 <HAL_GetTick>
 80006a6:	1b40      	subs	r0, r0, r5
 80006a8:	2802      	cmp	r0, #2
 80006aa:	d9f5      	bls.n	8000698 <HAL_RCC_OscConfig+0x1a4>
 80006ac:	2003      	movs	r0, #3
 80006ae:	e181      	b.n	80009b4 <HAL_RCC_OscConfig+0x4c0>
 80006b0:	4a3a      	ldr	r2, [pc, #232]	; (800079c <HAL_RCC_OscConfig+0x2a8>)
 80006b2:	f8d2 3094 	ldr.w	r3, [r2, #148]	; 0x94
 80006b6:	f023 0301 	bic.w	r3, r3, #1
 80006ba:	f8c2 3094 	str.w	r3, [r2, #148]	; 0x94
 80006be:	f7ff fed3 	bl	8000468 <HAL_GetTick>
 80006c2:	4605      	mov	r5, r0
 80006c4:	4b35      	ldr	r3, [pc, #212]	; (800079c <HAL_RCC_OscConfig+0x2a8>)
 80006c6:	f8d3 3094 	ldr.w	r3, [r3, #148]	; 0x94
 80006ca:	f013 0f02 	tst.w	r3, #2
 80006ce:	d006      	beq.n	80006de <HAL_RCC_OscConfig+0x1ea>
 80006d0:	f7ff feca 	bl	8000468 <HAL_GetTick>
 80006d4:	1b40      	subs	r0, r0, r5
 80006d6:	2802      	cmp	r0, #2
 80006d8:	d9f4      	bls.n	80006c4 <HAL_RCC_OscConfig+0x1d0>
 80006da:	2003      	movs	r0, #3
 80006dc:	e16a      	b.n	80009b4 <HAL_RCC_OscConfig+0x4c0>
 80006de:	6823      	ldr	r3, [r4, #0]
 80006e0:	f013 0f04 	tst.w	r3, #4
 80006e4:	f000 8081 	beq.w	80007ea <HAL_RCC_OscConfig+0x2f6>
 80006e8:	4b2c      	ldr	r3, [pc, #176]	; (800079c <HAL_RCC_OscConfig+0x2a8>)
 80006ea:	6d9b      	ldr	r3, [r3, #88]	; 0x58
 80006ec:	f013 5f80 	tst.w	r3, #268435456	; 0x10000000
 80006f0:	d136      	bne.n	8000760 <HAL_RCC_OscConfig+0x26c>
 80006f2:	4b2a      	ldr	r3, [pc, #168]	; (800079c <HAL_RCC_OscConfig+0x2a8>)
 80006f4:	6d9a      	ldr	r2, [r3, #88]	; 0x58
 80006f6:	f042 5280 	orr.w	r2, r2, #268435456	; 0x10000000
 80006fa:	659a      	str	r2, [r3, #88]	; 0x58
 80006fc:	6d9b      	ldr	r3, [r3, #88]	; 0x58
 80006fe:	f003 5380 	and.w	r3, r3, #268435456	; 0x10000000
 8000702:	9301      	str	r3, [sp, #4]
 8000704:	9b01      	ldr	r3, [sp, #4]
 8000706:	2501      	movs	r5, #1
 8000708:	4b26      	ldr	r3, [pc, #152]	; (80007a4 <HAL_RCC_OscConfig+0x2b0>)
 800070a:	681b      	ldr	r3, [r3, #0]
 800070c:	f413 7f80 	tst.w	r3, #256	; 0x100
 8000710:	d028      	beq.n	8000764 <HAL_RCC_OscConfig+0x270>
 8000712:	68a3      	ldr	r3, [r4, #8]
 8000714:	2b01      	cmp	r3, #1
 8000716:	d039      	beq.n	800078c <HAL_RCC_OscConfig+0x298>
 8000718:	2b05      	cmp	r3, #5
 800071a:	d045      	beq.n	80007a8 <HAL_RCC_OscConfig+0x2b4>
 800071c:	4b1f      	ldr	r3, [pc, #124]	; (800079c <HAL_RCC_OscConfig+0x2a8>)
 800071e:	f8d3 2090 	ldr.w	r2, [r3, #144]	; 0x90
 8000722:	f022 0201 	bic.w	r2, r2, #1
 8000726:	f8c3 2090 	str.w	r2, [r3, #144]	; 0x90
 800072a:	f8d3 2090 	ldr.w	r2, [r3, #144]	; 0x90
 800072e:	f022 0204 	bic.w	r2, r2, #4
 8000732:	f8c3 2090 	str.w	r2, [r3, #144]	; 0x90
 8000736:	68a3      	ldr	r3, [r4, #8]
 8000738:	2b00      	cmp	r3, #0
 800073a:	d043      	beq.n	80007c4 <HAL_RCC_OscConfig+0x2d0>
 800073c:	f7ff fe94 	bl	8000468 <HAL_GetTick>
 8000740:	4606      	mov	r6, r0
 8000742:	4b16      	ldr	r3, [pc, #88]	; (800079c <HAL_RCC_OscConfig+0x2a8>)
 8000744:	f8d3 3090 	ldr.w	r3, [r3, #144]	; 0x90
 8000748:	f013 0f02 	tst.w	r3, #2
 800074c:	d14c      	bne.n	80007e8 <HAL_RCC_OscConfig+0x2f4>
 800074e:	f7ff fe8b 	bl	8000468 <HAL_GetTick>
 8000752:	1b80      	subs	r0, r0, r6
 8000754:	f241 3388 	movw	r3, #5000	; 0x1388
 8000758:	4298      	cmp	r0, r3
 800075a:	d9f2      	bls.n	8000742 <HAL_RCC_OscConfig+0x24e>
 800075c:	2003      	movs	r0, #3
 800075e:	e129      	b.n	80009b4 <HAL_RCC_OscConfig+0x4c0>
 8000760:	2500      	movs	r5, #0
 8000762:	e7d1      	b.n	8000708 <HAL_RCC_OscConfig+0x214>
 8000764:	4a0f      	ldr	r2, [pc, #60]	; (80007a4 <HAL_RCC_OscConfig+0x2b0>)
 8000766:	6813      	ldr	r3, [r2, #0]
 8000768:	f443 7380 	orr.w	r3, r3, #256	; 0x100
 800076c:	6013      	str	r3, [r2, #0]
 800076e:	f7ff fe7b 	bl	8000468 <HAL_GetTick>
 8000772:	4606      	mov	r6, r0
 8000774:	4b0b      	ldr	r3, [pc, #44]	; (80007a4 <HAL_RCC_OscConfig+0x2b0>)
 8000776:	681b      	ldr	r3, [r3, #0]
 8000778:	f413 7f80 	tst.w	r3, #256	; 0x100
 800077c:	d1c9      	bne.n	8000712 <HAL_RCC_OscConfig+0x21e>
 800077e:	f7ff fe73 	bl	8000468 <HAL_GetTick>
 8000782:	1b80      	subs	r0, r0, r6
 8000784:	2802      	cmp	r0, #2
 8000786:	d9f5      	bls.n	8000774 <HAL_RCC_OscConfig+0x280>
 8000788:	2003      	movs	r0, #3
 800078a:	e113      	b.n	80009b4 <HAL_RCC_OscConfig+0x4c0>
 800078c:	4a03      	ldr	r2, [pc, #12]	; (800079c <HAL_RCC_OscConfig+0x2a8>)
 800078e:	f8d2 3090 	ldr.w	r3, [r2, #144]	; 0x90
 8000792:	f043 0301 	orr.w	r3, r3, #1
 8000796:	f8c2 3090 	str.w	r3, [r2, #144]	; 0x90
 800079a:	e7cc      	b.n	8000736 <HAL_RCC_OscConfig+0x242>
 800079c:	40021000 	andmi	r1, r2, r0
 80007a0:	20000008 	andcs	r0, r0, r8
 80007a4:	40007000 	andmi	r7, r0, r0
 80007a8:	4b8a      	ldr	r3, [pc, #552]	; (80009d4 <HAL_RCC_OscConfig+0x4e0>)
 80007aa:	f8d3 2090 	ldr.w	r2, [r3, #144]	; 0x90
 80007ae:	f042 0204 	orr.w	r2, r2, #4
 80007b2:	f8c3 2090 	str.w	r2, [r3, #144]	; 0x90
 80007b6:	f8d3 2090 	ldr.w	r2, [r3, #144]	; 0x90
 80007ba:	f042 0201 	orr.w	r2, r2, #1
 80007be:	f8c3 2090 	str.w	r2, [r3, #144]	; 0x90
 80007c2:	e7b8      	b.n	8000736 <HAL_RCC_OscConfig+0x242>
 80007c4:	f7ff fe50 	bl	8000468 <HAL_GetTick>
 80007c8:	4606      	mov	r6, r0
 80007ca:	4b82      	ldr	r3, [pc, #520]	; (80009d4 <HAL_RCC_OscConfig+0x4e0>)
 80007cc:	f8d3 3090 	ldr.w	r3, [r3, #144]	; 0x90
 80007d0:	f013 0f02 	tst.w	r3, #2
 80007d4:	d008      	beq.n	80007e8 <HAL_RCC_OscConfig+0x2f4>
 80007d6:	f7ff fe47 	bl	8000468 <HAL_GetTick>
 80007da:	1b80      	subs	r0, r0, r6
 80007dc:	f241 3388 	movw	r3, #5000	; 0x1388
 80007e0:	4298      	cmp	r0, r3
 80007e2:	d9f2      	bls.n	80007ca <HAL_RCC_OscConfig+0x2d6>
 80007e4:	2003      	movs	r0, #3
 80007e6:	e0e5      	b.n	80009b4 <HAL_RCC_OscConfig+0x4c0>
 80007e8:	b9e5      	cbnz	r5, 8000824 <HAL_RCC_OscConfig+0x330>
 80007ea:	6823      	ldr	r3, [r4, #0]
 80007ec:	f013 0f20 	tst.w	r3, #32
 80007f0:	d035      	beq.n	800085e <HAL_RCC_OscConfig+0x36a>
 80007f2:	69a3      	ldr	r3, [r4, #24]
 80007f4:	b1e3      	cbz	r3, 8000830 <HAL_RCC_OscConfig+0x33c>
 80007f6:	4a77      	ldr	r2, [pc, #476]	; (80009d4 <HAL_RCC_OscConfig+0x4e0>)
 80007f8:	f8d2 3098 	ldr.w	r3, [r2, #152]	; 0x98
 80007fc:	f043 0301 	orr.w	r3, r3, #1
 8000800:	f8c2 3098 	str.w	r3, [r2, #152]	; 0x98
 8000804:	f7ff fe30 	bl	8000468 <HAL_GetTick>
 8000808:	4605      	mov	r5, r0
 800080a:	4b72      	ldr	r3, [pc, #456]	; (80009d4 <HAL_RCC_OscConfig+0x4e0>)
 800080c:	f8d3 3098 	ldr.w	r3, [r3, #152]	; 0x98
 8000810:	f013 0f02 	tst.w	r3, #2
 8000814:	d123      	bne.n	800085e <HAL_RCC_OscConfig+0x36a>
 8000816:	f7ff fe27 	bl	8000468 <HAL_GetTick>
 800081a:	1b40      	subs	r0, r0, r5
 800081c:	2802      	cmp	r0, #2
 800081e:	d9f4      	bls.n	800080a <HAL_RCC_OscConfig+0x316>
 8000820:	2003      	movs	r0, #3
 8000822:	e0c7      	b.n	80009b4 <HAL_RCC_OscConfig+0x4c0>
 8000824:	4a6b      	ldr	r2, [pc, #428]	; (80009d4 <HAL_RCC_OscConfig+0x4e0>)
 8000826:	6d93      	ldr	r3, [r2, #88]	; 0x58
 8000828:	f023 5380 	bic.w	r3, r3, #268435456	; 0x10000000
 800082c:	6593      	str	r3, [r2, #88]	; 0x58
 800082e:	e7dc      	b.n	80007ea <HAL_RCC_OscConfig+0x2f6>
 8000830:	4a68      	ldr	r2, [pc, #416]	; (80009d4 <HAL_RCC_OscConfig+0x4e0>)
 8000832:	f8d2 3098 	ldr.w	r3, [r2, #152]	; 0x98
 8000836:	f023 0301 	bic.w	r3, r3, #1
 800083a:	f8c2 3098 	str.w	r3, [r2, #152]	; 0x98
 800083e:	f7ff fe13 	bl	8000468 <HAL_GetTick>
 8000842:	4605      	mov	r5, r0
 8000844:	4b63      	ldr	r3, [pc, #396]	; (80009d4 <HAL_RCC_OscConfig+0x4e0>)
 8000846:	f8d3 3098 	ldr.w	r3, [r3, #152]	; 0x98
 800084a:	f013 0f02 	tst.w	r3, #2
 800084e:	d006      	beq.n	800085e <HAL_RCC_OscConfig+0x36a>
 8000850:	f7ff fe0a 	bl	8000468 <HAL_GetTick>
 8000854:	1b40      	subs	r0, r0, r5
 8000856:	2802      	cmp	r0, #2
 8000858:	d9f4      	bls.n	8000844 <HAL_RCC_OscConfig+0x350>
 800085a:	2003      	movs	r0, #3
 800085c:	e0aa      	b.n	80009b4 <HAL_RCC_OscConfig+0x4c0>
 800085e:	69e3      	ldr	r3, [r4, #28]
 8000860:	2b00      	cmp	r3, #0
 8000862:	f000 80a6 	beq.w	80009b2 <HAL_RCC_OscConfig+0x4be>
 8000866:	4a5b      	ldr	r2, [pc, #364]	; (80009d4 <HAL_RCC_OscConfig+0x4e0>)
 8000868:	6892      	ldr	r2, [r2, #8]
 800086a:	f002 020c 	and.w	r2, r2, #12
 800086e:	2a0c      	cmp	r2, #12
 8000870:	d069      	beq.n	8000946 <HAL_RCC_OscConfig+0x452>
 8000872:	2b02      	cmp	r3, #2
 8000874:	d01d      	beq.n	80008b2 <HAL_RCC_OscConfig+0x3be>
 8000876:	4b57      	ldr	r3, [pc, #348]	; (80009d4 <HAL_RCC_OscConfig+0x4e0>)
 8000878:	681a      	ldr	r2, [r3, #0]
 800087a:	f022 7280 	bic.w	r2, r2, #16777216	; 0x1000000
 800087e:	601a      	str	r2, [r3, #0]
 8000880:	68da      	ldr	r2, [r3, #12]
 8000882:	f022 0203 	bic.w	r2, r2, #3
 8000886:	60da      	str	r2, [r3, #12]
 8000888:	68da      	ldr	r2, [r3, #12]
 800088a:	f022 7288 	bic.w	r2, r2, #17825792	; 0x1100000
 800088e:	f422 3280 	bic.w	r2, r2, #65536	; 0x10000
 8000892:	60da      	str	r2, [r3, #12]
 8000894:	f7ff fde8 	bl	8000468 <HAL_GetTick>
 8000898:	4604      	mov	r4, r0
 800089a:	4b4e      	ldr	r3, [pc, #312]	; (80009d4 <HAL_RCC_OscConfig+0x4e0>)
 800089c:	681b      	ldr	r3, [r3, #0]
 800089e:	f013 7f00 	tst.w	r3, #33554432	; 0x2000000
 80008a2:	d04e      	beq.n	8000942 <HAL_RCC_OscConfig+0x44e>
 80008a4:	f7ff fde0 	bl	8000468 <HAL_GetTick>
 80008a8:	1b00      	subs	r0, r0, r4
 80008aa:	2802      	cmp	r0, #2
 80008ac:	d9f5      	bls.n	800089a <HAL_RCC_OscConfig+0x3a6>
 80008ae:	2003      	movs	r0, #3
 80008b0:	e080      	b.n	80009b4 <HAL_RCC_OscConfig+0x4c0>
 80008b2:	4a48      	ldr	r2, [pc, #288]	; (80009d4 <HAL_RCC_OscConfig+0x4e0>)
 80008b4:	6813      	ldr	r3, [r2, #0]
 80008b6:	f023 7380 	bic.w	r3, r3, #16777216	; 0x1000000
 80008ba:	6013      	str	r3, [r2, #0]
 80008bc:	f7ff fdd4 	bl	8000468 <HAL_GetTick>
 80008c0:	4605      	mov	r5, r0
 80008c2:	4b44      	ldr	r3, [pc, #272]	; (80009d4 <HAL_RCC_OscConfig+0x4e0>)
 80008c4:	681b      	ldr	r3, [r3, #0]
 80008c6:	f013 7f00 	tst.w	r3, #33554432	; 0x2000000
 80008ca:	d006      	beq.n	80008da <HAL_RCC_OscConfig+0x3e6>
 80008cc:	f7ff fdcc 	bl	8000468 <HAL_GetTick>
 80008d0:	1b40      	subs	r0, r0, r5
 80008d2:	2802      	cmp	r0, #2
 80008d4:	d9f5      	bls.n	80008c2 <HAL_RCC_OscConfig+0x3ce>
 80008d6:	2003      	movs	r0, #3
 80008d8:	e06c      	b.n	80009b4 <HAL_RCC_OscConfig+0x4c0>
 80008da:	4a3e      	ldr	r2, [pc, #248]	; (80009d4 <HAL_RCC_OscConfig+0x4e0>)
 80008dc:	68d3      	ldr	r3, [r2, #12]
 80008de:	493e      	ldr	r1, [pc, #248]	; (80009d8 <HAL_RCC_OscConfig+0x4e4>)
 80008e0:	4019      	ands	r1, r3
 80008e2:	6a23      	ldr	r3, [r4, #32]
 80008e4:	6a60      	ldr	r0, [r4, #36]	; 0x24
 80008e6:	3801      	subs	r0, #1
 80008e8:	ea43 1300 	orr.w	r3, r3, r0, lsl #4
 80008ec:	6aa0      	ldr	r0, [r4, #40]	; 0x28
 80008ee:	ea43 2300 	orr.w	r3, r3, r0, lsl #8
 80008f2:	6b20      	ldr	r0, [r4, #48]	; 0x30
 80008f4:	0840      	lsrs	r0, r0, #1
 80008f6:	3801      	subs	r0, #1
 80008f8:	ea43 5340 	orr.w	r3, r3, r0, lsl #21
 80008fc:	6b60      	ldr	r0, [r4, #52]	; 0x34
 80008fe:	0840      	lsrs	r0, r0, #1
 8000900:	3801      	subs	r0, #1
 8000902:	ea43 6340 	orr.w	r3, r3, r0, lsl #25
 8000906:	6ae0      	ldr	r0, [r4, #44]	; 0x2c
 8000908:	ea43 63c0 	orr.w	r3, r3, r0, lsl #27
 800090c:	430b      	orrs	r3, r1
 800090e:	60d3      	str	r3, [r2, #12]
 8000910:	6813      	ldr	r3, [r2, #0]
 8000912:	f043 7380 	orr.w	r3, r3, #16777216	; 0x1000000
 8000916:	6013      	str	r3, [r2, #0]
 8000918:	68d3      	ldr	r3, [r2, #12]
 800091a:	f043 7380 	orr.w	r3, r3, #16777216	; 0x1000000
 800091e:	60d3      	str	r3, [r2, #12]
 8000920:	f7ff fda2 	bl	8000468 <HAL_GetTick>
 8000924:	4604      	mov	r4, r0
 8000926:	4b2b      	ldr	r3, [pc, #172]	; (80009d4 <HAL_RCC_OscConfig+0x4e0>)
 8000928:	681b      	ldr	r3, [r3, #0]
 800092a:	f013 7f00 	tst.w	r3, #33554432	; 0x2000000
 800092e:	d106      	bne.n	800093e <HAL_RCC_OscConfig+0x44a>
 8000930:	f7ff fd9a 	bl	8000468 <HAL_GetTick>
 8000934:	1b00      	subs	r0, r0, r4
 8000936:	2802      	cmp	r0, #2
 8000938:	d9f5      	bls.n	8000926 <HAL_RCC_OscConfig+0x432>
 800093a:	2003      	movs	r0, #3
 800093c:	e03a      	b.n	80009b4 <HAL_RCC_OscConfig+0x4c0>
 800093e:	2000      	movs	r0, #0
 8000940:	e038      	b.n	80009b4 <HAL_RCC_OscConfig+0x4c0>
 8000942:	2000      	movs	r0, #0
 8000944:	e036      	b.n	80009b4 <HAL_RCC_OscConfig+0x4c0>
 8000946:	2b01      	cmp	r3, #1
 8000948:	d036      	beq.n	80009b8 <HAL_RCC_OscConfig+0x4c4>
 800094a:	4b22      	ldr	r3, [pc, #136]	; (80009d4 <HAL_RCC_OscConfig+0x4e0>)
 800094c:	68db      	ldr	r3, [r3, #12]
 800094e:	f003 0103 	and.w	r1, r3, #3
 8000952:	6a22      	ldr	r2, [r4, #32]
 8000954:	4291      	cmp	r1, r2
 8000956:	d131      	bne.n	80009bc <HAL_RCC_OscConfig+0x4c8>
 8000958:	f003 02f0 	and.w	r2, r3, #240	; 0xf0
 800095c:	6a61      	ldr	r1, [r4, #36]	; 0x24
 800095e:	3901      	subs	r1, #1
 8000960:	ebb2 1f01 	cmp.w	r2, r1, lsl #4
 8000964:	d12c      	bne.n	80009c0 <HAL_RCC_OscConfig+0x4cc>
 8000966:	f403 42fe 	and.w	r2, r3, #32512	; 0x7f00
 800096a:	6aa1      	ldr	r1, [r4, #40]	; 0x28
 800096c:	ebb2 2f01 	cmp.w	r2, r1, lsl #8
 8000970:	d128      	bne.n	80009c4 <HAL_RCC_OscConfig+0x4d0>
 8000972:	f003 4278 	and.w	r2, r3, #4160749568	; 0xf8000000
 8000976:	6ae1      	ldr	r1, [r4, #44]	; 0x2c
 8000978:	ebb2 6fc1 	cmp.w	r2, r1, lsl #27
 800097c:	d124      	bne.n	80009c8 <HAL_RCC_OscConfig+0x4d4>
 800097e:	f403 01c0 	and.w	r1, r3, #6291456	; 0x600000
 8000982:	6b22      	ldr	r2, [r4, #48]	; 0x30
 8000984:	0852      	lsrs	r2, r2, #1
 8000986:	3a01      	subs	r2, #1
 8000988:	ebb1 5f42 	cmp.w	r1, r2, lsl #21
 800098c:	d11e      	bne.n	80009cc <HAL_RCC_OscConfig+0x4d8>
 800098e:	f003 63c0 	and.w	r3, r3, #100663296	; 0x6000000
 8000992:	6b62      	ldr	r2, [r4, #52]	; 0x34
 8000994:	0852      	lsrs	r2, r2, #1
 8000996:	3a01      	subs	r2, #1
 8000998:	ebb3 6f42 	cmp.w	r3, r2, lsl #25
 800099c:	d118      	bne.n	80009d0 <HAL_RCC_OscConfig+0x4dc>
 800099e:	2000      	movs	r0, #0
 80009a0:	e008      	b.n	80009b4 <HAL_RCC_OscConfig+0x4c0>
 80009a2:	2001      	movs	r0, #1
 80009a4:	4770      	bx	lr
 80009a6:	2001      	movs	r0, #1
 80009a8:	e004      	b.n	80009b4 <HAL_RCC_OscConfig+0x4c0>
 80009aa:	2001      	movs	r0, #1
 80009ac:	e002      	b.n	80009b4 <HAL_RCC_OscConfig+0x4c0>
 80009ae:	2001      	movs	r0, #1
 80009b0:	e000      	b.n	80009b4 <HAL_RCC_OscConfig+0x4c0>
 80009b2:	2000      	movs	r0, #0
 80009b4:	b002      	add	sp, #8
 80009b6:	bd70      	pop	{r4, r5, r6, pc}
 80009b8:	2001      	movs	r0, #1
 80009ba:	e7fb      	b.n	80009b4 <HAL_RCC_OscConfig+0x4c0>
 80009bc:	2001      	movs	r0, #1
 80009be:	e7f9      	b.n	80009b4 <HAL_RCC_OscConfig+0x4c0>
 80009c0:	2001      	movs	r0, #1
 80009c2:	e7f7      	b.n	80009b4 <HAL_RCC_OscConfig+0x4c0>
 80009c4:	2001      	movs	r0, #1
 80009c6:	e7f5      	b.n	80009b4 <HAL_RCC_OscConfig+0x4c0>
 80009c8:	2001      	movs	r0, #1
 80009ca:	e7f3      	b.n	80009b4 <HAL_RCC_OscConfig+0x4c0>
 80009cc:	2001      	movs	r0, #1
 80009ce:	e7f1      	b.n	80009b4 <HAL_RCC_OscConfig+0x4c0>
 80009d0:	2001      	movs	r0, #1
 80009d2:	e7ef      	b.n	80009b4 <HAL_RCC_OscConfig+0x4c0>
 80009d4:	40021000 	andmi	r1, r2, r0
 80009d8:	019f800c 	orrseq	r8, pc, ip

080009dc <HAL_RCC_GetSysClockFreq>:
 80009dc:	4b1e      	ldr	r3, [pc, #120]	; (8000a58 <HAL_RCC_GetSysClockFreq+0x7c>)
 80009de:	689b      	ldr	r3, [r3, #8]
 80009e0:	f003 030c 	and.w	r3, r3, #12
 80009e4:	2b04      	cmp	r3, #4
 80009e6:	d033      	beq.n	8000a50 <HAL_RCC_GetSysClockFreq+0x74>
 80009e8:	4b1b      	ldr	r3, [pc, #108]	; (8000a58 <HAL_RCC_GetSysClockFreq+0x7c>)
 80009ea:	689b      	ldr	r3, [r3, #8]
 80009ec:	f003 030c 	and.w	r3, r3, #12
 80009f0:	2b08      	cmp	r3, #8
 80009f2:	d02f      	beq.n	8000a54 <HAL_RCC_GetSysClockFreq+0x78>
 80009f4:	4b18      	ldr	r3, [pc, #96]	; (8000a58 <HAL_RCC_GetSysClockFreq+0x7c>)
 80009f6:	689b      	ldr	r3, [r3, #8]
 80009f8:	f003 030c 	and.w	r3, r3, #12
 80009fc:	2b0c      	cmp	r3, #12
 80009fe:	d001      	beq.n	8000a04 <HAL_RCC_GetSysClockFreq+0x28>
 8000a00:	2000      	movs	r0, #0
 8000a02:	4770      	bx	lr
 8000a04:	4b14      	ldr	r3, [pc, #80]	; (8000a58 <HAL_RCC_GetSysClockFreq+0x7c>)
 8000a06:	68da      	ldr	r2, [r3, #12]
 8000a08:	f002 0203 	and.w	r2, r2, #3
 8000a0c:	68d8      	ldr	r0, [r3, #12]
 8000a0e:	f3c0 1003 	ubfx	r0, r0, #4, #4
 8000a12:	1c43      	adds	r3, r0, #1
 8000a14:	2a03      	cmp	r2, #3
 8000a16:	d011      	beq.n	8000a3c <HAL_RCC_GetSysClockFreq+0x60>
 8000a18:	4810      	ldr	r0, [pc, #64]	; (8000a5c <HAL_RCC_GetSysClockFreq+0x80>)
 8000a1a:	fbb0 f0f3 	udiv	r0, r0, r3
 8000a1e:	4b0e      	ldr	r3, [pc, #56]	; (8000a58 <HAL_RCC_GetSysClockFreq+0x7c>)
 8000a20:	68db      	ldr	r3, [r3, #12]
 8000a22:	f3c3 2306 	ubfx	r3, r3, #8, #7
 8000a26:	fb03 f000 	mul.w	r0, r3, r0
 8000a2a:	4b0b      	ldr	r3, [pc, #44]	; (8000a58 <HAL_RCC_GetSysClockFreq+0x7c>)
 8000a2c:	68db      	ldr	r3, [r3, #12]
 8000a2e:	f3c3 6341 	ubfx	r3, r3, #25, #2
 8000a32:	3301      	adds	r3, #1
 8000a34:	005b      	lsls	r3, r3, #1
 8000a36:	fbb0 f0f3 	udiv	r0, r0, r3
 8000a3a:	4770      	bx	lr
 8000a3c:	4808      	ldr	r0, [pc, #32]	; (8000a60 <HAL_RCC_GetSysClockFreq+0x84>)
 8000a3e:	fbb0 f0f3 	udiv	r0, r0, r3
 8000a42:	4b05      	ldr	r3, [pc, #20]	; (8000a58 <HAL_RCC_GetSysClockFreq+0x7c>)
 8000a44:	68db      	ldr	r3, [r3, #12]
 8000a46:	f3c3 2306 	ubfx	r3, r3, #8, #7
 8000a4a:	fb03 f000 	mul.w	r0, r3, r0
 8000a4e:	e7ec      	b.n	8000a2a <HAL_RCC_GetSysClockFreq+0x4e>
 8000a50:	4802      	ldr	r0, [pc, #8]	; (8000a5c <HAL_RCC_GetSysClockFreq+0x80>)
 8000a52:	4770      	bx	lr
 8000a54:	4802      	ldr	r0, [pc, #8]	; (8000a60 <HAL_RCC_GetSysClockFreq+0x84>)
 8000a56:	4770      	bx	lr
 8000a58:	40021000 	andmi	r1, r2, r0
 8000a5c:	00f42400 	rscseq	r2, r4, r0, lsl #8
 8000a60:	00b71b00 	adcseq	r1, r7, r0, lsl #22

08000a64 <HAL_RCC_ClockConfig>:
 8000a64:	2800      	cmp	r0, #0
 8000a66:	f000 80e6 	beq.w	8000c36 <HAL_RCC_ClockConfig+0x1d2>
 8000a6a:	b5f8      	push	{r3, r4, r5, r6, r7, lr}
 8000a6c:	460c      	mov	r4, r1
 8000a6e:	4605      	mov	r5, r0
 8000a70:	4b74      	ldr	r3, [pc, #464]	; (8000c44 <HAL_RCC_ClockConfig+0x1e0>)
 8000a72:	681b      	ldr	r3, [r3, #0]
 8000a74:	f003 030f 	and.w	r3, r3, #15
 8000a78:	428b      	cmp	r3, r1
 8000a7a:	d20b      	bcs.n	8000a94 <HAL_RCC_ClockConfig+0x30>
 8000a7c:	4a71      	ldr	r2, [pc, #452]	; (8000c44 <HAL_RCC_ClockConfig+0x1e0>)
 8000a7e:	6813      	ldr	r3, [r2, #0]
 8000a80:	f023 030f 	bic.w	r3, r3, #15
 8000a84:	430b      	orrs	r3, r1
 8000a86:	6013      	str	r3, [r2, #0]
 8000a88:	6813      	ldr	r3, [r2, #0]
 8000a8a:	f003 030f 	and.w	r3, r3, #15
 8000a8e:	428b      	cmp	r3, r1
 8000a90:	f040 80d3 	bne.w	8000c3a <HAL_RCC_ClockConfig+0x1d6>
 8000a94:	682e      	ldr	r6, [r5, #0]
 8000a96:	f016 0601 	ands.w	r6, r6, #1
 8000a9a:	d05f      	beq.n	8000b5c <HAL_RCC_ClockConfig+0xf8>
 8000a9c:	686b      	ldr	r3, [r5, #4]
 8000a9e:	2b03      	cmp	r3, #3
 8000aa0:	d02f      	beq.n	8000b02 <HAL_RCC_ClockConfig+0x9e>
 8000aa2:	2b02      	cmp	r3, #2
 8000aa4:	d04d      	beq.n	8000b42 <HAL_RCC_ClockConfig+0xde>
 8000aa6:	4b68      	ldr	r3, [pc, #416]	; (8000c48 <HAL_RCC_ClockConfig+0x1e4>)
 8000aa8:	681b      	ldr	r3, [r3, #0]
 8000aaa:	f413 6f80 	tst.w	r3, #1024	; 0x400
 8000aae:	f000 80c6 	beq.w	8000c3e <HAL_RCC_ClockConfig+0x1da>
 8000ab2:	f7ff ff93 	bl	80009dc <HAL_RCC_GetSysClockFreq>
 8000ab6:	4b65      	ldr	r3, [pc, #404]	; (8000c4c <HAL_RCC_ClockConfig+0x1e8>)
 8000ab8:	4298      	cmp	r0, r3
 8000aba:	d94d      	bls.n	8000b58 <HAL_RCC_ClockConfig+0xf4>
 8000abc:	4a62      	ldr	r2, [pc, #392]	; (8000c48 <HAL_RCC_ClockConfig+0x1e4>)
 8000abe:	6893      	ldr	r3, [r2, #8]
 8000ac0:	f023 03f0 	bic.w	r3, r3, #240	; 0xf0
 8000ac4:	f043 0380 	orr.w	r3, r3, #128	; 0x80
 8000ac8:	6093      	str	r3, [r2, #8]
 8000aca:	2680      	movs	r6, #128	; 0x80
 8000acc:	4a5e      	ldr	r2, [pc, #376]	; (8000c48 <HAL_RCC_ClockConfig+0x1e4>)
 8000ace:	6893      	ldr	r3, [r2, #8]
 8000ad0:	f023 0303 	bic.w	r3, r3, #3
 8000ad4:	6869      	ldr	r1, [r5, #4]
 8000ad6:	430b      	orrs	r3, r1
 8000ad8:	6093      	str	r3, [r2, #8]
 8000ada:	f7ff fcc5 	bl	8000468 <HAL_GetTick>
 8000ade:	4607      	mov	r7, r0
 8000ae0:	4b59      	ldr	r3, [pc, #356]	; (8000c48 <HAL_RCC_ClockConfig+0x1e4>)
 8000ae2:	689b      	ldr	r3, [r3, #8]
 8000ae4:	f003 030c 	and.w	r3, r3, #12
 8000ae8:	686a      	ldr	r2, [r5, #4]
 8000aea:	ebb3 0f82 	cmp.w	r3, r2, lsl #2
 8000aee:	d035      	beq.n	8000b5c <HAL_RCC_ClockConfig+0xf8>
 8000af0:	f7ff fcba 	bl	8000468 <HAL_GetTick>
 8000af4:	1bc0      	subs	r0, r0, r7
 8000af6:	f241 3388 	movw	r3, #5000	; 0x1388
 8000afa:	4298      	cmp	r0, r3
 8000afc:	d9f0      	bls.n	8000ae0 <HAL_RCC_ClockConfig+0x7c>
 8000afe:	2003      	movs	r0, #3
 8000b00:	e078      	b.n	8000bf4 <HAL_RCC_ClockConfig+0x190>
 8000b02:	4b51      	ldr	r3, [pc, #324]	; (8000c48 <HAL_RCC_ClockConfig+0x1e4>)
 8000b04:	681b      	ldr	r3, [r3, #0]
 8000b06:	f013 7f00 	tst.w	r3, #33554432	; 0x2000000
 8000b0a:	d101      	bne.n	8000b10 <HAL_RCC_ClockConfig+0xac>
 8000b0c:	2001      	movs	r0, #1
 8000b0e:	e071      	b.n	8000bf4 <HAL_RCC_ClockConfig+0x190>
 8000b10:	f7ff fcc4 	bl	800049c <RCC_GetSysClockFreqFromPLLSource>
 8000b14:	4b4d      	ldr	r3, [pc, #308]	; (8000c4c <HAL_RCC_ClockConfig+0x1e8>)
 8000b16:	4298      	cmp	r0, r3
 8000b18:	d91a      	bls.n	8000b50 <HAL_RCC_ClockConfig+0xec>
 8000b1a:	4b4b      	ldr	r3, [pc, #300]	; (8000c48 <HAL_RCC_ClockConfig+0x1e4>)
 8000b1c:	689b      	ldr	r3, [r3, #8]
 8000b1e:	f013 0ff0 	tst.w	r3, #240	; 0xf0
 8000b22:	d005      	beq.n	8000b30 <HAL_RCC_ClockConfig+0xcc>
 8000b24:	682e      	ldr	r6, [r5, #0]
 8000b26:	f016 0602 	ands.w	r6, r6, #2
 8000b2a:	d0cf      	beq.n	8000acc <HAL_RCC_ClockConfig+0x68>
 8000b2c:	68ab      	ldr	r3, [r5, #8]
 8000b2e:	b98b      	cbnz	r3, 8000b54 <HAL_RCC_ClockConfig+0xf0>
 8000b30:	4a45      	ldr	r2, [pc, #276]	; (8000c48 <HAL_RCC_ClockConfig+0x1e4>)
 8000b32:	6893      	ldr	r3, [r2, #8]
 8000b34:	f023 03f0 	bic.w	r3, r3, #240	; 0xf0
 8000b38:	f043 0380 	orr.w	r3, r3, #128	; 0x80
 8000b3c:	6093      	str	r3, [r2, #8]
 8000b3e:	2680      	movs	r6, #128	; 0x80
 8000b40:	e7c4      	b.n	8000acc <HAL_RCC_ClockConfig+0x68>
 8000b42:	4b41      	ldr	r3, [pc, #260]	; (8000c48 <HAL_RCC_ClockConfig+0x1e4>)
 8000b44:	681b      	ldr	r3, [r3, #0]
 8000b46:	f413 3f00 	tst.w	r3, #131072	; 0x20000
 8000b4a:	d1b2      	bne.n	8000ab2 <HAL_RCC_ClockConfig+0x4e>
 8000b4c:	2001      	movs	r0, #1
 8000b4e:	e051      	b.n	8000bf4 <HAL_RCC_ClockConfig+0x190>
 8000b50:	2600      	movs	r6, #0
 8000b52:	e7bb      	b.n	8000acc <HAL_RCC_ClockConfig+0x68>
 8000b54:	2600      	movs	r6, #0
 8000b56:	e7b9      	b.n	8000acc <HAL_RCC_ClockConfig+0x68>
 8000b58:	2600      	movs	r6, #0
 8000b5a:	e7b7      	b.n	8000acc <HAL_RCC_ClockConfig+0x68>
 8000b5c:	682b      	ldr	r3, [r5, #0]
 8000b5e:	f013 0f02 	tst.w	r3, #2
 8000b62:	d048      	beq.n	8000bf6 <HAL_RCC_ClockConfig+0x192>
 8000b64:	f013 0f04 	tst.w	r3, #4
 8000b68:	d004      	beq.n	8000b74 <HAL_RCC_ClockConfig+0x110>
 8000b6a:	4a37      	ldr	r2, [pc, #220]	; (8000c48 <HAL_RCC_ClockConfig+0x1e4>)
 8000b6c:	6893      	ldr	r3, [r2, #8]
 8000b6e:	f443 63e0 	orr.w	r3, r3, #1792	; 0x700
 8000b72:	6093      	str	r3, [r2, #8]
 8000b74:	682b      	ldr	r3, [r5, #0]
 8000b76:	f013 0f08 	tst.w	r3, #8
 8000b7a:	d006      	beq.n	8000b8a <HAL_RCC_ClockConfig+0x126>
 8000b7c:	4a32      	ldr	r2, [pc, #200]	; (8000c48 <HAL_RCC_ClockConfig+0x1e4>)
 8000b7e:	6893      	ldr	r3, [r2, #8]
 8000b80:	f423 537c 	bic.w	r3, r3, #16128	; 0x3f00
 8000b84:	f443 63e0 	orr.w	r3, r3, #1792	; 0x700
 8000b88:	6093      	str	r3, [r2, #8]
 8000b8a:	4a2f      	ldr	r2, [pc, #188]	; (8000c48 <HAL_RCC_ClockConfig+0x1e4>)
 8000b8c:	6893      	ldr	r3, [r2, #8]
 8000b8e:	f023 03f0 	bic.w	r3, r3, #240	; 0xf0
 8000b92:	68a9      	ldr	r1, [r5, #8]
 8000b94:	430b      	orrs	r3, r1
 8000b96:	6093      	str	r3, [r2, #8]
 8000b98:	4b2a      	ldr	r3, [pc, #168]	; (8000c44 <HAL_RCC_ClockConfig+0x1e0>)
 8000b9a:	681b      	ldr	r3, [r3, #0]
 8000b9c:	f003 030f 	and.w	r3, r3, #15
 8000ba0:	42a3      	cmp	r3, r4
 8000ba2:	d830      	bhi.n	8000c06 <HAL_RCC_ClockConfig+0x1a2>
 8000ba4:	682b      	ldr	r3, [r5, #0]
 8000ba6:	f013 0f04 	tst.w	r3, #4
 8000baa:	d006      	beq.n	8000bba <HAL_RCC_ClockConfig+0x156>
 8000bac:	4a26      	ldr	r2, [pc, #152]	; (8000c48 <HAL_RCC_ClockConfig+0x1e4>)
 8000bae:	6893      	ldr	r3, [r2, #8]
 8000bb0:	f423 63e0 	bic.w	r3, r3, #1792	; 0x700
 8000bb4:	68e9      	ldr	r1, [r5, #12]
 8000bb6:	430b      	orrs	r3, r1
 8000bb8:	6093      	str	r3, [r2, #8]
 8000bba:	682b      	ldr	r3, [r5, #0]
 8000bbc:	f013 0f08 	tst.w	r3, #8
 8000bc0:	d007      	beq.n	8000bd2 <HAL_RCC_ClockConfig+0x16e>
 8000bc2:	4a21      	ldr	r2, [pc, #132]	; (8000c48 <HAL_RCC_ClockConfig+0x1e4>)
 8000bc4:	6893      	ldr	r3, [r2, #8]
 8000bc6:	f423 5360 	bic.w	r3, r3, #14336	; 0x3800
 8000bca:	6929      	ldr	r1, [r5, #16]
 8000bcc:	ea43 03c1 	orr.w	r3, r3, r1, lsl #3
 8000bd0:	6093      	str	r3, [r2, #8]
 8000bd2:	f7ff ff03 	bl	80009dc <HAL_RCC_GetSysClockFreq>
 8000bd6:	4b1c      	ldr	r3, [pc, #112]	; (8000c48 <HAL_RCC_ClockConfig+0x1e4>)
 8000bd8:	689b      	ldr	r3, [r3, #8]
 8000bda:	f3c3 1303 	ubfx	r3, r3, #4, #4
 8000bde:	4a1c      	ldr	r2, [pc, #112]	; (8000c50 <HAL_RCC_ClockConfig+0x1ec>)
 8000be0:	5cd3      	ldrb	r3, [r2, r3]
 8000be2:	f003 031f 	and.w	r3, r3, #31
 8000be6:	40d8      	lsrs	r0, r3
 8000be8:	4b1a      	ldr	r3, [pc, #104]	; (8000c54 <HAL_RCC_ClockConfig+0x1f0>)
 8000bea:	6018      	str	r0, [r3, #0]
 8000bec:	4b1a      	ldr	r3, [pc, #104]	; (8000c58 <HAL_RCC_ClockConfig+0x1f4>)
 8000bee:	6818      	ldr	r0, [r3, #0]
 8000bf0:	f7ff fbf6 	bl	80003e0 <HAL_InitTick>
 8000bf4:	bdf8      	pop	{r3, r4, r5, r6, r7, pc}
 8000bf6:	2e80      	cmp	r6, #128	; 0x80
 8000bf8:	d1ce      	bne.n	8000b98 <HAL_RCC_ClockConfig+0x134>
 8000bfa:	4a13      	ldr	r2, [pc, #76]	; (8000c48 <HAL_RCC_ClockConfig+0x1e4>)
 8000bfc:	6893      	ldr	r3, [r2, #8]
 8000bfe:	f023 03f0 	bic.w	r3, r3, #240	; 0xf0
 8000c02:	6093      	str	r3, [r2, #8]
 8000c04:	e7c8      	b.n	8000b98 <HAL_RCC_ClockConfig+0x134>
 8000c06:	4a0f      	ldr	r2, [pc, #60]	; (8000c44 <HAL_RCC_ClockConfig+0x1e0>)
 8000c08:	6813      	ldr	r3, [r2, #0]
 8000c0a:	f023 030f 	bic.w	r3, r3, #15
 8000c0e:	4323      	orrs	r3, r4
 8000c10:	6013      	str	r3, [r2, #0]
 8000c12:	f7ff fc29 	bl	8000468 <HAL_GetTick>
 8000c16:	4606      	mov	r6, r0
 8000c18:	4b0a      	ldr	r3, [pc, #40]	; (8000c44 <HAL_RCC_ClockConfig+0x1e0>)
 8000c1a:	681b      	ldr	r3, [r3, #0]
 8000c1c:	f003 030f 	and.w	r3, r3, #15
 8000c20:	42a3      	cmp	r3, r4
 8000c22:	d0bf      	beq.n	8000ba4 <HAL_RCC_ClockConfig+0x140>
 8000c24:	f7ff fc20 	bl	8000468 <HAL_GetTick>
 8000c28:	1b80      	subs	r0, r0, r6
 8000c2a:	f241 3388 	movw	r3, #5000	; 0x1388
 8000c2e:	4298      	cmp	r0, r3
 8000c30:	d9f2      	bls.n	8000c18 <HAL_RCC_ClockConfig+0x1b4>
 8000c32:	2003      	movs	r0, #3
 8000c34:	e7de      	b.n	8000bf4 <HAL_RCC_ClockConfig+0x190>
 8000c36:	2001      	movs	r0, #1
 8000c38:	4770      	bx	lr
 8000c3a:	2001      	movs	r0, #1
 8000c3c:	e7da      	b.n	8000bf4 <HAL_RCC_ClockConfig+0x190>
 8000c3e:	2001      	movs	r0, #1
 8000c40:	e7d8      	b.n	8000bf4 <HAL_RCC_ClockConfig+0x190>
 8000c42:	bf00      	nop
 8000c44:	40022000 	andmi	r2, r2, r0
 8000c48:	40021000 	andmi	r1, r2, r0
 8000c4c:	04c4b400 	strbeq	fp, [r4], #1024	; 0x400
 8000c50:	080010e8 	stmdaeq	r0, {r3, r5, r6, r7, ip}
 8000c54:	20000000 	andcs	r0, r0, r0
 8000c58:	20000008 	andcs	r0, r0, r8

08000c5c <HAL_GPIO_Init>:
 8000c5c:	b5f0      	push	{r4, r5, r6, r7, lr}
 8000c5e:	b083      	sub	sp, #12
 8000c60:	2300      	movs	r3, #0
 8000c62:	e062      	b.n	8000d2a <HAL_GPIO_Init+0xce>
 8000c64:	6885      	ldr	r5, [r0, #8]
 8000c66:	005e      	lsls	r6, r3, #1
 8000c68:	2403      	movs	r4, #3
 8000c6a:	40b4      	lsls	r4, r6
 8000c6c:	ea25 0504 	bic.w	r5, r5, r4
 8000c70:	68cc      	ldr	r4, [r1, #12]
 8000c72:	40b4      	lsls	r4, r6
 8000c74:	432c      	orrs	r4, r5
 8000c76:	6084      	str	r4, [r0, #8]
 8000c78:	6844      	ldr	r4, [r0, #4]
 8000c7a:	ea24 0c0c 	bic.w	ip, r4, ip
 8000c7e:	684c      	ldr	r4, [r1, #4]
 8000c80:	f3c4 1400 	ubfx	r4, r4, #4, #1
 8000c84:	409c      	lsls	r4, r3
 8000c86:	ea44 040c 	orr.w	r4, r4, ip
 8000c8a:	6044      	str	r4, [r0, #4]
 8000c8c:	e05e      	b.n	8000d4c <HAL_GPIO_Init+0xf0>
 8000c8e:	08dd      	lsrs	r5, r3, #3
 8000c90:	3508      	adds	r5, #8
 8000c92:	f850 6025 	ldr.w	r6, [r0, r5, lsl #2]
 8000c96:	f003 0407 	and.w	r4, r3, #7
 8000c9a:	ea4f 0c84 	mov.w	ip, r4, lsl #2
 8000c9e:	240f      	movs	r4, #15
 8000ca0:	fa04 f40c 	lsl.w	r4, r4, ip
 8000ca4:	ea26 0e04 	bic.w	lr, r6, r4
 8000ca8:	690c      	ldr	r4, [r1, #16]
 8000caa:	fa04 f40c 	lsl.w	r4, r4, ip
 8000cae:	ea44 040e 	orr.w	r4, r4, lr
 8000cb2:	f840 4025 	str.w	r4, [r0, r5, lsl #2]
 8000cb6:	e060      	b.n	8000d7a <HAL_GPIO_Init+0x11e>
 8000cb8:	2405      	movs	r4, #5
 8000cba:	e000      	b.n	8000cbe <HAL_GPIO_Init+0x62>
 8000cbc:	2400      	movs	r4, #0
 8000cbe:	fa04 f40e 	lsl.w	r4, r4, lr
 8000cc2:	432c      	orrs	r4, r5
 8000cc4:	f10c 0c02 	add.w	ip, ip, #2
 8000cc8:	4d55      	ldr	r5, [pc, #340]	; (8000e20 <HAL_GPIO_Init+0x1c4>)
 8000cca:	f845 402c 	str.w	r4, [r5, ip, lsl #2]
 8000cce:	4c55      	ldr	r4, [pc, #340]	; (8000e24 <HAL_GPIO_Init+0x1c8>)
 8000cd0:	68a5      	ldr	r5, [r4, #8]
 8000cd2:	43d4      	mvns	r4, r2
 8000cd4:	ea25 0602 	bic.w	r6, r5, r2
 8000cd8:	684f      	ldr	r7, [r1, #4]
 8000cda:	f417 1f80 	tst.w	r7, #1048576	; 0x100000
 8000cde:	d001      	beq.n	8000ce4 <HAL_GPIO_Init+0x88>
 8000ce0:	ea42 0605 	orr.w	r6, r2, r5
 8000ce4:	4d4f      	ldr	r5, [pc, #316]	; (8000e24 <HAL_GPIO_Init+0x1c8>)
 8000ce6:	60ae      	str	r6, [r5, #8]
 8000ce8:	68ed      	ldr	r5, [r5, #12]
 8000cea:	ea04 0605 	and.w	r6, r4, r5
 8000cee:	684f      	ldr	r7, [r1, #4]
 8000cf0:	f417 1f00 	tst.w	r7, #2097152	; 0x200000
 8000cf4:	d001      	beq.n	8000cfa <HAL_GPIO_Init+0x9e>
 8000cf6:	ea42 0605 	orr.w	r6, r2, r5
 8000cfa:	4d4a      	ldr	r5, [pc, #296]	; (8000e24 <HAL_GPIO_Init+0x1c8>)
 8000cfc:	60ee      	str	r6, [r5, #12]
 8000cfe:	686d      	ldr	r5, [r5, #4]
 8000d00:	ea04 0605 	and.w	r6, r4, r5
 8000d04:	684f      	ldr	r7, [r1, #4]
 8000d06:	f417 3f00 	tst.w	r7, #131072	; 0x20000
 8000d0a:	d001      	beq.n	8000d10 <HAL_GPIO_Init+0xb4>
 8000d0c:	ea42 0605 	orr.w	r6, r2, r5
 8000d10:	4d44      	ldr	r5, [pc, #272]	; (8000e24 <HAL_GPIO_Init+0x1c8>)
 8000d12:	606e      	str	r6, [r5, #4]
 8000d14:	682d      	ldr	r5, [r5, #0]
 8000d16:	402c      	ands	r4, r5
 8000d18:	684e      	ldr	r6, [r1, #4]
 8000d1a:	f416 3f80 	tst.w	r6, #65536	; 0x10000
 8000d1e:	d001      	beq.n	8000d24 <HAL_GPIO_Init+0xc8>
 8000d20:	ea42 0405 	orr.w	r4, r2, r5
 8000d24:	4a3f      	ldr	r2, [pc, #252]	; (8000e24 <HAL_GPIO_Init+0x1c8>)
 8000d26:	6014      	str	r4, [r2, #0]
 8000d28:	3301      	adds	r3, #1
 8000d2a:	680a      	ldr	r2, [r1, #0]
 8000d2c:	fa32 f403 	lsrs.w	r4, r2, r3
 8000d30:	d074      	beq.n	8000e1c <HAL_GPIO_Init+0x1c0>
 8000d32:	f04f 0c01 	mov.w	ip, #1
 8000d36:	fa0c fc03 	lsl.w	ip, ip, r3
 8000d3a:	ea1c 0202 	ands.w	r2, ip, r2
 8000d3e:	d0f3      	beq.n	8000d28 <HAL_GPIO_Init+0xcc>
 8000d40:	684c      	ldr	r4, [r1, #4]
 8000d42:	f004 0403 	and.w	r4, r4, #3
 8000d46:	3c01      	subs	r4, #1
 8000d48:	2c01      	cmp	r4, #1
 8000d4a:	d98b      	bls.n	8000c64 <HAL_GPIO_Init+0x8>
 8000d4c:	684c      	ldr	r4, [r1, #4]
 8000d4e:	f004 0403 	and.w	r4, r4, #3
 8000d52:	2c03      	cmp	r4, #3
 8000d54:	d00c      	beq.n	8000d70 <HAL_GPIO_Init+0x114>
 8000d56:	68c4      	ldr	r4, [r0, #12]
 8000d58:	005d      	lsls	r5, r3, #1
 8000d5a:	f04f 0c03 	mov.w	ip, #3
 8000d5e:	fa0c fc05 	lsl.w	ip, ip, r5
 8000d62:	ea24 0c0c 	bic.w	ip, r4, ip
 8000d66:	688c      	ldr	r4, [r1, #8]
 8000d68:	40ac      	lsls	r4, r5
 8000d6a:	ea44 040c 	orr.w	r4, r4, ip
 8000d6e:	60c4      	str	r4, [r0, #12]
 8000d70:	684c      	ldr	r4, [r1, #4]
 8000d72:	f004 0403 	and.w	r4, r4, #3
 8000d76:	2c02      	cmp	r4, #2
 8000d78:	d089      	beq.n	8000c8e <HAL_GPIO_Init+0x32>
 8000d7a:	6804      	ldr	r4, [r0, #0]
 8000d7c:	ea4f 0e43 	mov.w	lr, r3, lsl #1
 8000d80:	f04f 0c03 	mov.w	ip, #3
 8000d84:	fa0c fc0e 	lsl.w	ip, ip, lr
 8000d88:	ea24 0c0c 	bic.w	ip, r4, ip
 8000d8c:	684c      	ldr	r4, [r1, #4]
 8000d8e:	f004 0403 	and.w	r4, r4, #3
 8000d92:	fa04 f40e 	lsl.w	r4, r4, lr
 8000d96:	ea44 040c 	orr.w	r4, r4, ip
 8000d9a:	6004      	str	r4, [r0, #0]
 8000d9c:	684c      	ldr	r4, [r1, #4]
 8000d9e:	f414 3f40 	tst.w	r4, #196608	; 0x30000
 8000da2:	d0c1      	beq.n	8000d28 <HAL_GPIO_Init+0xcc>
 8000da4:	4c20      	ldr	r4, [pc, #128]	; (8000e28 <HAL_GPIO_Init+0x1cc>)
 8000da6:	6e25      	ldr	r5, [r4, #96]	; 0x60
 8000da8:	f045 0501 	orr.w	r5, r5, #1
 8000dac:	6625      	str	r5, [r4, #96]	; 0x60
 8000dae:	6e24      	ldr	r4, [r4, #96]	; 0x60
 8000db0:	f004 0401 	and.w	r4, r4, #1
 8000db4:	9401      	str	r4, [sp, #4]
 8000db6:	9c01      	ldr	r4, [sp, #4]
 8000db8:	ea4f 0c93 	mov.w	ip, r3, lsr #2
 8000dbc:	f10c 0502 	add.w	r5, ip, #2
 8000dc0:	4c17      	ldr	r4, [pc, #92]	; (8000e20 <HAL_GPIO_Init+0x1c4>)
 8000dc2:	f854 5025 	ldr.w	r5, [r4, r5, lsl #2]
 8000dc6:	f003 0403 	and.w	r4, r3, #3
 8000dca:	ea4f 0e84 	mov.w	lr, r4, lsl #2
 8000dce:	240f      	movs	r4, #15
 8000dd0:	fa04 f40e 	lsl.w	r4, r4, lr
 8000dd4:	ea25 0504 	bic.w	r5, r5, r4
 8000dd8:	f1b0 4f90 	cmp.w	r0, #1207959552	; 0x48000000
 8000ddc:	f43f af6e 	beq.w	8000cbc <HAL_GPIO_Init+0x60>
 8000de0:	4c12      	ldr	r4, [pc, #72]	; (8000e2c <HAL_GPIO_Init+0x1d0>)
 8000de2:	42a0      	cmp	r0, r4
 8000de4:	d012      	beq.n	8000e0c <HAL_GPIO_Init+0x1b0>
 8000de6:	f504 6480 	add.w	r4, r4, #1024	; 0x400
 8000dea:	42a0      	cmp	r0, r4
 8000dec:	d010      	beq.n	8000e10 <HAL_GPIO_Init+0x1b4>
 8000dee:	f504 6480 	add.w	r4, r4, #1024	; 0x400
 8000df2:	42a0      	cmp	r0, r4
 8000df4:	d00e      	beq.n	8000e14 <HAL_GPIO_Init+0x1b8>
 8000df6:	f504 6480 	add.w	r4, r4, #1024	; 0x400
 8000dfa:	42a0      	cmp	r0, r4
 8000dfc:	d00c      	beq.n	8000e18 <HAL_GPIO_Init+0x1bc>
 8000dfe:	f504 6480 	add.w	r4, r4, #1024	; 0x400
 8000e02:	42a0      	cmp	r0, r4
 8000e04:	f43f af58 	beq.w	8000cb8 <HAL_GPIO_Init+0x5c>
 8000e08:	2406      	movs	r4, #6
 8000e0a:	e758      	b.n	8000cbe <HAL_GPIO_Init+0x62>
 8000e0c:	2401      	movs	r4, #1
 8000e0e:	e756      	b.n	8000cbe <HAL_GPIO_Init+0x62>
 8000e10:	2402      	movs	r4, #2
 8000e12:	e754      	b.n	8000cbe <HAL_GPIO_Init+0x62>
 8000e14:	2403      	movs	r4, #3
 8000e16:	e752      	b.n	8000cbe <HAL_GPIO_Init+0x62>
 8000e18:	2404      	movs	r4, #4
 8000e1a:	e750      	b.n	8000cbe <HAL_GPIO_Init+0x62>
 8000e1c:	b003      	add	sp, #12
 8000e1e:	bdf0      	pop	{r4, r5, r6, r7, pc}
 8000e20:	40010000 	andmi	r0, r1, r0
 8000e24:	40010400 	andmi	r0, r1, r0, lsl #8
 8000e28:	40021000 	andmi	r1, r2, r0
 8000e2c:	48000400 	stmdami	r0, {sl}

08000e30 <HAL_GPIO_WritePin>:
 8000e30:	b10a      	cbz	r2, 8000e36 <HAL_GPIO_WritePin+0x6>
 8000e32:	6181      	str	r1, [r0, #24]
 8000e34:	4770      	bx	lr
 8000e36:	6281      	str	r1, [r0, #40]	; 0x28
 8000e38:	4770      	bx	lr

08000e3a <HAL_GPIO_TogglePin>:
 8000e3a:	6943      	ldr	r3, [r0, #20]
 8000e3c:	ea01 0203 	and.w	r2, r1, r3
 8000e40:	ea21 0103 	bic.w	r1, r1, r3
 8000e44:	ea41 4102 	orr.w	r1, r1, r2, lsl #16
 8000e48:	6181      	str	r1, [r0, #24]
 8000e4a:	4770      	bx	lr

08000e4c <HAL_PWREx_ControlVoltageScaling>:
 8000e4c:	2800      	cmp	r0, #0
 8000e4e:	d136      	bne.n	8000ebe <HAL_PWREx_ControlVoltageScaling+0x72>
 8000e50:	4b3e      	ldr	r3, [pc, #248]	; (8000f4c <HAL_PWREx_ControlVoltageScaling+0x100>)
 8000e52:	681b      	ldr	r3, [r3, #0]
 8000e54:	f403 63c0 	and.w	r3, r3, #1536	; 0x600
 8000e58:	f5b3 6f80 	cmp.w	r3, #1024	; 0x400
 8000e5c:	d008      	beq.n	8000e70 <HAL_PWREx_ControlVoltageScaling+0x24>
 8000e5e:	4a3b      	ldr	r2, [pc, #236]	; (8000f4c <HAL_PWREx_ControlVoltageScaling+0x100>)
 8000e60:	f8d2 3080 	ldr.w	r3, [r2, #128]	; 0x80
 8000e64:	f423 7380 	bic.w	r3, r3, #256	; 0x100
 8000e68:	f8c2 3080 	str.w	r3, [r2, #128]	; 0x80
 8000e6c:	2000      	movs	r0, #0
 8000e6e:	4770      	bx	lr
 8000e70:	4a36      	ldr	r2, [pc, #216]	; (8000f4c <HAL_PWREx_ControlVoltageScaling+0x100>)
 8000e72:	f8d2 3080 	ldr.w	r3, [r2, #128]	; 0x80
 8000e76:	f423 7380 	bic.w	r3, r3, #256	; 0x100
 8000e7a:	f8c2 3080 	str.w	r3, [r2, #128]	; 0x80
 8000e7e:	6813      	ldr	r3, [r2, #0]
 8000e80:	f423 63c0 	bic.w	r3, r3, #1536	; 0x600
 8000e84:	f443 7300 	orr.w	r3, r3, #512	; 0x200
 8000e88:	6013      	str	r3, [r2, #0]
 8000e8a:	4b31      	ldr	r3, [pc, #196]	; (8000f50 <HAL_PWREx_ControlVoltageScaling+0x104>)
 8000e8c:	681b      	ldr	r3, [r3, #0]
 8000e8e:	2232      	movs	r2, #50	; 0x32
 8000e90:	fb02 f303 	mul.w	r3, r2, r3
 8000e94:	4a2f      	ldr	r2, [pc, #188]	; (8000f54 <HAL_PWREx_ControlVoltageScaling+0x108>)
 8000e96:	fba2 2303 	umull	r2, r3, r2, r3
 8000e9a:	0c9b      	lsrs	r3, r3, #18
 8000e9c:	3301      	adds	r3, #1
 8000e9e:	e000      	b.n	8000ea2 <HAL_PWREx_ControlVoltageScaling+0x56>
 8000ea0:	3b01      	subs	r3, #1
 8000ea2:	4a2a      	ldr	r2, [pc, #168]	; (8000f4c <HAL_PWREx_ControlVoltageScaling+0x100>)
 8000ea4:	6952      	ldr	r2, [r2, #20]
 8000ea6:	f412 6f80 	tst.w	r2, #1024	; 0x400
 8000eaa:	d001      	beq.n	8000eb0 <HAL_PWREx_ControlVoltageScaling+0x64>
 8000eac:	2b00      	cmp	r3, #0
 8000eae:	d1f7      	bne.n	8000ea0 <HAL_PWREx_ControlVoltageScaling+0x54>
 8000eb0:	4b26      	ldr	r3, [pc, #152]	; (8000f4c <HAL_PWREx_ControlVoltageScaling+0x100>)
 8000eb2:	695b      	ldr	r3, [r3, #20]
 8000eb4:	f413 6f80 	tst.w	r3, #1024	; 0x400
 8000eb8:	d144      	bne.n	8000f44 <HAL_PWREx_ControlVoltageScaling+0xf8>
 8000eba:	2000      	movs	r0, #0
 8000ebc:	4770      	bx	lr
 8000ebe:	f5b0 7f00 	cmp.w	r0, #512	; 0x200
 8000ec2:	d008      	beq.n	8000ed6 <HAL_PWREx_ControlVoltageScaling+0x8a>
 8000ec4:	4a21      	ldr	r2, [pc, #132]	; (8000f4c <HAL_PWREx_ControlVoltageScaling+0x100>)
 8000ec6:	6813      	ldr	r3, [r2, #0]
 8000ec8:	f423 63c0 	bic.w	r3, r3, #1536	; 0x600
 8000ecc:	f443 6380 	orr.w	r3, r3, #1024	; 0x400
 8000ed0:	6013      	str	r3, [r2, #0]
 8000ed2:	2000      	movs	r0, #0
 8000ed4:	4770      	bx	lr
 8000ed6:	4b1d      	ldr	r3, [pc, #116]	; (8000f4c <HAL_PWREx_ControlVoltageScaling+0x100>)
 8000ed8:	681b      	ldr	r3, [r3, #0]
 8000eda:	f403 63c0 	and.w	r3, r3, #1536	; 0x600
 8000ede:	f5b3 6f80 	cmp.w	r3, #1024	; 0x400
 8000ee2:	d008      	beq.n	8000ef6 <HAL_PWREx_ControlVoltageScaling+0xaa>
 8000ee4:	4a19      	ldr	r2, [pc, #100]	; (8000f4c <HAL_PWREx_ControlVoltageScaling+0x100>)
 8000ee6:	f8d2 3080 	ldr.w	r3, [r2, #128]	; 0x80
 8000eea:	f443 7380 	orr.w	r3, r3, #256	; 0x100
 8000eee:	f8c2 3080 	str.w	r3, [r2, #128]	; 0x80
 8000ef2:	2000      	movs	r0, #0
 8000ef4:	4770      	bx	lr
 8000ef6:	4a15      	ldr	r2, [pc, #84]	; (8000f4c <HAL_PWREx_ControlVoltageScaling+0x100>)
 8000ef8:	f8d2 3080 	ldr.w	r3, [r2, #128]	; 0x80
 8000efc:	f443 7380 	orr.w	r3, r3, #256	; 0x100
 8000f00:	f8c2 3080 	str.w	r3, [r2, #128]	; 0x80
 8000f04:	6813      	ldr	r3, [r2, #0]
 8000f06:	f423 63c0 	bic.w	r3, r3, #1536	; 0x600
 8000f0a:	f443 7300 	orr.w	r3, r3, #512	; 0x200
 8000f0e:	6013      	str	r3, [r2, #0]
 8000f10:	4b0f      	ldr	r3, [pc, #60]	; (8000f50 <HAL_PWREx_ControlVoltageScaling+0x104>)
 8000f12:	681b      	ldr	r3, [r3, #0]
 8000f14:	2232      	movs	r2, #50	; 0x32
 8000f16:	fb02 f303 	mul.w	r3, r2, r3
 8000f1a:	4a0e      	ldr	r2, [pc, #56]	; (8000f54 <HAL_PWREx_ControlVoltageScaling+0x108>)
 8000f1c:	fba2 2303 	umull	r2, r3, r2, r3
 8000f20:	0c9b      	lsrs	r3, r3, #18
 8000f22:	3301      	adds	r3, #1
 8000f24:	e000      	b.n	8000f28 <HAL_PWREx_ControlVoltageScaling+0xdc>
 8000f26:	3b01      	subs	r3, #1
 8000f28:	4a08      	ldr	r2, [pc, #32]	; (8000f4c <HAL_PWREx_ControlVoltageScaling+0x100>)
 8000f2a:	6952      	ldr	r2, [r2, #20]
 8000f2c:	f412 6f80 	tst.w	r2, #1024	; 0x400
 8000f30:	d001      	beq.n	8000f36 <HAL_PWREx_ControlVoltageScaling+0xea>
 8000f32:	2b00      	cmp	r3, #0
 8000f34:	d1f7      	bne.n	8000f26 <HAL_PWREx_ControlVoltageScaling+0xda>
 8000f36:	4b05      	ldr	r3, [pc, #20]	; (8000f4c <HAL_PWREx_ControlVoltageScaling+0x100>)
 8000f38:	695b      	ldr	r3, [r3, #20]
 8000f3a:	f413 6f80 	tst.w	r3, #1024	; 0x400
 8000f3e:	d103      	bne.n	8000f48 <HAL_PWREx_ControlVoltageScaling+0xfc>
 8000f40:	2000      	movs	r0, #0
 8000f42:	4770      	bx	lr
 8000f44:	2003      	movs	r0, #3
 8000f46:	4770      	bx	lr
 8000f48:	2003      	movs	r0, #3
 8000f4a:	4770      	bx	lr
 8000f4c:	40007000 	andmi	r7, r0, r0
 8000f50:	20000000 	andcs	r0, r0, r0
 8000f54:	431bde83 	tstmi	fp, #2096	; 0x830

08000f58 <HAL_PWREx_DisableUCPDDeadBattery>:
 8000f58:	4a02      	ldr	r2, [pc, #8]	; (8000f64 <HAL_PWREx_DisableUCPDDeadBattery+0xc>)
 8000f5a:	6893      	ldr	r3, [r2, #8]
 8000f5c:	f443 4380 	orr.w	r3, r3, #16384	; 0x4000
 8000f60:	6093      	str	r3, [r2, #8]
 8000f62:	4770      	bx	lr
 8000f64:	40007000 	andmi	r7, r0, r0

08000f68 <HAL_NVIC_SetPriorityGrouping>:
 8000f68:	4a07      	ldr	r2, [pc, #28]	; (8000f88 <HAL_NVIC_SetPriorityGrouping+0x20>)
 8000f6a:	68d3      	ldr	r3, [r2, #12]
 8000f6c:	f423 63e0 	bic.w	r3, r3, #1792	; 0x700
 8000f70:	041b      	lsls	r3, r3, #16
 8000f72:	0c1b      	lsrs	r3, r3, #16
 8000f74:	0200      	lsls	r0, r0, #8
 8000f76:	f400 60e0 	and.w	r0, r0, #1792	; 0x700
 8000f7a:	4303      	orrs	r3, r0
 8000f7c:	f043 63bf 	orr.w	r3, r3, #100139008	; 0x5f80000
 8000f80:	f443 3300 	orr.w	r3, r3, #131072	; 0x20000
 8000f84:	60d3      	str	r3, [r2, #12]
 8000f86:	4770      	bx	lr
 8000f88:	e000ed00 	and	lr, r0, r0, lsl #26

08000f8c <HAL_NVIC_SetPriority>:
 8000f8c:	b500      	push	{lr}
 8000f8e:	4b19      	ldr	r3, [pc, #100]	; (8000ff4 <HAL_NVIC_SetPriority+0x68>)
 8000f90:	68db      	ldr	r3, [r3, #12]
 8000f92:	f3c3 2302 	ubfx	r3, r3, #8, #3
 8000f96:	f1c3 0c07 	rsb	ip, r3, #7
 8000f9a:	f1bc 0f04 	cmp.w	ip, #4
 8000f9e:	bf28      	it	cs
 8000fa0:	f04f 0c04 	movcs.w	ip, #4
 8000fa4:	f103 0e04 	add.w	lr, r3, #4
 8000fa8:	f1be 0f06 	cmp.w	lr, #6
 8000fac:	d918      	bls.n	8000fe0 <HAL_NVIC_SetPriority+0x54>
 8000fae:	3b03      	subs	r3, #3
 8000fb0:	f04f 3eff 	mov.w	lr, #4294967295
 8000fb4:	fa0e fc0c 	lsl.w	ip, lr, ip
 8000fb8:	ea21 010c 	bic.w	r1, r1, ip
 8000fbc:	4099      	lsls	r1, r3
 8000fbe:	fa0e f303 	lsl.w	r3, lr, r3
 8000fc2:	ea22 0303 	bic.w	r3, r2, r3
 8000fc6:	4319      	orrs	r1, r3
 8000fc8:	2800      	cmp	r0, #0
 8000fca:	db0b      	blt.n	8000fe4 <HAL_NVIC_SetPriority+0x58>
 8000fcc:	0109      	lsls	r1, r1, #4
 8000fce:	b2c9      	uxtb	r1, r1
 8000fd0:	f100 4060 	add.w	r0, r0, #3758096384	; 0xe0000000
 8000fd4:	f500 4061 	add.w	r0, r0, #57600	; 0xe100
 8000fd8:	f880 1300 	strb.w	r1, [r0, #768]	; 0x300
 8000fdc:	f85d fb04 	ldr.w	pc, [sp], #4
 8000fe0:	2300      	movs	r3, #0
 8000fe2:	e7e5      	b.n	8000fb0 <HAL_NVIC_SetPriority+0x24>
 8000fe4:	f000 000f 	and.w	r0, r0, #15
 8000fe8:	0109      	lsls	r1, r1, #4
 8000fea:	b2c9      	uxtb	r1, r1
 8000fec:	4b02      	ldr	r3, [pc, #8]	; (8000ff8 <HAL_NVIC_SetPriority+0x6c>)
 8000fee:	5419      	strb	r1, [r3, r0]
 8000ff0:	e7f4      	b.n	8000fdc <HAL_NVIC_SetPriority+0x50>
 8000ff2:	bf00      	nop
 8000ff4:	e000ed00 	and	lr, r0, r0, lsl #26
 8000ff8:	e000ed14 	and	lr, r0, r4, lsl sp

08000ffc <HAL_SYSTICK_Config>:
 8000ffc:	3801      	subs	r0, #1
 8000ffe:	f1b0 7f80 	cmp.w	r0, #16777216	; 0x1000000
 8001002:	d20b      	bcs.n	800101c <HAL_SYSTICK_Config+0x20>
 8001004:	f04f 23e0 	mov.w	r3, #3758153728	; 0xe000e000
 8001008:	6158      	str	r0, [r3, #20]
 800100a:	4a05      	ldr	r2, [pc, #20]	; (8001020 <HAL_SYSTICK_Config+0x24>)
 800100c:	21f0      	movs	r1, #240	; 0xf0
 800100e:	f882 1023 	strb.w	r1, [r2, #35]	; 0x23
 8001012:	2000      	movs	r0, #0
 8001014:	6198      	str	r0, [r3, #24]
 8001016:	2207      	movs	r2, #7
 8001018:	611a      	str	r2, [r3, #16]
 800101a:	4770      	bx	lr
 800101c:	2001      	movs	r0, #1
 800101e:	4770      	bx	lr
 8001020:	e000ed00 	and	lr, r0, r0, lsl #26

08001024 <Reset_Handler>:
 8001024:	480d      	ldr	r0, [pc, #52]	; (800105c <LoopForever+0x2>)
 8001026:	4685      	mov	sp, r0
 8001028:	480d      	ldr	r0, [pc, #52]	; (8001060 <LoopForever+0x6>)
 800102a:	490e      	ldr	r1, [pc, #56]	; (8001064 <LoopForever+0xa>)
 800102c:	4a0e      	ldr	r2, [pc, #56]	; (8001068 <LoopForever+0xe>)
 800102e:	2300      	movs	r3, #0
 8001030:	e002      	b.n	8001038 <LoopCopyDataInit>

08001032 <CopyDataInit>:
 8001032:	58d4      	ldr	r4, [r2, r3]
 8001034:	50c4      	str	r4, [r0, r3]
 8001036:	3304      	adds	r3, #4

08001038 <LoopCopyDataInit>:
 8001038:	18c4      	adds	r4, r0, r3
 800103a:	428c      	cmp	r4, r1
 800103c:	d3f9      	bcc.n	8001032 <CopyDataInit>
 800103e:	4a0b      	ldr	r2, [pc, #44]	; (800106c <LoopForever+0x12>)
 8001040:	4c0b      	ldr	r4, [pc, #44]	; (8001070 <LoopForever+0x16>)
 8001042:	2300      	movs	r3, #0
 8001044:	e001      	b.n	800104a <LoopFillZerobss>

08001046 <FillZerobss>:
 8001046:	6013      	str	r3, [r2, #0]
 8001048:	3204      	adds	r2, #4

0800104a <LoopFillZerobss>:
 800104a:	42a2      	cmp	r2, r4
 800104c:	d3fb      	bcc.n	8001046 <FillZerobss>
 800104e:	f7ff f9bd 	bl	80003cc <SystemInit>
 8001052:	f000 f811 	bl	8001078 <__libc_init_array>
 8001056:	f7ff f94c 	bl	80002f2 <main>

0800105a <LoopForever>:
 800105a:	e7fe      	b.n	800105a <LoopForever>
 800105c:	20020000 	andcs	r0, r2, r0
 8001060:	20000000 	andcs	r0, r0, r0
 8001064:	2000000c 	andcs	r0, r0, ip
 8001068:	08001100 	stmdaeq	r0, {r8, ip}
 800106c:	2000000c 	andcs	r0, r0, ip
 8001070:	2000002c 	andcs	r0, r0, ip, lsr #32

08001074 <ADC1_2_IRQHandler>:
 8001074:	e7fe      	b.n	8001074 <ADC1_2_IRQHandler>
	...

08001078 <__libc_init_array>:
 8001078:	b570      	push	{r4, r5, r6, lr}
 800107a:	4d0d      	ldr	r5, [pc, #52]	; (80010b0 <__libc_init_array+0x38>)
 800107c:	4c0d      	ldr	r4, [pc, #52]	; (80010b4 <__libc_init_array+0x3c>)
 800107e:	1b64      	subs	r4, r4, r5
 8001080:	10a4      	asrs	r4, r4, #2
 8001082:	2600      	movs	r6, #0
 8001084:	42a6      	cmp	r6, r4
 8001086:	d109      	bne.n	800109c <__libc_init_array+0x24>
 8001088:	4d0b      	ldr	r5, [pc, #44]	; (80010b8 <__libc_init_array+0x40>)
 800108a:	4c0c      	ldr	r4, [pc, #48]	; (80010bc <__libc_init_array+0x44>)
 800108c:	f000 f820 	bl	80010d0 <_init>
 8001090:	1b64      	subs	r4, r4, r5
 8001092:	10a4      	asrs	r4, r4, #2
 8001094:	2600      	movs	r6, #0
 8001096:	42a6      	cmp	r6, r4
 8001098:	d105      	bne.n	80010a6 <__libc_init_array+0x2e>
 800109a:	bd70      	pop	{r4, r5, r6, pc}
 800109c:	f855 3b04 	ldr.w	r3, [r5], #4
 80010a0:	4798      	blx	r3
 80010a2:	3601      	adds	r6, #1
 80010a4:	e7ee      	b.n	8001084 <__libc_init_array+0xc>
 80010a6:	f855 3b04 	ldr.w	r3, [r5], #4
 80010aa:	4798      	blx	r3
 80010ac:	3601      	adds	r6, #1
 80010ae:	e7f2      	b.n	8001096 <__libc_init_array+0x1e>
 80010b0:	080010f8 	stmdaeq	r0, {r3, r4, r5, r6, r7, ip}
 80010b4:	080010f8 	stmdaeq	r0, {r3, r4, r5, r6, r7, ip}
 80010b8:	080010f8 	stmdaeq	r0, {r3, r4, r5, r6, r7, ip}
 80010bc:	080010fc 	stmdaeq	r0, {r2, r3, r4, r5, r6, r7, ip}

080010c0 <memset>:
 80010c0:	4402      	add	r2, r0
 80010c2:	4603      	mov	r3, r0
 80010c4:	4293      	cmp	r3, r2
 80010c6:	d100      	bne.n	80010ca <memset+0xa>
 80010c8:	4770      	bx	lr
 80010ca:	f803 1b01 	strb.w	r1, [r3], #1
 80010ce:	e7f9      	b.n	80010c4 <memset+0x4>

080010d0 <_init>:
 80010d0:	b5f8      	push	{r3, r4, r5, r6, r7, lr}
 80010d2:	bf00      	nop
 80010d4:	bcf8      	pop	{r3, r4, r5, r6, r7}
 80010d6:	bc08      	pop	{r3}
 80010d8:	469e      	mov	lr, r3
 80010da:	4770      	bx	lr

080010dc <_fini>:
 80010dc:	b5f8      	push	{r3, r4, r5, r6, r7, lr}
 80010de:	bf00      	nop
 80010e0:	bcf8      	pop	{r3, r4, r5, r6, r7}
 80010e2:	bc08      	pop	{r3}
 80010e4:	469e      	mov	lr, r3
 80010e6:	4770      	bx	lr
