
build/G473ZET6.elf:     file format elf32-littlearm


Disassembly of section .isr_vector:

08000000 <g_pfnVectors>:
 8000000:	20020000 	andcs	r0, r2, r0
 8000004:	08001025 	stmdaeq	r0, {r0, r2, r5, ip}
 8000008:	0800037d 	stmdaeq	r0, {r0, r2, r3, r4, r5, r6, r8, r9}
 800000c:	0800037f 	stmdaeq	r0, {r0, r1, r2, r3, r4, r5, r6, r8, r9}
 8000010:	08000381 	stmdaeq	r0, {r0, r7, r8, r9}
 8000014:	08000383 	stmdaeq	r0, {r0, r1, r7, r8, r9}
 8000018:	08000385 	stmdaeq	r0, {r0, r2, r7, r8, r9}
	...
 800002c:	08000387 	stmdaeq	r0, {r0, r1, r2, r7, r8, r9}
 8000030:	08000389 	stmdaeq	r0, {r0, r3, r7, r8, r9}
 8000034:	00000000 	andeq	r0, r0, r0
 8000038:	0800038b 	stmdaeq	r0, {r0, r1, r3, r7, r8, r9}
 800003c:	0800038d 	stmdaeq	r0, {r0, r2, r3, r7, r8, r9}
 8000040:	08001075 	stmdaeq	r0, {r0, r2, r4, r5, r6, ip}
 8000044:	08001075 	stmdaeq	r0, {r0, r2, r4, r5, r6, ip}
 8000048:	08001075 	stmdaeq	r0, {r0, r2, r4, r5, r6, ip}
 800004c:	08001075 	stmdaeq	r0, {r0, r2, r4, r5, r6, ip}
 8000050:	08001075 	stmdaeq	r0, {r0, r2, r4, r5, r6, ip}
 8000054:	08001075 	stmdaeq	r0, {r0, r2, r4, r5, r6, ip}
 8000058:	08001075 	stmdaeq	r0, {r0, r2, r4, r5, r6, ip}
 800005c:	08001075 	stmdaeq	r0, {r0, r2, r4, r5, r6, ip}
 8000060:	08001075 	stmdaeq	r0, {r0, r2, r4, r5, r6, ip}
 8000064:	08001075 	stmdaeq	r0, {r0, r2, r4, r5, r6, ip}
 8000068:	08001075 	stmdaeq	r0, {r0, r2, r4, r5, r6, ip}
 800006c:	08001075 	stmdaeq	r0, {r0, r2, r4, r5, r6, ip}
 8000070:	08001075 	stmdaeq	r0, {r0, r2, r4, r5, r6, ip}
 8000074:	08001075 	stmdaeq	r0, {r0, r2, r4, r5, r6, ip}
 8000078:	08001075 	stmdaeq	r0, {r0, r2, r4, r5, r6, ip}
 800007c:	08001075 	stmdaeq	r0, {r0, r2, r4, r5, r6, ip}
 8000080:	08001075 	stmdaeq	r0, {r0, r2, r4, r5, r6, ip}
 8000084:	08001075 	stmdaeq	r0, {r0, r2, r4, r5, r6, ip}
 8000088:	08001075 	stmdaeq	r0, {r0, r2, r4, r5, r6, ip}
 800008c:	08001075 	stmdaeq	r0, {r0, r2, r4, r5, r6, ip}
 8000090:	08001075 	stmdaeq	r0, {r0, r2, r4, r5, r6, ip}
 8000094:	08001075 	stmdaeq	r0, {r0, r2, r4, r5, r6, ip}
 8000098:	08001075 	stmdaeq	r0, {r0, r2, r4, r5, r6, ip}
 800009c:	08001075 	stmdaeq	r0, {r0, r2, r4, r5, r6, ip}
 80000a0:	08001075 	stmdaeq	r0, {r0, r2, r4, r5, r6, ip}
 80000a4:	08001075 	stmdaeq	r0, {r0, r2, r4, r5, r6, ip}
 80000a8:	08001075 	stmdaeq	r0, {r0, r2, r4, r5, r6, ip}
 80000ac:	08001075 	stmdaeq	r0, {r0, r2, r4, r5, r6, ip}
 80000b0:	08001075 	stmdaeq	r0, {r0, r2, r4, r5, r6, ip}
 80000b4:	08001075 	stmdaeq	r0, {r0, r2, r4, r5, r6, ip}
 80000b8:	08001075 	stmdaeq	r0, {r0, r2, r4, r5, r6, ip}
 80000bc:	08001075 	stmdaeq	r0, {r0, r2, r4, r5, r6, ip}
 80000c0:	08001075 	stmdaeq	r0, {r0, r2, r4, r5, r6, ip}
 80000c4:	08001075 	stmdaeq	r0, {r0, r2, r4, r5, r6, ip}
 80000c8:	08001075 	stmdaeq	r0, {r0, r2, r4, r5, r6, ip}
 80000cc:	08001075 	stmdaeq	r0, {r0, r2, r4, r5, r6, ip}
 80000d0:	08001075 	stmdaeq	r0, {r0, r2, r4, r5, r6, ip}
 80000d4:	08001075 	stmdaeq	r0, {r0, r2, r4, r5, r6, ip}
 80000d8:	08001075 	stmdaeq	r0, {r0, r2, r4, r5, r6, ip}
 80000dc:	08001075 	stmdaeq	r0, {r0, r2, r4, r5, r6, ip}
 80000e0:	08001075 	stmdaeq	r0, {r0, r2, r4, r5, r6, ip}
 80000e4:	08001075 	stmdaeq	r0, {r0, r2, r4, r5, r6, ip}
 80000e8:	08001075 	stmdaeq	r0, {r0, r2, r4, r5, r6, ip}
 80000ec:	08001075 	stmdaeq	r0, {r0, r2, r4, r5, r6, ip}
 80000f0:	08001075 	stmdaeq	r0, {r0, r2, r4, r5, r6, ip}
 80000f4:	08001075 	stmdaeq	r0, {r0, r2, r4, r5, r6, ip}
 80000f8:	08001075 	stmdaeq	r0, {r0, r2, r4, r5, r6, ip}
 80000fc:	08001075 	stmdaeq	r0, {r0, r2, r4, r5, r6, ip}
 8000100:	08001075 	stmdaeq	r0, {r0, r2, r4, r5, r6, ip}
 8000104:	08001075 	stmdaeq	r0, {r0, r2, r4, r5, r6, ip}
 8000108:	08001075 	stmdaeq	r0, {r0, r2, r4, r5, r6, ip}
 800010c:	08001075 	stmdaeq	r0, {r0, r2, r4, r5, r6, ip}
 8000110:	08001075 	stmdaeq	r0, {r0, r2, r4, r5, r6, ip}
 8000114:	08001075 	stmdaeq	r0, {r0, r2, r4, r5, r6, ip}
 8000118:	08001075 	stmdaeq	r0, {r0, r2, r4, r5, r6, ip}
 800011c:	08001075 	stmdaeq	r0, {r0, r2, r4, r5, r6, ip}
 8000120:	08001075 	stmdaeq	r0, {r0, r2, r4, r5, r6, ip}
 8000124:	08001075 	stmdaeq	r0, {r0, r2, r4, r5, r6, ip}
 8000128:	08001075 	stmdaeq	r0, {r0, r2, r4, r5, r6, ip}
 800012c:	08001075 	stmdaeq	r0, {r0, r2, r4, r5, r6, ip}
 8000130:	08001075 	stmdaeq	r0, {r0, r2, r4, r5, r6, ip}
 8000134:	08001075 	stmdaeq	r0, {r0, r2, r4, r5, r6, ip}
 8000138:	08001075 	stmdaeq	r0, {r0, r2, r4, r5, r6, ip}
 800013c:	08001075 	stmdaeq	r0, {r0, r2, r4, r5, r6, ip}
 8000140:	08001075 	stmdaeq	r0, {r0, r2, r4, r5, r6, ip}
 8000144:	08001075 	stmdaeq	r0, {r0, r2, r4, r5, r6, ip}
 8000148:	08001075 	stmdaeq	r0, {r0, r2, r4, r5, r6, ip}
	...
 800016c:	08001075 	stmdaeq	r0, {r0, r2, r4, r5, r6, ip}
 8000170:	08001075 	stmdaeq	r0, {r0, r2, r4, r5, r6, ip}
 8000174:	08001075 	stmdaeq	r0, {r0, r2, r4, r5, r6, ip}
 8000178:	08001075 	stmdaeq	r0, {r0, r2, r4, r5, r6, ip}
 800017c:	08001075 	stmdaeq	r0, {r0, r2, r4, r5, r6, ip}
 8000180:	08001075 	stmdaeq	r0, {r0, r2, r4, r5, r6, ip}
 8000184:	08001075 	stmdaeq	r0, {r0, r2, r4, r5, r6, ip}
 8000188:	08001075 	stmdaeq	r0, {r0, r2, r4, r5, r6, ip}
 800018c:	08001075 	stmdaeq	r0, {r0, r2, r4, r5, r6, ip}
 8000190:	08001075 	stmdaeq	r0, {r0, r2, r4, r5, r6, ip}
 8000194:	00000000 	andeq	r0, r0, r0
 8000198:	08001075 	stmdaeq	r0, {r0, r2, r4, r5, r6, ip}
 800019c:	08001075 	stmdaeq	r0, {r0, r2, r4, r5, r6, ip}
 80001a0:	08001075 	stmdaeq	r0, {r0, r2, r4, r5, r6, ip}
 80001a4:	08001075 	stmdaeq	r0, {r0, r2, r4, r5, r6, ip}
 80001a8:	08001075 	stmdaeq	r0, {r0, r2, r4, r5, r6, ip}
 80001ac:	08001075 	stmdaeq	r0, {r0, r2, r4, r5, r6, ip}
 80001b0:	08001075 	stmdaeq	r0, {r0, r2, r4, r5, r6, ip}
 80001b4:	08001075 	stmdaeq	r0, {r0, r2, r4, r5, r6, ip}
 80001b8:	08001075 	stmdaeq	r0, {r0, r2, r4, r5, r6, ip}
 80001bc:	08001075 	stmdaeq	r0, {r0, r2, r4, r5, r6, ip}
 80001c0:	08001075 	stmdaeq	r0, {r0, r2, r4, r5, r6, ip}
 80001c4:	08001075 	stmdaeq	r0, {r0, r2, r4, r5, r6, ip}
 80001c8:	08001075 	stmdaeq	r0, {r0, r2, r4, r5, r6, ip}
 80001cc:	08001075 	stmdaeq	r0, {r0, r2, r4, r5, r6, ip}
 80001d0:	08001075 	stmdaeq	r0, {r0, r2, r4, r5, r6, ip}
 80001d4:	08001075 	stmdaeq	r0, {r0, r2, r4, r5, r6, ip}

Disassembly of section .text:

080001d8 <__do_global_dtors_aux>:
 80001d8:	b510      	push	{r4, lr}
 80001da:	4c05      	ldr	r4, [pc, #20]	; (80001f0 <__do_global_dtors_aux+0x18>)
 80001dc:	7823      	ldrb	r3, [r4, #0]
 80001de:	b933      	cbnz	r3, 80001ee <__do_global_dtors_aux+0x16>
 80001e0:	4b04      	ldr	r3, [pc, #16]	; (80001f4 <__do_global_dtors_aux+0x1c>)
 80001e2:	b113      	cbz	r3, 80001ea <__do_global_dtors_aux+0x12>
 80001e4:	4804      	ldr	r0, [pc, #16]	; (80001f8 <__do_global_dtors_aux+0x20>)
 80001e6:	f3af 8000 	nop.w
 80001ea:	2301      	movs	r3, #1
 80001ec:	7023      	strb	r3, [r4, #0]
 80001ee:	bd10      	pop	{r4, pc}
 80001f0:	2000000c 	andcs	r0, r0, ip
 80001f4:	00000000 	andeq	r0, r0, r0
 80001f8:	080010d0 	stmdaeq	r0, {r4, r6, r7, ip}

080001fc <frame_dummy>:
 80001fc:	b508      	push	{r3, lr}
 80001fe:	4b03      	ldr	r3, [pc, #12]	; (800020c <frame_dummy+0x10>)
 8000200:	b11b      	cbz	r3, 800020a <frame_dummy+0xe>
 8000202:	4903      	ldr	r1, [pc, #12]	; (8000210 <frame_dummy+0x14>)
 8000204:	4803      	ldr	r0, [pc, #12]	; (8000214 <frame_dummy+0x18>)
 8000206:	f3af 8000 	nop.w
 800020a:	bd08      	pop	{r3, pc}
 800020c:	00000000 	andeq	r0, r0, r0
 8000210:	20000010 	andcs	r0, r0, r0, lsl r0
 8000214:	080010d0 	stmdaeq	r0, {r4, r6, r7, ip}

08000218 <iap_load_app>:
 8000218:	b538      	push	{r3, r4, r5, lr}
 800021a:	4b15      	ldr	r3, [pc, #84]	; (8000270 <iap_load_app+0x58>)
 800021c:	681b      	ldr	r3, [r3, #0]
 800021e:	f023 4350 	bic.w	r3, r3, #3489660928	; 0xd0000000
 8000222:	f423 2340 	bic.w	r3, r3, #786432	; 0xc0000
 8000226:	0c5b      	lsrs	r3, r3, #17
 8000228:	045b      	lsls	r3, r3, #17
 800022a:	4a12      	ldr	r2, [pc, #72]	; (8000274 <iap_load_app+0x5c>)
 800022c:	4293      	cmp	r3, r2
 800022e:	d007      	beq.n	8000240 <iap_load_app+0x28>
 8000230:	2032      	movs	r0, #50	; 0x32
 8000232:	f000 f91f 	bl	8000474 <HAL_Delay>
 8000236:	2180      	movs	r1, #128	; 0x80
 8000238:	480f      	ldr	r0, [pc, #60]	; (8000278 <iap_load_app+0x60>)
 800023a:	f000 fdfe 	bl	8000e3a <HAL_GPIO_TogglePin>
 800023e:	e7f7      	b.n	8000230 <iap_load_app+0x18>
 8000240:	4b0b      	ldr	r3, [pc, #44]	; (8000270 <iap_load_app+0x58>)
 8000242:	685d      	ldr	r5, [r3, #4]
 8000244:	681b      	ldr	r3, [r3, #0]
 8000246:	f383 8808 	msr	MSP, r3
 800024a:	2301      	movs	r3, #1
 800024c:	f383 8810 	msr	PRIMASK, r3
 8000250:	2400      	movs	r4, #0
 8000252:	e009      	b.n	8000268 <iap_load_app+0x50>
 8000254:	f44f 707a 	mov.w	r0, #1000	; 0x3e8
 8000258:	f000 f90c 	bl	8000474 <HAL_Delay>
 800025c:	2180      	movs	r1, #128	; 0x80
 800025e:	4806      	ldr	r0, [pc, #24]	; (8000278 <iap_load_app+0x60>)
 8000260:	f000 fdeb 	bl	8000e3a <HAL_GPIO_TogglePin>
 8000264:	3401      	adds	r4, #1
 8000266:	b2e4      	uxtb	r4, r4
 8000268:	2c09      	cmp	r4, #9
 800026a:	d9f3      	bls.n	8000254 <iap_load_app+0x3c>
 800026c:	47a8      	blx	r5
 800026e:	bd38      	pop	{r3, r4, r5, pc}
 8000270:	08004000 	stmdaeq	r0, {lr}
 8000274:	20020000 	andcs	r0, r2, r0
 8000278:	48001000 	stmdami	r0, {ip}

0800027c <Error_Handler>:
 800027c:	b672      	cpsid	i
 800027e:	e7fe      	b.n	800027e <Error_Handler+0x2>

08000280 <SystemClock_Config>:
 8000280:	b500      	push	{lr}
 8000282:	b095      	sub	sp, #84	; 0x54
 8000284:	2238      	movs	r2, #56	; 0x38
 8000286:	2100      	movs	r1, #0
 8000288:	a806      	add	r0, sp, #24
 800028a:	f000 ff19 	bl	80010c0 <memset>
 800028e:	2000      	movs	r0, #0
 8000290:	9001      	str	r0, [sp, #4]
 8000292:	9002      	str	r0, [sp, #8]
 8000294:	9003      	str	r0, [sp, #12]
 8000296:	9004      	str	r0, [sp, #16]
 8000298:	9005      	str	r0, [sp, #20]
 800029a:	f000 fdd7 	bl	8000e4c <HAL_PWREx_ControlVoltageScaling>
 800029e:	2309      	movs	r3, #9
 80002a0:	9306      	str	r3, [sp, #24]
 80002a2:	f44f 3380 	mov.w	r3, #65536	; 0x10000
 80002a6:	9307      	str	r3, [sp, #28]
 80002a8:	2301      	movs	r3, #1
 80002aa:	930b      	str	r3, [sp, #44]	; 0x2c
 80002ac:	2302      	movs	r3, #2
 80002ae:	930d      	str	r3, [sp, #52]	; 0x34
 80002b0:	2203      	movs	r2, #3
 80002b2:	920e      	str	r2, [sp, #56]	; 0x38
 80002b4:	920f      	str	r2, [sp, #60]	; 0x3c
 80002b6:	2255      	movs	r2, #85	; 0x55
 80002b8:	9210      	str	r2, [sp, #64]	; 0x40
 80002ba:	9311      	str	r3, [sp, #68]	; 0x44
 80002bc:	9312      	str	r3, [sp, #72]	; 0x48
 80002be:	9313      	str	r3, [sp, #76]	; 0x4c
 80002c0:	a806      	add	r0, sp, #24
 80002c2:	f000 f917 	bl	80004f4 <HAL_RCC_OscConfig>
 80002c6:	b980      	cbnz	r0, 80002ea <SystemClock_Config+0x6a>
 80002c8:	230f      	movs	r3, #15
 80002ca:	9301      	str	r3, [sp, #4]
 80002cc:	2303      	movs	r3, #3
 80002ce:	9302      	str	r3, [sp, #8]
 80002d0:	2300      	movs	r3, #0
 80002d2:	9303      	str	r3, [sp, #12]
 80002d4:	9304      	str	r3, [sp, #16]
 80002d6:	9305      	str	r3, [sp, #20]
 80002d8:	2104      	movs	r1, #4
 80002da:	eb0d 0001 	add.w	r0, sp, r1
 80002de:	f000 fbc1 	bl	8000a64 <HAL_RCC_ClockConfig>
 80002e2:	b920      	cbnz	r0, 80002ee <SystemClock_Config+0x6e>
 80002e4:	b015      	add	sp, #84	; 0x54
 80002e6:	f85d fb04 	ldr.w	pc, [sp], #4
 80002ea:	f7ff ffc7 	bl	800027c <Error_Handler>
 80002ee:	f7ff ffc5 	bl	800027c <Error_Handler>

080002f2 <main>:
 80002f2:	b508      	push	{r3, lr}
 80002f4:	f000 f89c 	bl	8000430 <HAL_Init>
 80002f8:	f7ff ffc2 	bl	8000280 <SystemClock_Config>
 80002fc:	f000 f804 	bl	8000308 <MX_GPIO_Init>
 8000300:	f7ff ff8a 	bl	8000218 <iap_load_app>
 8000304:	e7fe      	b.n	8000304 <main+0x12>
	...

08000308 <MX_GPIO_Init>:
 8000308:	b530      	push	{r4, r5, lr}
 800030a:	b089      	sub	sp, #36	; 0x24
 800030c:	2400      	movs	r4, #0
 800030e:	9403      	str	r4, [sp, #12]
 8000310:	9404      	str	r4, [sp, #16]
 8000312:	9405      	str	r4, [sp, #20]
 8000314:	9406      	str	r4, [sp, #24]
 8000316:	9407      	str	r4, [sp, #28]
 8000318:	4b16      	ldr	r3, [pc, #88]	; (8000374 <MX_GPIO_Init+0x6c>)
 800031a:	6cda      	ldr	r2, [r3, #76]	; 0x4c
 800031c:	f042 0220 	orr.w	r2, r2, #32
 8000320:	64da      	str	r2, [r3, #76]	; 0x4c
 8000322:	6cda      	ldr	r2, [r3, #76]	; 0x4c
 8000324:	f002 0220 	and.w	r2, r2, #32
 8000328:	9200      	str	r2, [sp, #0]
 800032a:	9a00      	ldr	r2, [sp, #0]
 800032c:	6cda      	ldr	r2, [r3, #76]	; 0x4c
 800032e:	f042 0210 	orr.w	r2, r2, #16
 8000332:	64da      	str	r2, [r3, #76]	; 0x4c
 8000334:	6cda      	ldr	r2, [r3, #76]	; 0x4c
 8000336:	f002 0210 	and.w	r2, r2, #16
 800033a:	9201      	str	r2, [sp, #4]
 800033c:	9a01      	ldr	r2, [sp, #4]
 800033e:	6cda      	ldr	r2, [r3, #76]	; 0x4c
 8000340:	f042 0201 	orr.w	r2, r2, #1
 8000344:	64da      	str	r2, [r3, #76]	; 0x4c
 8000346:	6cdb      	ldr	r3, [r3, #76]	; 0x4c
 8000348:	f003 0301 	and.w	r3, r3, #1
 800034c:	9302      	str	r3, [sp, #8]
 800034e:	9b02      	ldr	r3, [sp, #8]
 8000350:	4d09      	ldr	r5, [pc, #36]	; (8000378 <MX_GPIO_Init+0x70>)
 8000352:	4622      	mov	r2, r4
 8000354:	2180      	movs	r1, #128	; 0x80
 8000356:	4628      	mov	r0, r5
 8000358:	f000 fd6a 	bl	8000e30 <HAL_GPIO_WritePin>
 800035c:	2380      	movs	r3, #128	; 0x80
 800035e:	9303      	str	r3, [sp, #12]
 8000360:	2301      	movs	r3, #1
 8000362:	9304      	str	r3, [sp, #16]
 8000364:	9405      	str	r4, [sp, #20]
 8000366:	9406      	str	r4, [sp, #24]
 8000368:	a903      	add	r1, sp, #12
 800036a:	4628      	mov	r0, r5
 800036c:	f000 fc76 	bl	8000c5c <HAL_GPIO_Init>
 8000370:	b009      	add	sp, #36	; 0x24
 8000372:	bd30      	pop	{r4, r5, pc}
 8000374:	40021000 	andmi	r1, r2, r0
 8000378:	48001000 	stmdami	r0, {ip}

0800037c <NMI_Handler>:
 800037c:	e7fe      	b.n	800037c <NMI_Handler>

0800037e <HardFault_Handler>:
 800037e:	e7fe      	b.n	800037e <HardFault_Handler>

08000380 <MemManage_Handler>:
 8000380:	e7fe      	b.n	8000380 <MemManage_Handler>

08000382 <BusFault_Handler>:
 8000382:	e7fe      	b.n	8000382 <BusFault_Handler>

08000384 <UsageFault_Handler>:
 8000384:	e7fe      	b.n	8000384 <UsageFault_Handler>

08000386 <SVC_Handler>:
 8000386:	4770      	bx	lr

08000388 <DebugMon_Handler>:
 8000388:	4770      	bx	lr

0800038a <PendSV_Handler>:
 800038a:	4770      	bx	lr

0800038c <SysTick_Handler>:
 800038c:	b508      	push	{r3, lr}
 800038e:	f000 f85f 	bl	8000450 <HAL_IncTick>
 8000392:	bd08      	pop	{r3, pc}

08000394 <HAL_MspInit>:
 8000394:	b500      	push	{lr}
 8000396:	b083      	sub	sp, #12
 8000398:	4b0b      	ldr	r3, [pc, #44]	; (80003c8 <HAL_MspInit+0x34>)
 800039a:	6e1a      	ldr	r2, [r3, #96]	; 0x60
 800039c:	f042 0201 	orr.w	r2, r2, #1
 80003a0:	661a      	str	r2, [r3, #96]	; 0x60
 80003a2:	6e1a      	ldr	r2, [r3, #96]	; 0x60
 80003a4:	f002 0201 	and.w	r2, r2, #1
 80003a8:	9200      	str	r2, [sp, #0]
 80003aa:	9a00      	ldr	r2, [sp, #0]
 80003ac:	6d9a      	ldr	r2, [r3, #88]	; 0x58
 80003ae:	f042 5280 	orr.w	r2, r2, #268435456	; 0x10000000
 80003b2:	659a      	str	r2, [r3, #88]	; 0x58
 80003b4:	6d9b      	ldr	r3, [r3, #88]	; 0x58
 80003b6:	f003 5380 	and.w	r3, r3, #268435456	; 0x10000000
 80003ba:	9301      	str	r3, [sp, #4]
 80003bc:	9b01      	ldr	r3, [sp, #4]
 80003be:	f000 fdcb 	bl	8000f58 <HAL_PWREx_DisableUCPDDeadBattery>
 80003c2:	b003      	add	sp, #12
 80003c4:	f85d fb04 	ldr.w	pc, [sp], #4
 80003c8:	40021000 	andmi	r1, r2, r0

080003cc <SystemInit>:
 80003cc:	4a03      	ldr	r2, [pc, #12]	; (80003dc <SystemInit+0x10>)
 80003ce:	f8d2 3088 	ldr.w	r3, [r2, #136]	; 0x88
 80003d2:	f443 0370 	orr.w	r3, r3, #15728640	; 0xf00000
 80003d6:	f8c2 3088 	str.w	r3, [r2, #136]	; 0x88
 80003da:	4770      	bx	lr
 80003dc:	e000ed00 	and	lr, r0, r0, lsl #26

080003e0 <HAL_InitTick>:
 80003e0:	4b10      	ldr	r3, [pc, #64]	; (8000424 <HAL_InitTick+0x44>)
 80003e2:	681b      	ldr	r3, [r3, #0]
 80003e4:	b90b      	cbnz	r3, 80003ea <HAL_InitTick+0xa>
 80003e6:	2001      	movs	r0, #1
 80003e8:	4770      	bx	lr
 80003ea:	b510      	push	{r4, lr}
 80003ec:	4604      	mov	r4, r0
 80003ee:	f44f 707a 	mov.w	r0, #1000	; 0x3e8
 80003f2:	fbb0 f3f3 	udiv	r3, r0, r3
 80003f6:	4a0c      	ldr	r2, [pc, #48]	; (8000428 <HAL_InitTick+0x48>)
 80003f8:	6810      	ldr	r0, [r2, #0]
 80003fa:	fbb0 f0f3 	udiv	r0, r0, r3
 80003fe:	f000 fdfd 	bl	8000ffc <HAL_SYSTICK_Config>
 8000402:	b968      	cbnz	r0, 8000420 <HAL_InitTick+0x40>
 8000404:	2c0f      	cmp	r4, #15
 8000406:	d901      	bls.n	800040c <HAL_InitTick+0x2c>
 8000408:	2001      	movs	r0, #1
 800040a:	e00a      	b.n	8000422 <HAL_InitTick+0x42>
 800040c:	2200      	movs	r2, #0
 800040e:	4621      	mov	r1, r4
 8000410:	f04f 30ff 	mov.w	r0, #4294967295
 8000414:	f000 fdba 	bl	8000f8c <HAL_NVIC_SetPriority>
 8000418:	4b04      	ldr	r3, [pc, #16]	; (800042c <HAL_InitTick+0x4c>)
 800041a:	601c      	str	r4, [r3, #0]
 800041c:	2000      	movs	r0, #0
 800041e:	e000      	b.n	8000422 <HAL_InitTick+0x42>
 8000420:	2001      	movs	r0, #1
 8000422:	bd10      	pop	{r4, pc}
 8000424:	20000004 	andcs	r0, r0, r4
 8000428:	20000000 	andcs	r0, r0, r0
 800042c:	20000008 	andcs	r0, r0, r8

08000430 <HAL_Init>:
 8000430:	b510      	push	{r4, lr}
 8000432:	2003      	movs	r0, #3
 8000434:	f000 fd98 	bl	8000f68 <HAL_NVIC_SetPriorityGrouping>
 8000438:	200f      	movs	r0, #15
 800043a:	f7ff ffd1 	bl	80003e0 <HAL_InitTick>
 800043e:	b110      	cbz	r0, 8000446 <HAL_Init+0x16>
 8000440:	2401      	movs	r4, #1
 8000442:	4620      	mov	r0, r4
 8000444:	bd10      	pop	{r4, pc}
 8000446:	4604      	mov	r4, r0
 8000448:	f7ff ffa4 	bl	8000394 <HAL_MspInit>
 800044c:	e7f9      	b.n	8000442 <HAL_Init+0x12>
	...

08000450 <HAL_IncTick>:
 8000450:	4a03      	ldr	r2, [pc, #12]	; (8000460 <HAL_IncTick+0x10>)
 8000452:	6813      	ldr	r3, [r2, #0]
 8000454:	4903      	ldr	r1, [pc, #12]	; (8000464 <HAL_IncTick+0x14>)
 8000456:	6809      	ldr	r1, [r1, #0]
 8000458:	440b      	add	r3, r1
 800045a:	6013      	str	r3, [r2, #0]
 800045c:	4770      	bx	lr
 800045e:	bf00      	nop
 8000460:	20000028 	andcs	r0, r0, r8, lsr #32
 8000464:	20000004 	andcs	r0, r0, r4

08000468 <HAL_GetTick>:
 8000468:	4b01      	ldr	r3, [pc, #4]	; (8000470 <HAL_GetTick+0x8>)
 800046a:	6818      	ldr	r0, [r3, #0]
 800046c:	4770      	bx	lr
 800046e:	bf00      	nop
 8000470:	20000028 	andcs	r0, r0, r8, lsr #32

08000474 <HAL_Delay>:
 8000474:	b538      	push	{r3, r4, r5, lr}
 8000476:	4604      	mov	r4, r0
 8000478:	f7ff fff6 	bl	8000468 <HAL_GetTick>
 800047c:	4605      	mov	r5, r0
 800047e:	f1b4 3fff 	cmp.w	r4, #4294967295
 8000482:	d002      	beq.n	800048a <HAL_Delay+0x16>
 8000484:	4b04      	ldr	r3, [pc, #16]	; (8000498 <HAL_Delay+0x24>)
 8000486:	681b      	ldr	r3, [r3, #0]
 8000488:	441c      	add	r4, r3
 800048a:	f7ff ffed 	bl	8000468 <HAL_GetTick>
 800048e:	1b40      	subs	r0, r0, r5
 8000490:	42a0      	cmp	r0, r4
 8000492:	d3fa      	bcc.n	800048a <HAL_Delay+0x16>
 8000494:	bd38      	pop	{r3, r4, r5, pc}
 8000496:	bf00      	nop
 8000498:	20000004 	andcs	r0, r0, r4

0800049c <RCC_GetSysClockFreqFromPLLSource>:
 800049c:	4b12      	ldr	r3, [pc, #72]	; (80004e8 <RCC_GetSysClockFreqFromPLLSource+0x4c>)
 800049e:	68da      	ldr	r2, [r3, #12]
 80004a0:	f002 0203 	and.w	r2, r2, #3
 80004a4:	68d8      	ldr	r0, [r3, #12]
 80004a6:	f3c0 1003 	ubfx	r0, r0, #4, #4
 80004aa:	1c43      	adds	r3, r0, #1
 80004ac:	2a03      	cmp	r2, #3
 80004ae:	d011      	beq.n	80004d4 <RCC_GetSysClockFreqFromPLLSource+0x38>
 80004b0:	480e      	ldr	r0, [pc, #56]	; (80004ec <RCC_GetSysClockFreqFromPLLSource+0x50>)
 80004b2:	fbb0 f0f3 	udiv	r0, r0, r3
 80004b6:	4b0c      	ldr	r3, [pc, #48]	; (80004e8 <RCC_GetSysClockFreqFromPLLSource+0x4c>)
 80004b8:	68db      	ldr	r3, [r3, #12]
 80004ba:	f3c3 2306 	ubfx	r3, r3, #8, #7
 80004be:	fb03 f000 	mul.w	r0, r3, r0
 80004c2:	4b09      	ldr	r3, [pc, #36]	; (80004e8 <RCC_GetSysClockFreqFromPLLSource+0x4c>)
 80004c4:	68db      	ldr	r3, [r3, #12]
 80004c6:	f3c3 6341 	ubfx	r3, r3, #25, #2
 80004ca:	3301      	adds	r3, #1
 80004cc:	005b      	lsls	r3, r3, #1
 80004ce:	fbb0 f0f3 	udiv	r0, r0, r3
 80004d2:	4770      	bx	lr
 80004d4:	4806      	ldr	r0, [pc, #24]	; (80004f0 <RCC_GetSysClockFreqFromPLLSource+0x54>)
 80004d6:	fbb0 f0f3 	udiv	r0, r0, r3
 80004da:	4b03      	ldr	r3, [pc, #12]	; (80004e8 <RCC_GetSysClockFreqFromPLLSource+0x4c>)
 80004dc:	68db      	ldr	r3, [r3, #12]
 80004de:	f3c3 2306 	ubfx	r3, r3, #8, #7
 80004e2:	fb03 f000 	mul.w	r0, r3, r0
 80004e6:	e7ec      	b.n	80004c2 <RCC_GetSysClockFreqFromPLLSource+0x26>
 80004e8:	40021000 	andmi	r1, r2, r0
 80004ec:	00f42400 	rscseq	r2, r4, r0, lsl #8
 80004f0:	00b71b00 	adcseq	r1, r7, r0, lsl #22

080004f4 <HAL_RCC_OscConfig>:
 80004f4:	2800      	cmp	r0, #0
 80004f6:	f000 8254 	beq.w	80009a2 <HAL_RCC_OscConfig+0x4ae>
 80004fa:	b570      	push	{r4, r5, r6, lr}
 80004fc:	b082      	sub	sp, #8
 80004fe:	4604      	mov	r4, r0
 8000500:	6803      	ldr	r3, [r0, #0]
 8000502:	f013 0f01 	tst.w	r3, #1
 8000506:	d037      	beq.n	8000578 <HAL_RCC_OscConfig+0x84>
 8000508:	4aa4      	ldr	r2, [pc, #656]	; (800079c <HAL_RCC_OscConfig+0x2a8>)
 800050a:	6893      	ldr	r3, [r2, #8]
 800050c:	f003 030c 	and.w	r3, r3, #12
 8000510:	68d2      	ldr	r2, [r2, #12]
 8000512:	f002 0203 	and.w	r2, r2, #3
 8000516:	2b0c      	cmp	r3, #12
 8000518:	d023      	beq.n	8000562 <HAL_RCC_OscConfig+0x6e>
 800051a:	2b08      	cmp	r3, #8
 800051c:	d023      	beq.n	8000566 <HAL_RCC_OscConfig+0x72>
 800051e:	6863      	ldr	r3, [r4, #4]
 8000520:	f5b3 3f80 	cmp.w	r3, #65536	; 0x10000
 8000524:	d04e      	beq.n	80005c4 <HAL_RCC_OscConfig+0xd0>
 8000526:	f5b3 2fa0 	cmp.w	r3, #327680	; 0x50000
 800052a:	d051      	beq.n	80005d0 <HAL_RCC_OscConfig+0xdc>
 800052c:	4b9b      	ldr	r3, [pc, #620]	; (800079c <HAL_RCC_OscConfig+0x2a8>)
 800052e:	681a      	ldr	r2, [r3, #0]
 8000530:	f422 3280 	bic.w	r2, r2, #65536	; 0x10000
 8000534:	601a      	str	r2, [r3, #0]
 8000536:	681a      	ldr	r2, [r3, #0]
 8000538:	f422 2280 	bic.w	r2, r2, #262144	; 0x40000
 800053c:	601a      	str	r2, [r3, #0]
 800053e:	6863      	ldr	r3, [r4, #4]
 8000540:	2b00      	cmp	r3, #0
 8000542:	d052      	beq.n	80005ea <HAL_RCC_OscConfig+0xf6>
 8000544:	f7ff ff90 	bl	8000468 <HAL_GetTick>
 8000548:	4605      	mov	r5, r0
 800054a:	4b94      	ldr	r3, [pc, #592]	; (800079c <HAL_RCC_OscConfig+0x2a8>)
 800054c:	681b      	ldr	r3, [r3, #0]
 800054e:	f413 3f00 	tst.w	r3, #131072	; 0x20000
 8000552:	d111      	bne.n	8000578 <HAL_RCC_OscConfig+0x84>
 8000554:	f7ff ff88 	bl	8000468 <HAL_GetTick>
 8000558:	1b40      	subs	r0, r0, r5
 800055a:	2864      	cmp	r0, #100	; 0x64
 800055c:	d9f5      	bls.n	800054a <HAL_RCC_OscConfig+0x56>
 800055e:	2003      	movs	r0, #3
 8000560:	e228      	b.n	80009b4 <HAL_RCC_OscConfig+0x4c0>
 8000562:	2a03      	cmp	r2, #3
 8000564:	d1d9      	bne.n	800051a <HAL_RCC_OscConfig+0x26>
 8000566:	4b8d      	ldr	r3, [pc, #564]	; (800079c <HAL_RCC_OscConfig+0x2a8>)
 8000568:	681b      	ldr	r3, [r3, #0]
 800056a:	f413 3f00 	tst.w	r3, #131072	; 0x20000
 800056e:	d003      	beq.n	8000578 <HAL_RCC_OscConfig+0x84>
 8000570:	6863      	ldr	r3, [r4, #4]
 8000572:	2b00      	cmp	r3, #0
 8000574:	f000 8217 	beq.w	80009a6 <HAL_RCC_OscConfig+0x4b2>
 8000578:	6823      	ldr	r3, [r4, #0]
 800057a:	f013 0f02 	tst.w	r3, #2
 800057e:	d05d      	beq.n	800063c <HAL_RCC_OscConfig+0x148>
 8000580:	4a86      	ldr	r2, [pc, #536]	; (800079c <HAL_RCC_OscConfig+0x2a8>)
 8000582:	6893      	ldr	r3, [r2, #8]
 8000584:	f003 030c 	and.w	r3, r3, #12
 8000588:	68d2      	ldr	r2, [r2, #12]
 800058a:	f002 0203 	and.w	r2, r2, #3
 800058e:	2b0c      	cmp	r3, #12
 8000590:	d03a      	beq.n	8000608 <HAL_RCC_OscConfig+0x114>
 8000592:	2b04      	cmp	r3, #4
 8000594:	d03a      	beq.n	800060c <HAL_RCC_OscConfig+0x118>
 8000596:	68e3      	ldr	r3, [r4, #12]
 8000598:	2b00      	cmp	r3, #0
 800059a:	d075      	beq.n	8000688 <HAL_RCC_OscConfig+0x194>
 800059c:	4a7f      	ldr	r2, [pc, #508]	; (800079c <HAL_RCC_OscConfig+0x2a8>)
 800059e:	6813      	ldr	r3, [r2, #0]
 80005a0:	f443 7380 	orr.w	r3, r3, #256	; 0x100
 80005a4:	6013      	str	r3, [r2, #0]
 80005a6:	f7ff ff5f 	bl	8000468 <HAL_GetTick>
 80005aa:	4605      	mov	r5, r0
 80005ac:	4b7b      	ldr	r3, [pc, #492]	; (800079c <HAL_RCC_OscConfig+0x2a8>)
 80005ae:	681b      	ldr	r3, [r3, #0]
 80005b0:	f413 6f80 	tst.w	r3, #1024	; 0x400
 80005b4:	d15f      	bne.n	8000676 <HAL_RCC_OscConfig+0x182>
 80005b6:	f7ff ff57 	bl	8000468 <HAL_GetTick>
 80005ba:	1b40      	subs	r0, r0, r5
 80005bc:	2802      	cmp	r0, #2
 80005be:	d9f5      	bls.n	80005ac <HAL_RCC_OscConfig+0xb8>
 80005c0:	2003      	movs	r0, #3
 80005c2:	e1f7      	b.n	80009b4 <HAL_RCC_OscConfig+0x4c0>
 80005c4:	4a75      	ldr	r2, [pc, #468]	; (800079c <HAL_RCC_OscConfig+0x2a8>)
 80005c6:	6813      	ldr	r3, [r2, #0]
 80005c8:	f443 3380 	orr.w	r3, r3, #65536	; 0x10000
 80005cc:	6013      	str	r3, [r2, #0]
 80005ce:	e7b6      	b.n	800053e <HAL_RCC_OscConfig+0x4a>
 80005d0:	f103 4380 	add.w	r3, r3, #1073741824	; 0x40000000
 80005d4:	f5a3 333c 	sub.w	r3, r3, #192512	; 0x2f000
 80005d8:	681a      	ldr	r2, [r3, #0]
 80005da:	f442 2280 	orr.w	r2, r2, #262144	; 0x40000
 80005de:	601a      	str	r2, [r3, #0]
 80005e0:	681a      	ldr	r2, [r3, #0]
 80005e2:	f442 3280 	orr.w	r2, r2, #65536	; 0x10000
 80005e6:	601a      	str	r2, [r3, #0]
 80005e8:	e7a9      	b.n	800053e <HAL_RCC_OscConfig+0x4a>
 80005ea:	f7ff ff3d 	bl	8000468 <HAL_GetTick>
 80005ee:	4605      	mov	r5, r0
 80005f0:	4b6a      	ldr	r3, [pc, #424]	; (800079c <HAL_RCC_OscConfig+0x2a8>)
 80005f2:	681b      	ldr	r3, [r3, #0]
 80005f4:	f413 3f00 	tst.w	r3, #131072	; 0x20000
 80005f8:	d0be      	beq.n	8000578 <HAL_RCC_OscConfig+0x84>
 80005fa:	f7ff ff35 	bl	8000468 <HAL_GetTick>
 80005fe:	1b40      	subs	r0, r0, r5
 8000600:	2864      	cmp	r0, #100	; 0x64
 8000602:	d9f5      	bls.n	80005f0 <HAL_RCC_OscConfig+0xfc>
 8000604:	2003      	movs	r0, #3
 8000606:	e1d5      	b.n	80009b4 <HAL_RCC_OscConfig+0x4c0>
 8000608:	2a02      	cmp	r2, #2
 800060a:	d1c2      	bne.n	8000592 <HAL_RCC_OscConfig+0x9e>
 800060c:	4b63      	ldr	r3, [pc, #396]	; (800079c <HAL_RCC_OscConfig+0x2a8>)
 800060e:	681b      	ldr	r3, [r3, #0]
 8000610:	f413 6f80 	tst.w	r3, #1024	; 0x400
 8000614:	d003      	beq.n	800061e <HAL_RCC_OscConfig+0x12a>
 8000616:	68e3      	ldr	r3, [r4, #12]
 8000618:	2b00      	cmp	r3, #0
 800061a:	f000 81c6 	beq.w	80009aa <HAL_RCC_OscConfig+0x4b6>
 800061e:	4a5f      	ldr	r2, [pc, #380]	; (800079c <HAL_RCC_OscConfig+0x2a8>)
 8000620:	6853      	ldr	r3, [r2, #4]
 8000622:	f023 43fe 	bic.w	r3, r3, #2130706432	; 0x7f000000
 8000626:	6921      	ldr	r1, [r4, #16]
 8000628:	ea43 6301 	orr.w	r3, r3, r1, lsl #24
 800062c:	6053      	str	r3, [r2, #4]
 800062e:	4b5c      	ldr	r3, [pc, #368]	; (80007a0 <HAL_RCC_OscConfig+0x2ac>)
 8000630:	6818      	ldr	r0, [r3, #0]
 8000632:	f7ff fed5 	bl	80003e0 <HAL_InitTick>
 8000636:	2800      	cmp	r0, #0
 8000638:	f040 81b9 	bne.w	80009ae <HAL_RCC_OscConfig+0x4ba>
 800063c:	6823      	ldr	r3, [r4, #0]
 800063e:	f013 0f08 	tst.w	r3, #8
 8000642:	d04c      	beq.n	80006de <HAL_RCC_OscConfig+0x1ea>
 8000644:	6963      	ldr	r3, [r4, #20]
 8000646:	b39b      	cbz	r3, 80006b0 <HAL_RCC_OscConfig+0x1bc>
 8000648:	4a54      	ldr	r2, [pc, #336]	; (800079c <HAL_RCC_OscConfig+0x2a8>)
 800064a:	f8d2 3094 	ldr.w	r3, [r2, #148]	; 0x94
 800064e:	f043 0301 	orr.w	r3, r3, #1
 8000652:	f8c2 3094 	str.w	r3, [r2, #148]	; 0x94
 8000656:	f7ff ff07 	bl	8000468 <HAL_GetTick>
 800065a:	4605      	mov	r5, r0
 800065c:	4b4f      	ldr	r3, [pc, #316]	; (800079c <HAL_RCC_OscConfig+0x2a8>)
 800065e:	f8d3 3094 	ldr.w	r3, [r3, #148]	; 0x94
 8000662:	f013 0f02 	tst.w	r3, #2
 8000666:	d13a      	bne.n	80006de <HAL_RCC_OscConfig+0x1ea>
 8000668:	f7ff fefe 	bl	8000468 <HAL_GetTick>
 800066c:	1b40      	subs	r0, r0, r5
 800066e:	2802      	cmp	r0, #2
 8000670:	d9f4      	bls.n	800065c <HAL_RCC_OscConfig+0x168>
 8000672:	2003      	movs	r0, #3
 8000674:	e19e      	b.n	80009b4 <HAL_RCC_OscConfig+0x4c0>
 8000676:	4a49      	ldr	r2, [pc, #292]	; (800079c <HAL_RCC_OscConfig+0x2a8>)
 8000678:	6853      	ldr	r3, [r2, #4]
 800067a:	f023 43fe 	bic.w	r3, r3, #2130706432	; 0x7f000000
 800067e:	6921      	ldr	r1, [r4, #16]
 8000680:	ea43 6301 	orr.w	r3, r3, r1, lsl #24
 8000684:	6053      	str	r3, [r2, #4]
 8000686:	e7d9      	b.n	800063c <HAL_RCC_OscConfig+0x148>
 8000688:	4a44      	ldr	r2, [pc, #272]	; (800079c <HAL_RCC_OscConfig+0x2a8>)
 800068a:	6813      	ldr	r3, [r2, #0]
 800068c:	f423 7380 	bic.w	r3, r3, #256	; 0x100
 8000690:	6013      	str	r3, [r2, #0]
 8000692:	f7ff fee9 	bl	8000468 <HAL_GetTick>
 8000696:	4605      	mov	r5, r0
 8000698:	4b40      	ldr	r3, [pc, #256]	; (800079c <HAL_RCC_OscConfig+0x2a8>)
 800069a:	681b      	ldr	r3, [r3, #0]
 800069c:	f413 6f80 	tst.w	r3, #1024	; 0x400
 80006a0:	d0cc      	beq.n	800063c <HAL_RCC_OscConfig+0x148>
 80006a2:	f7ff fee1 	bl	8000468 <HAL_GetTick>
 80006a6:	1b40      	subs	r0, r0, r5
 80006a8:	2802      	cmp	r0, #2
 80006aa:	d9f5      	bls.n	8000698 <HAL_RCC_OscConfig+0x1a4>
 80006ac:	2003      	movs	r0, #3
 80006ae:	e181      	b.n	80009b4 <HAL_RCC_OscConfig+0x4c0>
 80006b0:	4a3a      	ldr	r2, [pc, #232]	; (800079c <HAL_RCC_OscConfig+0x2a8>)
 80006b2:	f8d2 3094 	ldr.w	r3, [r2, #148]	; 0x94
 80006b6:	f023 0301 	bic.w	r3, r3, #1
 80006ba:	f8c2 3094 	str.w	r3, [r2, #148]	; 0x94
 80006be:	f7ff fed3 	bl	8000468 <HAL_GetTick>
 80006c2:	4605      	mov	r5, r0
 80006c4:	4b35      	ldr	r3, [pc, #212]	; (800079c <HAL_RCC_OscConfig+0x2a8>)
 80006c6:	f8d3 3094 	ldr.w	r3, [r3, #148]	; 0x94
 80006ca:	f013 0f02 	tst.w	r3, #2
 80006ce:	d006      	beq.n	80006de <HAL_RCC_OscConfig+0x1ea>
 80006d0:	f7ff feca 	bl	8000468 <HAL_GetTick>
 80006d4:	1b40      	subs	r0, r0, r5
 80006d6:	2802      	cmp	r0, #2
 80006d8:	d9f4      	bls.n	80006c4 <HAL_RCC_OscConfig+0x1d0>
 80006da:	2003      	movs	r0, #3
 80006dc:	e16a      	b.n	80009b4 <HAL_RCC_OscConfig+0x4c0>
 80006de:	6823      	ldr	r3, [r4, #0]
 80006e0:	f013 0f04 	tst.w	r3, #4
 80006e4:	f000 8081 	beq.w	80007ea <HAL_RCC_OscConfig+0x2f6>
 80006e8:	4b2c      	ldr	r3, [pc, #176]	; (800079c <HAL_RCC_OscConfig+0x2a8>)
 80006ea:	6d9b      	ldr	r3, [r3, #88]	; 0x58
 80006ec:	f013 5f80 	tst.w	r3, #268435456	; 0x10000000
 80006f0:	d136      	bne.n	8000760 <HAL_RCC_OscConfig+0x26c>
 80006f2:	4b2a      	ldr	r3, [pc, #168]	; (800079c <HAL_RCC_OscConfig+0x2a8>)
 80006f4:	6d9a      	ldr	r2, [r3, #88]	; 0x58
 80006f6:	f042 5280 	orr.w	r2, r2, #268435456	; 0x10000000
 80006fa:	659a      	str	r2, [r3, #88]	; 0x58
 80006fc:	6d9b      	ldr	r3, [r3, #88]	; 0x58
 80006fe:	f003 5380 	and.w	r3, r3, #268435456	; 0x10000000
 8000702:	9301      	str	r3, [sp, #4]
 8000704:	9b01      	ldr	r3, [sp, #4]
 8000706:	2501      	movs	r5, #1
 8000708:	4b26      	ldr	r3, [pc, #152]	; (80007a4 <HAL_RCC_OscConfig+0x2b0>)
 800070a:	681b      	ldr	r3, [r3, #0]
 800070c:	f413 7f80 	tst.w	r3, #256	; 0x100
 8000710:	d028      	beq.n	8000764 <HAL_RCC_OscConfig+0x270>
 8000712:	68a3      	ldr	r3, [r4, #8]
 8000714:	2b01      	cmp	r3, #1
 8000716:	d039      	beq.n	800078c <HAL_RCC_OscConfig+0x298>
 8000718:	2b05      	cmp	r3, #5
 800071a:	d045      	beq.n	80007a8 <HAL_RCC_OscConfig+0x2b4>
 800071c:	4b1f      	ldr	r3, [pc, #124]	; (800079c <HAL_RCC_OscConfig+0x2a8>)
 800071e:	f8d3 2090 	ldr.w	r2, [r3, #144]	; 0x90
 8000722:	f022 0201 	bic.w	r2, r2, #1
 8000726:	f8c3 2090 	str.w	r2, [r3, #144]	; 0x90
 800072a:	f8d3 2090 	ldr.w	r2, [r3, #144]	; 0x90
 800072e:	f022 0204 	bic.w	r2, r2, #4
 8000732:	f8c3 2090 	str.w	r2, [r3, #144]	; 0x90
 8000736:	68a3      	ldr	r3, [r4, #8]
 8000738:	2b00      	cmp	r3, #0
 800073a:	d043      	beq.n	80007c4 <HAL_RCC_OscConfig+0x2d0>
 800073c:	f7ff fe94 	bl	8000468 <HAL_GetTick>
 8000740:	4606      	mov	r6, r0
 8000742:	4b16      	ldr	r3, [pc, #88]	; (800079c <HAL_RCC_OscConfig+0x2a8>)
 8000744:	f8d3 3090 	ldr.w	r3, [r3, #144]	; 0x90
 8000748:	f013 0f02 	tst.w	r3, #2
 800074c:	d14c      	bne.n	80007e8 <HAL_RCC_OscConfig+0x2f4>
 800074e:	f7ff fe8b 	bl	8000468 <HAL_GetTick>
 8000752:	1b80      	subs	r0, r0, r6
 8000754:	f241 3388 	movw	r3, #5000	; 0x1388
 8000758:	4298      	cmp	r0, r3
 800075a:	d9f2      	bls.n	8000742 <HAL_RCC_OscConfig+0x24e>
 800075c:	2003      	movs	r0, #3
 800075e:	e129      	b.n	80009b4 <HAL_RCC_OscConfig+0x4c0>
 8000760:	2500      	movs	r5, #0
 8000762:	e7d1      	b.n	8000708 <HAL_RCC_OscConfig+0x214>
 8000764:	4a0f      	ldr	r2, [pc, #60]	; (80007a4 <HAL_RCC_OscConfig+0x2b0>)
 8000766:	6813      	ldr	r3, [r2, #0]
 8000768:	f443 7380 	orr.w	r3, r3, #256	; 0x100
 800076c:	6013      	str	r3, [r2, #0]
 800076e:	f7ff fe7b 	bl	8000468 <HAL_GetTick>
 8000772:	4606      	mov	r6, r0
 8000774:	4b0b      	ldr	r3, [pc, #44]	; (80007a4 <HAL_RCC_OscConfig+0x2b0>)
 8000776:	681b      	ldr	r3, [r3, #0]
 8000778:	f413 7f80 	tst.w	r3, #256	; 0x100
 800077c:	d1c9      	bne.n	8000712 <HAL_RCC_OscConfig+0x21e>
 800077e:	f7ff fe73 	bl	8000468 <HAL_GetTick>
 8000782:	1b80      	subs	r0, r0, r6
 8000784:	2802      	cmp	r0, #2
 8000786:	d9f5      	bls.n	8000774 <HAL_RCC_OscConfig+0x280>
 8000788:	2003      	movs	r0, #3
 800078a:	e113      	b.n	80009b4 <HAL_RCC_OscConfig+0x4c0>
 800078c:	4a03      	ldr	r2, [pc, #12]	; (800079c <HAL_RCC_OscConfig+0x2a8>)
 800078e:	f8d2 3090 	ldr.w	r3, [r2, #144]	; 0x90
 8000792:	f043 0301 	orr.w	r3, r3, #1
 8000796:	f8c2 3090 	str.w	r3, [r2, #144]	; 0x90
 800079a:	e7cc      	b.n	8000736 <HAL_RCC_OscConfig+0x242>
 800079c:	40021000 	andmi	r1, r2, r0
 80007a0:	20000008 	andcs	r0, r0, r8
 80007a4:	40007000 	andmi	r7, r0, r0
 80007a8:	4b8a      	ldr	r3, [pc, #552]	; (80009d4 <HAL_RCC_OscConfig+0x4e0>)
 80007aa:	f8d3 2090 	ldr.w	r2, [r3, #144]	; 0x90
 80007ae:	f042 0204 	orr.w	r2, r2, #4
 80007b2:	f8c3 2090 	str.w	r2, [r3, #144]	; 0x90
 80007b6:	f8d3 2090 	ldr.w	r2, [r3, #144]	; 0x90
 80007ba:	f042 0201 	orr.w	r2, r2, #1
 80007be:	f8c3 2090 	str.w	r2, [r3, #144]	; 0x90
 80007c2:	e7b8      	b.n	8000736 <HAL_RCC_OscConfig+0x242>
 80007c4:	f7ff fe50 	bl	8000468 <HAL_GetTick>
 80007c8:	4606      	mov	r6, r0
 80007ca:	4b82      	ldr	r3, [pc, #520]	; (80009d4 <HAL_RCC_OscConfig+0x4e0>)
 80007cc:	f8d3 3090 	ldr.w	r3, [r3, #144]	; 0x90
 80007d0:	f013 0f02 	tst.w	r3, #2
 80007d4:	d008      	beq.n	80007e8 <HAL_RCC_OscConfig+0x2f4>
 80007d6:	f7ff fe47 	bl	8000468 <HAL_GetTick>
 80007da:	1b80      	subs	r0, r0, r6
 80007dc:	f241 3388 	movw	r3, #5000	; 0x1388
 80007e0:	4298      	cmp	r0, r3
 80007e2:	d9f2      	bls.n	80007ca <HAL_RCC_OscConfig+0x2d6>
 80007e4:	2003      	movs	r0, #3
 80007e6:	e0e5      	b.n	80009b4 <HAL_RCC_OscConfig+0x4c0>
 80007e8:	b9e5      	cbnz	r5, 8000824 <HAL_RCC_OscConfig+0x330>
 80007ea:	6823      	ldr	r3, [r4, #0]
 80007ec:	f013 0f20 	tst.w	r3, #32
 80007f0:	d035      	beq.n	800085e <HAL_RCC_OscConfig+0x36a>
 80007f2:	69a3      	ldr	r3, [r4, #24]
 80007f4:	b1e3      	cbz	r3, 8000830 <HAL_RCC_OscConfig+0x33c>
 80007f6:	4a77      	ldr	r2, [pc, #476]	; (80009d4 <HAL_RCC_OscConfig+0x4e0>)
 80007f8:	f8d2 3098 	ldr.w	r3, [r2, #152]	; 0x98
 80007fc:	f043 0301 	orr.w	r3, r3, #1
 8000800:	f8c2 3098 	str.w	r3, [r2, #152]	; 0x98
 8000804:	f7ff fe30 	bl	8000468 <HAL_GetTick>
 8000808:	4605      	mov	r5, r0
 800080a:	4b72      	ldr	r3, [pc, #456]	; (80009d4 <HAL_RCC_OscConfig+0x4e0>)
 800080c:	f8d3 3098 	ldr.w	r3, [r3, #152]	; 0x98
 8000810:	f013 0f02 	tst.w	r3, #2
 8000814:	d123      	bne.n	800085e <HAL_RCC_OscConfig+0x36a>
 8000816:	f7ff fe27 	bl	8000468 <HAL_GetTick>
 800081a:	1b40      	subs	r0, r0, r5
 800081c:	2802      	cmp	r0, #2
 800081e:	d9f4      	bls.n	800080a <HAL_RCC_OscConfig+0x316>
 8000820:	2003      	movs	r0, #3
 8000822:	e0c7      	b.n	80009b4 <HAL_RCC_OscConfig+0x4c0>
 8000824:	4a6b      	ldr	r2, [pc, #428]	; (80009d4 <HAL_RCC_OscConfig+0x4e0>)
 8000826:	6d93      	ldr	r3, [r2, #88]	; 0x58
 8000828:	f023 5380 	bic.w	r3, r3, #268435456	; 0x10000000
 800082c:	6593      	str	r3, [r2, #88]	; 0x58
 800082e:	e7dc      	b.n	80007ea <HAL_RCC_OscConfig+0x2f6>
 8000830:	4a68      	ldr	r2, [pc, #416]	; (80009d4 <HAL_RCC_OscConfig+0x4e0>)
 8000832:	f8d2 3098 	ldr.w	r3, [r2, #152]	; 0x98
 8000836:	f023 0301 	bic.w	r3, r3, #1
 800083a:	f8c2 3098 	str.w	r3, [r2, #152]	; 0x98
 800083e:	f7ff fe13 	bl	8000468 <HAL_GetTick>
 8000842:	4605      	mov	r5, r0
 8000844:	4b63      	ldr	r3, [pc, #396]	; (80009d4 <HAL_RCC_OscConfig+0x4e0>)
 8000846:	f8d3 3098 	ldr.w	r3, [r3, #152]	; 0x98
 800084a:	f013 0f02 	tst.w	r3, #2
 800084e:	d006      	beq.n	800085e <HAL_RCC_OscConfig+0x36a>
 8000850:	f7ff fe0a 	bl	8000468 <HAL_GetTick>
 8000854:	1b40      	subs	r0, r0, r5
 8000856:	2802      	cmp	r0, #2
 8000858:	d9f4      	bls.n	8000844 <HAL_RCC_OscConfig+0x350>
 800085a:	2003      	movs	r0, #3
 800085c:	e0aa      	b.n	80009b4 <HAL_RCC_OscConfig+0x4c0>
 800085e:	69e3      	ldr	r3, [r4, #28]
 8000860:	2b00      	cmp	r3, #0
 8000862:	f000 80a6 	beq.w	80009b2 <HAL_RCC_OscConfig+0x4be>
 8000866:	4a5b      	ldr	r2, [pc, #364]	; (80009d4 <HAL_RCC_OscConfig+0x4e0>)
 8000868:	6892      	ldr	r2, [r2, #8]
 800086a:	f002 020c 	and.w	r2, r2, #12
 800086e:	2a0c      	cmp	r2, #12
 8000870:	d069      	beq.n	8000946 <HAL_RCC_OscConfig+0x452>
 8000872:	2b02      	cmp	r3, #2
 8000874:	d01d      	beq.n	80008b2 <HAL_RCC_OscConfig+0x3be>
 8000876:	4b57      	ldr	r3, [pc, #348]	; (80009d4 <HAL_RCC_OscConfig+0x4e0>)
 8000878:	681a      	ldr	r2, [r3, #0]
 800087a:	f022 7280 	bic.w	r2, r2, #16777216	; 0x1000000
 800087e:	601a      	str	r2, [r3, #0]
 8000880:	68da      	ldr	r2, [r3, #12]
 8000882:	f022 0203 	bic.w	r2, r2, #3
 8000886:	60da      	str	r2, [r3, #12]
 8000888:	68da      	ldr	r2, [r3, #12]
 800088a:	f022 7288 	bic.w	r2, r2, #17825792	; 0x1100000
 800088e:	f422 3280 	bic.w	r2, r2, #65536	; 0x10000
 8000892:	60da      	str	r2, [r3, #12]
 8000894:	f7ff fde8 	bl	8000468 <HAL_GetTick>
 8000898:	4604      	mov	r4, r0
 800089a:	4b4e      	ldr	r3, [pc, #312]	; (80009d4 <HAL_RCC_OscConfig+0x4e0>)
 800089c:	681b      	ldr	r3, [r3, #0]
 800089e:	f013 7f00 	tst.w	r3, #33554432	; 0x2000000
 80008a2:	d04e      	beq.n	8000942 <HAL_RCC_OscConfig+0x44e>
 80008a4:	f7ff fde0 	bl	8000468 <HAL_GetTick>
 80008a8:	1b00      	subs	r0, r0, r4
 80008aa:	2802      	cmp	r0, #2
 80008ac:	d9f5      	bls.n	800089a <HAL_RCC_OscConfig+0x3a6>
 80008ae:	2003      	movs	r0, #3
 80008b0:	e080      	b.n	80009b4 <HAL_RCC_OscConfig+0x4c0>
 80008b2:	4a48      	ldr	r2, [pc, #288]	; (80009d4 <HAL_RCC_OscConfig+0x4e0>)
 80008b4:	6813      	ldr	r3, [r2, #0]
 80008b6:	f023 7380 	bic.w	r3, r3, #16777216	; 0x1000000
 80008ba:	6013      	str	r3, [r2, #0]
 80008bc:	f7ff fdd4 	bl	8000468 <HAL_GetTick>
 80008c0:	4605      	mov	r5, r0
 80008c2:	4b44      	ldr	r3, [pc, #272]	; (80009d4 <HAL_RCC_OscConfig+0x4e0>)
 80008c4:	681b      	ldr	r3, [r3, #0]
 80008c6:	f013 7f00 	tst.w	r3, #33554432	; 0x2000000
 80008ca:	d006      	beq.n	80008da <HAL_RCC_OscConfig+0x3e6>
 80008cc:	f7ff fdcc 	bl	8000468 <HAL_GetTick>
 80008d0:	1b40      	subs	r0, r0, r5
 80008d2:	2802      	cmp	r0, #2
 80008d4:	d9f5      	bls.n	80008c2 <HAL_RCC_OscConfig+0x3ce>
 80008d6:	2003      	movs	r0, #3
 80008d8:	e06c      	b.n	80009b4 <HAL_RCC_OscConfig+0x4c0>
 80008da:	4a3e      	ldr	r2, [pc, #248]	; (80009d4 <HAL_RCC_OscConfig+0x4e0>)
 80008dc:	68d3      	ldr	r3, [r2, #12]
 80008de:	493e      	ldr	r1, [pc, #248]	; (80009d8 <HAL_RCC_OscConfig+0x4e4>)
 80008e0:	4019      	ands	r1, r3
 80008e2:	6a23      	ldr	r3, [r4, #32]
 80008e4:	6a60      	ldr	r0, [r4, #36]	; 0x24
 80008e6:	3801      	subs	r0, #1
 80008e8:	ea43 1300 	orr.w	r3, r3, r0, lsl #4
 80008ec:	6aa0      	ldr	r0, [r4, #40]	; 0x28
 80008ee:	ea43 2300 	orr.w	r3, r3, r0, lsl #8
 80008f2:	6b20      	ldr	r0, [r4, #48]	; 0x30
 80008f4:	0840      	lsrs	r0, r0, #1
 80008f6:	3801      	subs	r0, #1
 80008f8:	ea43 5340 	orr.w	r3, r3, r0, lsl #21
 80008fc:	6b60      	ldr	r0, [r4, #52]	; 0x34
 80008fe:	0840      	lsrs	r0, r0, #1
 8000900:	3801      	subs	r0, #1
 8000902:	ea43 6340 	orr.w	r3, r3, r0, lsl #25
 8000906:	6ae0      	ldr	r0, [r4, #44]	; 0x2c
 8000908:	ea43 63c0 	orr.w	r3, r3, r0, lsl #27
 800090c:	430b      	orrs	r3, r1
 800090e:	60d3      	str	r3, [r2, #12]
 8000910:	6813      	ldr	r3, [r2, #0]
 8000912:	f043 7380 	orr.w	r3, r3, #16777216	; 0x1000000
 8000916:	6013      	str	r3, [r2, #0]
 8000918:	68d3      	ldr	r3, [r2, #12]
 800091a:	f043 7380 	orr.w	r3, r3, #16777216	; 0x1000000
 800091e:	60d3      	str	r3, [r2, #12]
 8000920:	f7ff fda2 	bl	8000468 <HAL_GetTick>
 8000924:	4604      	mov	r4, r0
 8000926:	4b2b      	ldr	r3, [pc, #172]	; (80009d4 <HAL_RCC_OscConfig+0x4e0>)
 8000928:	681b      	ldr	r3, [r3, #0]
 800092a:	f013 7f00 	tst.w	r3, #33554432	; 0x2000000
 800092e:	d106      	bne.n	800093e <HAL_RCC_OscConfig+0x44a>
 8000930:	f7ff fd9a 	bl	8000468 <HAL_GetTick>
 8000934:	1b00      	subs	r0, r0, r4
 8000936:	2802      	cmp	r0, #2
 8000938:	d9f5      	bls.n	8000926 <HAL_RCC_OscConfig+0x432>
 800093a:	2003      	movs	r0, #3
 800093c:	e03a      	b.n	80009b4 <HAL_RCC_OscConfig+0x4c0>
 800093e:	2000      	movs	r0, #0
 8000940:	e038      	b.n	80009b4 <HAL_RCC_OscConfig+0x4c0>
 8000942:	2000      	movs	r0, #0
 8000944:	e036      	b.n	80009b4 <HAL_RCC_OscConfig+0x4c0>
 8000946:	2b01      	cmp	r3, #1
 8000948:	d036      	beq.n	80009b8 <HAL_RCC_OscConfig+0x4c4>
 800094a:	4b22      	ldr	r3, [pc, #136]	; (80009d4 <HAL_RCC_OscConfig+0x4e0>)
 800094c:	68db      	ldr	r3, [r3, #12]
 800094e:	f003 0103 	and.w	r1, r3, #3
 8000952:	6a22      	ldr	r2, [r4, #32]
 8000954:	4291      	cmp	r1, r2
 8000956:	d131      	bne.n	80009bc <HAL_RCC_OscConfig+0x4c8>
 8000958:	f003 02f0 	and.w	r2, r3, #240	; 0xf0
 800095c:	6a61      	ldr	r1, [r4, #36]	; 0x24
 800095e:	3901      	subs	r1, #1
 8000960:	ebb2 1f01 	cmp.w	r2, r1, lsl #4
 8000964:	d12c      	bne.n	80009c0 <HAL_RCC_OscConfig+0x4cc>
 8000966:	f403 42fe 	and.w	r2, r3, #32512	; 0x7f00
 800096a:	6aa1      	ldr	r1, [r4, #40]	; 0x28
 800096c:	ebb2 2f01 	cmp.w	r2, r1, lsl #8
 8000970:	d128      	bne.n	80009c4 <HAL_RCC_OscConfig+0x4d0>
 8000972:	f003 4278 	and.w	r2, r3, #4160749568	; 0xf8000000
 8000976:	6ae1      	ldr	r1, [r4, #44]	; 0x2c
 8000978:	ebb2 6fc1 	cmp.w	r2, r1, lsl #27
 800097c:	d124      	bne.n	80009c8 <HAL_RCC_OscConfig+0x4d4>
 800097e:	f403 01c0 	and.w	r1, r3, #6291456	; 0x600000
 8000982:	6b22      	ldr	r2, [r4, #48]	; 0x30
 8000984:	0852      	lsrs	r2, r2, #1
 8000986:	3a01      	subs	r2, #1
 8000988:	ebb1 5f42 	cmp.w	r1, r2, lsl #21
 800098c:	d11e      	bne.n	80009cc <HAL_RCC_OscConfig+0x4d8>
 800098e:	f003 63c0 	and.w	r3, r3, #100663296	; 0x6000000
 8000992:	6b62      	ldr	r2, [r4, #52]	; 0x34
 8000994:	0852      	lsrs	r2, r2, #1
 8000996:	3a01      	subs	r2, #1
 8000998:	ebb3 6f42 	cmp.w	r3, r2, lsl #25
 800099c:	d118      	bne.n	80009d0 <HAL_RCC_OscConfig+0x4dc>
 800099e:	2000      	movs	r0, #0
 80009a0:	e008      	b.n	80009b4 <HAL_RCC_OscConfig+0x4c0>
 80009a2:	2001      	movs	r0, #1
 80009a4:	4770      	bx	lr
 80009a6:	2001      	movs	r0, #1
 80009a8:	e004      	b.n	80009b4 <HAL_RCC_OscConfig+0x4c0>
 80009aa:	2001      	movs	r0, #1
 80009ac:	e002      	b.n	80009b4 <HAL_RCC_OscConfig+0x4c0>
 80009ae:	2001      	movs	r0, #1
 80009b0:	e000      	b.n	80009b4 <HAL_RCC_OscConfig+0x4c0>
 80009b2:	2000      	movs	r0, #0
 80009b4:	b002      	add	sp, #8
 80009b6:	bd70      	pop	{r4, r5, r6, pc}
 80009b8:	2001      	movs	r0, #1
 80009ba:	e7fb      	b.n	80009b4 <HAL_RCC_OscConfig+0x4c0>
 80009bc:	2001      	movs	r0, #1
 80009be:	e7f9      	b.n	80009b4 <HAL_RCC_OscConfig+0x4c0>
 80009c0:	2001      	movs	r0, #1
 80009c2:	e7f7      	b.n	80009b4 <HAL_RCC_OscConfig+0x4c0>
 80009c4:	2001      	movs	r0, #1
 80009c6:	e7f5      	b.n	80009b4 <HAL_RCC_OscConfig+0x4c0>
 80009c8:	2001      	movs	r0, #1
 80009ca:	e7f3      	b.n	80009b4 <HAL_RCC_OscConfig+0x4c0>
 80009cc:	2001      	movs	r0, #1
 80009ce:	e7f1      	b.n	80009b4 <HAL_RCC_OscConfig+0x4c0>
 80009d0:	2001      	movs	r0, #1
 80009d2:	e7ef      	b.n	80009b4 <HAL_RCC_OscConfig+0x4c0>
 80009d4:	40021000 	andmi	r1, r2, r0
 80009d8:	019f800c 	orrseq	r8, pc, ip

080009dc <HAL_RCC_GetSysClockFreq>:
 80009dc:	4b1e      	ldr	r3, [pc, #120]	; (8000a58 <HAL_RCC_GetSysClockFreq+0x7c>)
 80009de:	689b      	ldr	r3, [r3, #8]
 80009e0:	f003 030c 	and.w	r3, r3, #12
 80009e4:	2b04      	cmp	r3, #4
 80009e6:	d033      	beq.n	8000a50 <HAL_RCC_GetSysClockFreq+0x74>
 80009e8:	4b1b      	ldr	r3, [pc, #108]	; (8000a58 <HAL_RCC_GetSysClockFreq+0x7c>)
 80009ea:	689b      	ldr	r3, [r3, #8]
 80009ec:	f003 030c 	and.w	r3, r3, #12
 80009f0:	2b08      	cmp	r3, #8
 80009f2:	d02f      	beq.n	8000a54 <HAL_RCC_GetSysClockFreq+0x78>
 80009f4:	4b18      	ldr	r3, [pc, #96]	; (8000a58 <HAL_RCC_GetSysClockFreq+0x7c>)
 80009f6:	689b      	ldr	r3, [r3, #8]
 80009f8:	f003 030c 	and.w	r3, r3, #12
 80009fc:	2b0c      	cmp	r3, #12
 80009fe:	d001      	beq.n	8000a04 <HAL_RCC_GetSysClockFreq+0x28>
 8000a00:	2000      	movs	r0, #0
 8000a02:	4770      	bx	lr
 8000a04:	4b14      	ldr	r3, [pc, #80]	; (8000a58 <HAL_RCC_GetSysClockFreq+0x7c>)
 8000a06:	68da      	ldr	r2, [r3, #12]
 8000a08:	f002 0203 	and.w	r2, r2, #3
 8000a0c:	68d8      	ldr	r0, [r3, #12]
 8000a0e:	f3c0 1003 	ubfx	r0, r0, #4, #4
 8000a12:	1c43      	adds	r3, r0, #1
 8000a14:	2a03      	cmp	r2, #3
 8000a16:	d011      	beq.n	8000a3c <HAL_RCC_GetSysClockFreq+0x60>
 8000a18:	4810      	ldr	r0, [pc, #64]	; (8000a5c <HAL_RCC_GetSysClockFreq+0x80>)
 8000a1a:	fbb0 f0f3 	udiv	r0, r0, r3
 8000a1e:	4b0e      	ldr	r3, [pc, #56]	; (8000a58 <HAL_RCC_GetSysClockFreq+0x7c>)
 8000a20:	68db      	ldr	r3, [r3, #12]
 8000a22:	f3c3 2306 	ubfx	r3, r3, #8, #7
 8000a26:	fb03 f000 	mul.w	r0, r3, r0
 8000a2a:	4b0b      	ldr	r3, [pc, #44]	; (8000a58 <HAL_RCC_GetSysClockFreq+0x7c>)
 8000a2c:	68db      	ldr	r3, [r3, #12]
 8000a2e:	f3c3 6341 	ubfx	r3, r3, #25, #2
 8000a32:	3301      	adds	r3, #1
 8000a34:	005b      	lsls	r3, r3, #1
 8000a36:	fbb0 f0f3 	udiv	r0, r0, r3
 8000a3a:	4770      	bx	lr
 8000a3c:	4808      	ldr	r0, [pc, #32]	; (8000a60 <HAL_RCC_GetSysClockFreq+0x84>)
 8000a3e:	fbb0 f0f3 	udiv	r0, r0, r3
 8000a42:	4b05      	ldr	r3, [pc, #20]	; (8000a58 <HAL_RCC_GetSysClockFreq+0x7c>)
 8000a44:	68db      	ldr	r3, [r3, #12]
 8000a46:	f3c3 2306 	ubfx	r3, r3, #8, #7
 8000a4a:	fb03 f000 	mul.w	r0, r3, r0
 8000a4e:	e7ec      	b.n	8000a2a <HAL_RCC_GetSysClockFreq+0x4e>
 8000a50:	4802      	ldr	r0, [pc, #8]	; (8000a5c <HAL_RCC_GetSysClockFreq+0x80>)
 8000a52:	4770      	bx	lr
 8000a54:	4802      	ldr	r0, [pc, #8]	; (8000a60 <HAL_RCC_GetSysClockFreq+0x84>)
 8000a56:	4770      	bx	lr
 8000a58:	40021000 	andmi	r1, r2, r0
 8000a5c:	00f42400 	rscseq	r2, r4, r0, lsl #8
 8000a60:	00b71b00 	adcseq	r1, r7, r0, lsl #22

08000a64 <HAL_RCC_ClockConfig>:
 8000a64:	2800      	cmp	r0, #0
 8000a66:	f000 80e6 	beq.w	8000c36 <HAL_RCC_ClockConfig+0x1d2>
 8000a6a:	b5f8      	push	{r3, r4, r5, r6, r7, lr}
 8000a6c:	460c      	mov	r4, r1
 8000a6e:	4605      	mov	r5, r0
 8000a70:	4b74      	ldr	r3, [pc, #464]	; (8000c44 <HAL_RCC_ClockConfig+0x1e0>)
 8000a72:	681b      	ldr	r3, [r3, #0]
 8000a74:	f003 030f 	and.w	r3, r3, #15
 8000a78:	428b      	cmp	r3, r1
 8000a7a:	d20b      	bcs.n	8000a94 <HAL_RCC_ClockConfig+0x30>
 8000a7c:	4a71      	ldr	r2, [pc, #452]	; (8000c44 <HAL_RCC_ClockConfig+0x1e0>)
 8000a7e:	6813      	ldr	r3, [r2, #0]
 8000a80:	f023 030f 	bic.w	r3, r3, #15
 8000a84:	430b      	orrs	r3, r1
 8000a86:	6013      	str	r3, [r2, #0]
 8000a88:	6813      	ldr	r3, [r2, #0]
 8000a8a:	f003 030f 	and.w	r3, r3, #15
 8000a8e:	428b      	cmp	r3, r1
 8000a90:	f040 80d3 	bne.w	8000c3a <HAL_RCC_ClockConfig+0x1d6>
 8000a94:	682e      	ldr	r6, [r5, #0]
 8000a96:	f016 0601 	ands.w	r6, r6, #1
 8000a9a:	d05f      	beq.n	8000b5c <HAL_RCC_ClockConfig+0xf8>
 8000a9c:	686b      	ldr	r3, [r5, #4]
 8000a9e:	2b03      	cmp	r3, #3
 8000aa0:	d02f      	beq.n	8000b02 <HAL_RCC_ClockConfig+0x9e>
 8000aa2:	2b02      	cmp	r3, #2
 8000aa4:	d04d      	beq.n	8000b42 <HAL_RCC_ClockConfig+0xde>
 8000aa6:	4b68      	ldr	r3, [pc, #416]	; (8000c48 <HAL_RCC_ClockConfig+0x1e4>)
 8000aa8:	681b      	ldr	r3, [r3, #0]
 8000aaa:	f413 6f80 	tst.w	r3, #1024	; 0x400
 8000aae:	f000 80c6 	beq.w	8000c3e <HAL_RCC_ClockConfig+0x1da>
 8000ab2:	f7ff ff93 	bl	80009dc <HAL_RCC_GetSysClockFreq>
 8000ab6:	4b65      	ldr	r3, [pc, #404]	; (8000c4c <HAL_RCC_ClockConfig+0x1e8>)
 8000ab8:	4298      	cmp	r0, r3
 8000aba:	d94d      	bls.n	8000b58 <HAL_RCC_ClockConfig+0xf4>
 8000abc:	4a62      	ldr	r2, [pc, #392]	; (8000c48 <HAL_RCC_ClockConfig+0x1e4>)
 8000abe:	6893      	ldr	r3, [r2, #8]
 8000ac0:	f023 03f0 	bic.w	r3, r3, #240	; 0xf0
 8000ac4:	f043 0380 	orr.w	r3, r3, #128	; 0x80
 8000ac8:	6093      	str	r3, [r2, #8]
 8000aca:	2680      	movs	r6, #128	; 0x80
 8000acc:	4a5e      	ldr	r2, [pc, #376]	; (8000c48 <HAL_RCC_ClockConfig+0x1e4>)
 8000ace:	6893      	ldr	r3, [r2, #8]
 8000ad0:	f023 0303 	bic.w	r3, r3, #3
 8000ad4:	6869      	ldr	r1, [r5, #4]
 8000ad6:	430b      	orrs	r3, r1
 8000ad8:	6093      	str	r3, [r2, #8]
 8000ada:	f7ff fcc5 	bl	8000468 <HAL_GetTick>
 8000ade:	4607      	mov	r7, r0
 8000ae0:	4b59      	ldr	r3, [pc, #356]	; (8000c48 <HAL_RCC_ClockConfig+0x1e4>)
 8000ae2:	689b      	ldr	r3, [r3, #8]
 8000ae4:	f003 030c 	and.w	r3, r3, #12
 8000ae8:	686a      	ldr	r2, [r5, #4]
 8000aea:	ebb3 0f82 	cmp.w	r3, r2, lsl #2
 8000aee:	d035      	beq.n	8000b5c <HAL_RCC_ClockConfig+0xf8>
 8000af0:	f7ff fcba 	bl	8000468 <HAL_GetTick>
 8000af4:	1bc0      	subs	r0, r0, r7
 8000af6:	f241 3388 	movw	r3, #5000	; 0x1388
 8000afa:	4298      	cmp	r0, r3
 8000afc:	d9f0      	bls.n	8000ae0 <HAL_RCC_ClockConfig+0x7c>
 8000afe:	2003      	movs	r0, #3
 8000b00:	e078      	b.n	8000bf4 <HAL_RCC_ClockConfig+0x190>
 8000b02:	4b51      	ldr	r3, [pc, #324]	; (8000c48 <HAL_RCC_ClockConfig+0x1e4>)
 8000b04:	681b      	ldr	r3, [r3, #0]
 8000b06:	f013 7f00 	tst.w	r3, #33554432	; 0x2000000
 8000b0a:	d101      	bne.n	8000b10 <HAL_RCC_ClockConfig+0xac>
 8000b0c:	2001      	movs	r0, #1
 8000b0e:	e071      	b.n	8000bf4 <HAL_RCC_ClockConfig+0x190>
 8000b10:	f7ff fcc4 	bl	800049c <RCC_GetSysClockFreqFromPLLSource>
 8000b14:	4b4d      	ldr	r3, [pc, #308]	; (8000c4c <HAL_RCC_ClockConfig+0x1e8>)
 8000b16:	4298      	cmp	r0, r3
 8000b18:	d91a      	bls.n	8000b50 <HAL_RCC_ClockConfig+0xec>
 8000b1a:	4b4b      	ldr	r3, [pc, #300]	; (8000c48 <HAL_RCC_ClockConfig+0x1e4>)
 8000b1c:	689b      	ldr	r3, [r3, #8]
 8000b1e:	f013 0ff0 	tst.w	r3, #240	; 0xf0
 8000b22:	d005      	beq.n	8000b30 <HAL_RCC_ClockConfig+0xcc>
 8000b24:	682e      	ldr	r6, [r5, #0]
 8000b26:	f016 0602 	ands.w	r6, r6, #2
 8000b2a:	d0cf      	beq.n	8000acc <HAL_RCC_ClockConfig+0x68>
 8000b2c:	68ab      	ldr	r3, [r5, #8]
 8000b2e:	b98b      	cbnz	r3, 8000b54 <HAL_RCC_ClockConfig+0xf0>
 8000b30:	4a45      	ldr	r2, [pc, #276]	; (8000c48 <HAL_RCC_ClockConfig+0x1e4>)
 8000b32:	6893      	ldr	r3, [r2, #8]
 8000b34:	f023 03f0 	bic.w	r3, r3, #240	; 0xf0
 8000b38:	f043 0380 	orr.w	r3, r3, #128	; 0x80
 8000b3c:	6093      	str	r3, [r2, #8]
 8000b3e:	2680      	movs	r6, #128	; 0x80
 8000b40:	e7c4      	b.n	8000acc <HAL_RCC_ClockConfig+0x68>
 8000b42:	4b41      	ldr	r3, [pc, #260]	; (8000c48 <HAL_RCC_ClockConfig+0x1e4>)
 8000b44:	681b      	ldr	r3, [r3, #0]
 8000b46:	f413 3f00 	tst.w	r3, #131072	; 0x20000
 8000b4a:	d1b2      	bne.n	8000ab2 <HAL_RCC_ClockConfig+0x4e>
 8000b4c:	2001      	movs	r0, #1
 8000b4e:	e051      	b.n	8000bf4 <HAL_RCC_ClockConfig+0x190>
 8000b50:	2600      	movs	r6, #0
 8000b52:	e7bb      	b.n	8000acc <HAL_RCC_ClockConfig+0x68>
 8000b54:	2600      	movs	r6, #0
 8000b56:	e7b9      	b.n	8000acc <HAL_RCC_ClockConfig+0x68>
 8000b58:	2600      	movs	r6, #0
 8000b5a:	e7b7      	b.n	8000acc <HAL_RCC_ClockConfig+0x68>
 8000b5c:	682b      	ldr	r3, [r5, #0]
 8000b5e:	f013 0f02 	tst.w	r3, #2
 8000b62:	d048      	beq.n	8000bf6 <HAL_RCC_ClockConfig+0x192>
 8000b64:	f013 0f04 	tst.w	r3, #4
 8000b68:	d004      	beq.n	8000b74 <HAL_RCC_ClockConfig+0x110>
 8000b6a:	4a37      	ldr	r2, [pc, #220]	; (8000c48 <HAL_RCC_ClockConfig+0x1e4>)
 8000b6c:	6893      	ldr	r3, [r2, #8]
 8000b6e:	f443 63e0 	orr.w	r3, r3, #1792	; 0x700
 8000b72:	6093      	str	r3, [r2, #8]
 8000b74:	682b      	ldr	r3, [r5, #0]
 8000b76:	f013 0f08 	tst.w	r3, #8
 8000b7a:	d006      	beq.n	8000b8a <HAL_RCC_ClockConfig+0x126>
 8000b7c:	4a32      	ldr	r2, [pc, #200]	; (8000c48 <HAL_RCC_ClockConfig+0x1e4>)
 8000b7e:	6893      	ldr	r3, [r2, #8]
 8000b80:	f423 537c 	bic.w	r3, r3, #16128	; 0x3f00
 8000b84:	f443 63e0 	orr.w	r3, r3, #1792	; 0x700
 8000b88:	6093      	str	r3, [r2, #8]
 8000b8a:	4a2f      	ldr	r2, [pc, #188]	; (8000c48 <HAL_RCC_ClockConfig+0x1e4>)
 8000b8c:	6893      	ldr	r3, [r2, #8]
 8000b8e:	f023 03f0 	bic.w	r3, r3, #240	; 0xf0
 8000b92:	68a9      	ldr	r1, [r5, #8]
 8000b94:	430b      	orrs	r3, r1
 8000b96:	6093      	str	r3, [r2, #8]
 8000b98:	4b2a      	ldr	r3, [pc, #168]	; (8000c44 <HAL_RCC_ClockConfig+0x1e0>)
 8000b9a:	681b      	ldr	r3, [r3, #0]
 8000b9c:	f003 030f 	and.w	r3, r3, #15
 8000ba0:	42a3      	cmp	r3, r4
 8000ba2:	d830      	bhi.n	8000c06 <HAL_RCC_ClockConfig+0x1a2>
 8000ba4:	682b      	ldr	r3, [r5, #0]
 8000ba6:	f013 0f04 	tst.w	r3, #4
 8000baa:	d006      	beq.n	8000bba <HAL_RCC_ClockConfig+0x156>
 8000bac:	4a26      	ldr	r2, [pc, #152]	; (8000c48 <HAL_RCC_ClockConfig+0x1e4>)
 8000bae:	6893      	ldr	r3, [r2, #8]
 8000bb0:	f423 63e0 	bic.w	r3, r3, #1792	; 0x700
 8000bb4:	68e9      	ldr	r1, [r5, #12]
 8000bb6:	430b      	orrs	r3, r1
 8000bb8:	6093      	str	r3, [r2, #8]
 8000bba:	682b      	ldr	r3, [r5, #0]
 8000bbc:	f013 0f08 	tst.w	r3, #8
 8000bc0:	d007      	beq.n	8000bd2 <HAL_RCC_ClockConfig+0x16e>
 8000bc2:	4a21      	ldr	r2, [pc, #132]	; (8000c48 <HAL_RCC_ClockConfig+0x1e4>)
 8000bc4:	6893      	ldr	r3, [r2, #8]
 8000bc6:	f423 5360 	bic.w	r3, r3, #14336	; 0x3800
 8000bca:	6929      	ldr	r1, [r5, #16]
 8000bcc:	ea43 03c1 	orr.w	r3, r3, r1, lsl #3
 8000bd0:	6093      	str	r3, [r2, #8]
 8000bd2:	f7ff ff03 	bl	80009dc <HAL_RCC_GetSysClockFreq>
 8000bd6:	4b1c      	ldr	r3, [pc, #112]	; (8000c48 <HAL_RCC_ClockConfig+0x1e4>)
 8000bd8:	689b      	ldr	r3, [r3, #8]
 8000bda:	f3c3 1303 	ubfx	r3, r3, #4, #4
 8000bde:	4a1c      	ldr	r2, [pc, #112]	; (8000c50 <HAL_RCC_ClockConfig+0x1ec>)
 8000be0:	5cd3      	ldrb	r3, [r2, r3]
 8000be2:	f003 031f 	and.w	r3, r3, #31
 8000be6:	40d8      	lsrs	r0, r3
 8000be8:	4b1a      	ldr	r3, [pc, #104]	; (8000c54 <HAL_RCC_ClockConfig+0x1f0>)
 8000bea:	6018      	str	r0, [r3, #0]
 8000bec:	4b1a      	ldr	r3, [pc, #104]	; (8000c58 <HAL_RCC_ClockConfig+0x1f4>)
 8000bee:	6818      	ldr	r0, [r3, #0]
 8000bf0:	f7ff fbf6 	bl	80003e0 <HAL_InitTick>
 8000bf4:	bdf8      	pop	{r3, r4, r5, r6, r7, pc}
 8000bf6:	2e80      	cmp	r6, #128	; 0x80
 8000bf8:	d1ce      	bne.n	8000b98 <HAL_RCC_ClockConfig+0x134>
 8000bfa:	4a13      	ldr	r2, [pc, #76]	; (8000c48 <HAL_RCC_ClockConfig+0x1e4>)
 8000bfc:	6893      	ldr	r3, [r2, #8]
 8000bfe:	f023 03f0 	bic.w	r3, r3, #240	; 0xf0
 8000c02:	6093      	str	r3, [r2, #8]
 8000c04:	e7c8      	b.n	8000b98 <HAL_RCC_ClockConfig+0x134>
 8000c06:	4a0f      	ldr	r2, [pc, #60]	; (8000c44 <HAL_RCC_ClockConfig+0x1e0>)
 8000c08:	6813      	ldr	r3, [r2, #0]
 8000c0a:	f023 030f 	bic.w	r3, r3, #15
 8000c0e:	4323      	orrs	r3, r4
 8000c10:	6013      	str	r3, [r2, #0]
 8000c12:	f7ff fc29 	bl	8000468 <HAL_GetTick>
 8000c16:	4606      	mov	r6, r0
 8000c18:	4b0a      	ldr	r3, [pc, #40]	; (8000c44 <HAL_RCC_ClockConfig+0x1e0>)
 8000c1a:	681b      	ldr	r3, [r3, #0]
 8000c1c:	f003 030f 	and.w	r3, r3, #15
 8000c20:	42a3      	cmp	r3, r4
 8000c22:	d0bf      	beq.n	8000ba4 <HAL_RCC_ClockConfig+0x140>
 8000c24:	f7ff fc20 	bl	8000468 <HAL_GetTick>
 8000c28:	1b80      	subs	r0, r0, r6
 8000c2a:	f241 3388 	movw	r3, #5000	; 0x1388
 8000c2e:	4298      	cmp	r0, r3
 8000c30:	d9f2      	bls.n	8000c18 <HAL_RCC_ClockConfig+0x1b4>
 8000c32:	2003      	movs	r0, #3
 8000c34:	e7de      	b.n	8000bf4 <HAL_RCC_ClockConfig+0x190>
 8000c36:	2001      	movs	r0, #1
 8000c38:	4770      	bx	lr
 8000c3a:	2001      	movs	r0, #1
 8000c3c:	e7da      	b.n	8000bf4 <HAL_RCC_ClockConfig+0x190>
 8000c3e:	2001      	movs	r0, #1
 8000c40:	e7d8      	b.n	8000bf4 <HAL_RCC_ClockConfig+0x190>
 8000c42:	bf00      	nop
 8000c44:	40022000 	andmi	r2, r2, r0
 8000c48:	40021000 	andmi	r1, r2, r0
 8000c4c:	04c4b400 	strbeq	fp, [r4], #1024	; 0x400
 8000c50:	080010e8 	stmdaeq	r0, {r3, r5, r6, r7, ip}
 8000c54:	20000000 	andcs	r0, r0, r0
 8000c58:	20000008 	andcs	r0, r0, r8

08000c5c <HAL_GPIO_Init>:
 8000c5c:	b5f0      	push	{r4, r5, r6, r7, lr}
 8000c5e:	b083      	sub	sp, #12
 8000c60:	2300      	movs	r3, #0
 8000c62:	e062      	b.n	8000d2a <HAL_GPIO_Init+0xce>
 8000c64:	6885      	ldr	r5, [r0, #8]
 8000c66:	005e      	lsls	r6, r3, #1
 8000c68:	2403      	movs	r4, #3
 8000c6a:	40b4      	lsls	r4, r6
 8000c6c:	ea25 0504 	bic.w	r5, r5, r4
 8000c70:	68cc      	ldr	r4, [r1, #12]
 8000c72:	40b4      	lsls	r4, r6
 8000c74:	432c      	orrs	r4, r5
 8000c76:	6084      	str	r4, [r0, #8]
 8000c78:	6844      	ldr	r4, [r0, #4]
 8000c7a:	ea24 0c0c 	bic.w	ip, r4, ip
 8000c7e:	684c      	ldr	r4, [r1, #4]
 8000c80:	f3c4 1400 	ubfx	r4, r4, #4, #1
 8000c84:	409c      	lsls	r4, r3
 8000c86:	ea44 040c 	orr.w	r4, r4, ip
 8000c8a:	6044      	str	r4, [r0, #4]
 8000c8c:	e05e      	b.n	8000d4c <HAL_GPIO_Init+0xf0>
 8000c8e:	08dd      	lsrs	r5, r3, #3
 8000c90:	3508      	adds	r5, #8
 8000c92:	f850 6025 	ldr.w	r6, [r0, r5, lsl #2]
 8000c96:	f003 0407 	and.w	r4, r3, #7
 8000c9a:	ea4f 0c84 	mov.w	ip, r4, lsl #2
 8000c9e:	240f      	movs	r4, #15
 8000ca0:	fa04 f40c 	lsl.w	r4, r4, ip
 8000ca4:	ea26 0e04 	bic.w	lr, r6, r4
 8000ca8:	690c      	ldr	r4, [r1, #16]
 8000caa:	fa04 f40c 	lsl.w	r4, r4, ip
 8000cae:	ea44 040e 	orr.w	r4, r4, lr
 8000cb2:	f840 4025 	str.w	r4, [r0, r5, lsl #2]
 8000cb6:	e060      	b.n	8000d7a <HAL_GPIO_Init+0x11e>
 8000cb8:	2405      	movs	r4, #5
 8000cba:	e000      	b.n	8000cbe <HAL_GPIO_Init+0x62>
 8000cbc:	2400      	movs	r4, #0
 8000cbe:	fa04 f40e 	lsl.w	r4, r4, lr
 8000cc2:	432c      	orrs	r4, r5
 8000cc4:	f10c 0c02 	add.w	ip, ip, #2
 8000cc8:	4d55      	ldr	r5, [pc, #340]	; (8000e20 <HAL_GPIO_Init+0x1c4>)
 8000cca:	f845 402c 	str.w	r4, [r5, ip, lsl #2]
 8000cce:	4c55      	ldr	r4, [pc, #340]	; (8000e24 <HAL_GPIO_Init+0x1c8>)
 8000cd0:	68a5      	ldr	r5, [r4, #8]
 8000cd2:	43d4      	mvns	r4, r2
 8000cd4:	ea25 0602 	bic.w	r6, r5, r2
 8000cd8:	684f      	ldr	r7, [r1, #4]
 8000cda:	f417 1f80 	tst.w	r7, #1048576	; 0x100000
 8000cde:	d001      	beq.n	8000ce4 <HAL_GPIO_Init+0x88>
 8000ce0:	ea42 0605 	orr.w	r6, r2, r5
 8000ce4:	4d4f      	ldr	r5, [pc, #316]	; (8000e24 <HAL_GPIO_Init+0x1c8>)
 8000ce6:	60ae      	str	r6, [r5, #8]
 8000ce8:	68ed      	ldr	r5, [r5, #12]
 8000cea:	ea04 0605 	and.w	r6, r4, r5
 8000cee:	684f      	ldr	r7, [r1, #4]
 8000cf0:	f417 1f00 	tst.w	r7, #2097152	; 0x200000
 8000cf4:	d001      	beq.n	8000cfa <HAL_GPIO_Init+0x9e>
 8000cf6:	ea42 0605 	orr.w	r6, r2, r5
 8000cfa:	4d4a      	ldr	r5, [pc, #296]	; (8000e24 <HAL_GPIO_Init+0x1c8>)
 8000cfc:	60ee      	str	r6, [r5, #12]
 8000cfe:	686d      	ldr	r5, [r5, #4]
 8000d00:	ea04 0605 	and.w	r6, r4, r5
 8000d04:	684f      	ldr	r7, [r1, #4]
 8000d06:	f417 3f00 	tst.w	r7, #131072	; 0x20000
 8000d0a:	d001      	beq.n	8000d10 <HAL_GPIO_Init+0xb4>
 8000d0c:	ea42 0605 	orr.w	r6, r2, r5
 8000d10:	4d44      	ldr	r5, [pc, #272]	; (8000e24 <HAL_GPIO_Init+0x1c8>)
 8000d12:	606e      	str	r6, [r5, #4]
 8000d14:	682d      	ldr	r5, [r5, #0]
 8000d16:	402c      	ands	r4, r5
 8000d18:	684e      	ldr	r6, [r1, #4]
 8000d1a:	f416 3f80 	tst.w	r6, #65536	; 0x10000
 8000d1e:	d001      	beq.n	8000d24 <HAL_GPIO_Init+0xc8>
 8000d20:	ea42 0405 	orr.w	r4, r2, r5
 8000d24:	4a3f      	ldr	r2, [pc, #252]	; (8000e24 <HAL_GPIO_Init+0x1c8>)
 8000d26:	6014      	str	r4, [r2, #0]
 8000d28:	3301      	adds	r3, #1
 8000d2a:	680a      	ldr	r2, [r1, #0]
 8000d2c:	fa32 f403 	lsrs.w	r4, r2, r3
 8000d30:	d074      	beq.n	8000e1c <HAL_GPIO_Init+0x1c0>
 8000d32:	f04f 0c01 	mov.w	ip, #1
 8000d36:	fa0c fc03 	lsl.w	ip, ip, r3
 8000d3a:	ea1c 0202 	ands.w	r2, ip, r2
 8000d3e:	d0f3      	beq.n	8000d28 <HAL_GPIO_Init+0xcc>
 8000d40:	684c      	ldr	r4, [r1, #4]
 8000d42:	f004 0403 	and.w	r4, r4, #3
 8000d46:	3c01      	subs	r4, #1
 8000d48:	2c01      	cmp	r4, #1
 8000d4a:	d98b      	bls.n	8000c64 <HAL_GPIO_Init+0x8>
 8000d4c:	684c      	ldr	r4, [r1, #4]
 8000d4e:	f004 0403 	and.w	r4, r4, #3
 8000d52:	2c03      	cmp	r4, #3
 8000d54:	d00c      	beq.n	8000d70 <HAL_GPIO_Init+0x114>
 8000d56:	68c4      	ldr	r4, [r0, #12]
 8000d58:	005d      	lsls	r5, r3, #1
 8000d5a:	f04f 0c03 	mov.w	ip, #3
 8000d5e:	fa0c fc05 	lsl.w	ip, ip, r5
 8000d62:	ea24 0c0c 	bic.w	ip, r4, ip
 8000d66:	688c      	ldr	r4, [r1, #8]
 8000d68:	40ac      	lsls	r4, r5
 8000d6a:	ea44 040c 	orr.w	r4, r4, ip
 8000d6e:	60c4      	str	r4, [r0, #12]
 8000d70:	684c      	ldr	r4, [r1, #4]
 8000d72:	f004 0403 	and.w	r4, r4, #3
 8000d76:	2c02      	cmp	r4, #2
 8000d78:	d089      	beq.n	8000c8e <HAL_GPIO_Init+0x32>
 8000d7a:	6804      	ldr	r4, [r0, #0]
 8000d7c:	ea4f 0e43 	mov.w	lr, r3, lsl #1
 8000d80:	f04f 0c03 	mov.w	ip, #3
 8000d84:	fa0c fc0e 	lsl.w	ip, ip, lr
 8000d88:	ea24 0c0c 	bic.w	ip, r4, ip
 8000d8c:	684c      	ldr	r4, [r1, #4]
 8000d8e:	f004 0403 	and.w	r4, r4, #3
 8000d92:	fa04 f40e 	lsl.w	r4, r4, lr
 8000d96:	ea44 040c 	orr.w	r4, r4, ip
 8000d9a:	6004      	str	r4, [r0, #0]
 8000d9c:	684c      	ldr	r4, [r1, #4]
 8000d9e:	f414 3f40 	tst.w	r4, #196608	; 0x30000
 8000da2:	d0c1      	beq.n	8000d28 <HAL_GPIO_Init+0xcc>
 8000da4:	4c20      	ldr	r4, [pc, #128]	; (8000e28 <HAL_GPIO_Init+0x1cc>)
 8000da6:	6e25      	ldr	r5, [r4, #96]	; 0x60
 8000da8:	f045 0501 	orr.w	r5, r5, #1
 8000dac:	6625      	str	r5, [r4, #96]	; 0x60
 8000dae:	6e24      	ldr	r4, [r4, #96]	; 0x60
 8000db0:	f004 0401 	and.w	r4, r4, #1
 8000db4:	9401      	str	r4, [sp, #4]
 8000db6:	9c01      	ldr	r4, [sp, #4]
 8000db8:	ea4f 0c93 	mov.w	ip, r3, lsr #2
 8000dbc:	f10c 0502 	add.w	r5, ip, #2
 8000dc0:	4c17      	ldr	r4, [pc, #92]	; (8000e20 <HAL_GPIO_Init+0x1c4>)
 8000dc2:	f854 5025 	ldr.w	r5, [r4, r5, lsl #2]
 8000dc6:	f003 0403 	and.w	r4, r3, #3
 8000dca:	ea4f 0e84 	mov.w	lr, r4, lsl #2
 8000dce:	240f      	movs	r4, #15
 8000dd0:	fa04 f40e 	lsl.w	r4, r4, lr
 8000dd4:	ea25 0504 	bic.w	r5, r5, r4
 8000dd8:	f1b0 4f90 	cmp.w	r0, #1207959552	; 0x48000000
 8000ddc:	f43f af6e 	beq.w	8000cbc <HAL_GPIO_Init+0x60>
 8000de0:	4c12      	ldr	r4, [pc, #72]	; (8000e2c <HAL_GPIO_Init+0x1d0>)
 8000de2:	42a0      	cmp	r0, r4
 8000de4:	d012      	beq.n	8000e0c <HAL_GPIO_Init+0x1b0>
 8000de6:	f504 6480 	add.w	r4, r4, #1024	; 0x400
 8000dea:	42a0      	cmp	r0, r4
 8000dec:	d010      	beq.n	8000e10 <HAL_GPIO_Init+0x1b4>
 8000dee:	f504 6480 	add.w	r4, r4, #1024	; 0x400
 8000df2:	42a0      	cmp	r0, r4
 8000df4:	d00e      	beq.n	8000e14 <HAL_GPIO_Init+0x1b8>
 8000df6:	f504 6480 	add.w	r4, r4, #1024	; 0x400
 8000dfa:	42a0      	cmp	r0, r4
 8000dfc:	d00c      	beq.n	8000e18 <HAL_GPIO_Init+0x1bc>
 8000dfe:	f504 6480 	add.w	r4, r4, #1024	; 0x400
 8000e02:	42a0      	cmp	r0, r4
 8000e04:	f43f af58 	beq.w	8000cb8 <HAL_GPIO_Init+0x5c>
 8000e08:	2406      	movs	r4, #6
 8000e0a:	e758      	b.n	8000cbe <HAL_GPIO_Init+0x62>
 8000e0c:	2401      	movs	r4, #1
 8000e0e:	e756      	b.n	8000cbe <HAL_GPIO_Init+0x62>
 8000e10:	2402      	movs	r4, #2
 8000e12:	e754      	b.n	8000cbe <HAL_GPIO_Init+0x62>
 8000e14:	2403      	movs	r4, #3
 8000e16:	e752      	b.n	8000cbe <HAL_GPIO_Init+0x62>
 8000e18:	2404      	movs	r4, #4
 8000e1a:	e750      	b.n	8000cbe <HAL_GPIO_Init+0x62>
 8000e1c:	b003      	add	sp, #12
 8000e1e:	bdf0      	pop	{r4, r5, r6, r7, pc}
 8000e20:	40010000 	andmi	r0, r1, r0
 8000e24:	40010400 	andmi	r0, r1, r0, lsl #8
 8000e28:	40021000 	andmi	r1, r2, r0
 8000e2c:	48000400 	stmdami	r0, {sl}

08000e30 <HAL_GPIO_WritePin>:
 8000e30:	b10a      	cbz	r2, 8000e36 <HAL_GPIO_WritePin+0x6>
 8000e32:	6181      	str	r1, [r0, #24]
 8000e34:	4770      	bx	lr
 8000e36:	6281      	str	r1, [r0, #40]	; 0x28
 8000e38:	4770      	bx	lr

08000e3a <HAL_GPIO_TogglePin>:
 8000e3a:	6943      	ldr	r3, [r0, #20]
 8000e3c:	ea01 0203 	and.w	r2, r1, r3
 8000e40:	ea21 0103 	bic.w	r1, r1, r3
 8000e44:	ea41 4102 	orr.w	r1, r1, r2, lsl #16
 8000e48:	6181      	str	r1, [r0, #24]
 8000e4a:	4770      	bx	lr

08000e4c <HAL_PWREx_ControlVoltageScaling>:
 8000e4c:	2800      	cmp	r0, #0
 8000e4e:	d136      	bne.n	8000ebe <HAL_PWREx_ControlVoltageScaling+0x72>
 8000e50:	4b3e      	ldr	r3, [pc, #248]	; (8000f4c <HAL_PWREx_ControlVoltageScaling+0x100>)
 8000e52:	681b      	ldr	r3, [r3, #0]
 8000e54:	f403 63c0 	and.w	r3, r3, #1536	; 0x600
 8000e58:	f5b3 6f80 	cmp.w	r3, #1024	; 0x400
 8000e5c:	d008      	beq.n	8000e70 <HAL_PWREx_ControlVoltageScaling+0x24>
 8000e5e:	4a3b      	ldr	r2, [pc, #236]	; (8000f4c <HAL_PWREx_ControlVoltageScaling+0x100>)
 8000e60:	f8d2 3080 	ldr.w	r3, [r2, #128]	; 0x80
 8000e64:	f423 7380 	bic.w	r3, r3, #256	; 0x100
 8000e68:	f8c2 3080 	str.w	r3, [r2, #128]	; 0x80
 8000e6c:	2000      	movs	r0, #0
 8000e6e:	4770      	bx	lr
 8000e70:	4a36      	ldr	r2, [pc, #216]	; (8000f4c <HAL_PWREx_ControlVoltageScaling+0x100>)
 8000e72:	f8d2 3080 	ldr.w	r3, [r2, #128]	; 0x80
 8000e76:	f423 7380 	bic.w	r3, r3, #256	; 0x100
 8000e7a:	f8c2 3080 	str.w	r3, [r2, #128]	; 0x80
 8000e7e:	6813      	ldr	r3, [r2, #0]
 8000e80:	f423 63c0 	bic.w	r3, r3, #1536	; 0x600
 8000e84:	f443 7300 	orr.w	r3, r3, #512	; 0x200
 8000e88:	6013      	str	r3, [r2, #0]
 8000e8a:	4b31      	ldr	r3, [pc, #196]	; (8000f50 <HAL_PWREx_ControlVoltageScaling+0x104>)
 8000e8c:	681b      	ldr	r3, [r3, #0]
 8000e8e:	2232      	movs	r2, #50	; 0x32
 8000e90:	fb02 f303 	mul.w	r3, r2, r3
 8000e94:	4a2f      	ldr	r2, [pc, #188]	; (8000f54 <HAL_PWREx_ControlVoltageScaling+0x108>)
 8000e96:	fba2 2303 	umull	r2, r3, r2, r3
 8000e9a:	0c9b      	lsrs	r3, r3, #18
 8000e9c:	3301      	adds	r3, #1
 8000e9e:	e000      	b.n	8000ea2 <HAL_PWREx_ControlVoltageScaling+0x56>
 8000ea0:	3b01      	subs	r3, #1
 8000ea2:	4a2a      	ldr	r2, [pc, #168]	; (8000f4c <HAL_PWREx_ControlVoltageScaling+0x100>)
 8000ea4:	6952      	ldr	r2, [r2, #20]
 8000ea6:	f412 6f80 	tst.w	r2, #1024	; 0x400
 8000eaa:	d001      	beq.n	8000eb0 <HAL_PWREx_ControlVoltageScaling+0x64>
 8000eac:	2b00      	cmp	r3, #0
 8000eae:	d1f7      	bne.n	8000ea0 <HAL_PWREx_ControlVoltageScaling+0x54>
 8000eb0:	4b26      	ldr	r3, [pc, #152]	; (8000f4c <HAL_PWREx_ControlVoltageScaling+0x100>)
 8000eb2:	695b      	ldr	r3, [r3, #20]
 8000eb4:	f413 6f80 	tst.w	r3, #1024	; 0x400
 8000eb8:	d144      	bne.n	8000f44 <HAL_PWREx_ControlVoltageScaling+0xf8>
 8000eba:	2000      	movs	r0, #0
 8000ebc:	4770      	bx	lr
 8000ebe:	f5b0 7f00 	cmp.w	r0, #512	; 0x200
 8000ec2:	d008      	beq.n	8000ed6 <HAL_PWREx_ControlVoltageScaling+0x8a>
 8000ec4:	4a21      	ldr	r2, [pc, #132]	; (8000f4c <HAL_PWREx_ControlVoltageScaling+0x100>)
 8000ec6:	6813      	ldr	r3, [r2, #0]
 8000ec8:	f423 63c0 	bic.w	r3, r3, #1536	; 0x600
 8000ecc:	f443 6380 	orr.w	r3, r3, #1024	; 0x400
 8000ed0:	6013      	str	r3, [r2, #0]
 8000ed2:	2000      	movs	r0, #0
 8000ed4:	4770      	bx	lr
 8000ed6:	4b1d      	ldr	r3, [pc, #116]	; (8000f4c <HAL_PWREx_ControlVoltageScaling+0x100>)
 8000ed8:	681b      	ldr	r3, [r3, #0]
 8000eda:	f403 63c0 	and.w	r3, r3, #1536	; 0x600
 8000ede:	f5b3 6f80 	cmp.w	r3, #1024	; 0x400
 8000ee2:	d008      	beq.n	8000ef6 <HAL_PWREx_ControlVoltageScaling+0xaa>
 8000ee4:	4a19      	ldr	r2, [pc, #100]	; (8000f4c <HAL_PWREx_ControlVoltageScaling+0x100>)
 8000ee6:	f8d2 3080 	ldr.w	r3, [r2, #128]	; 0x80
 8000eea:	f443 7380 	orr.w	r3, r3, #256	; 0x100
 8000eee:	f8c2 3080 	str.w	r3, [r2, #128]	; 0x80
 8000ef2:	2000      	movs	r0, #0
 8000ef4:	4770      	bx	lr
 8000ef6:	4a15      	ldr	r2, [pc, #84]	; (8000f4c <HAL_PWREx_ControlVoltageScaling+0x100>)
 8000ef8:	f8d2 3080 	ldr.w	r3, [r2, #128]	; 0x80
 8000efc:	f443 7380 	orr.w	r3, r3, #256	; 0x100
 8000f00:	f8c2 3080 	str.w	r3, [r2, #128]	; 0x80
 8000f04:	6813      	ldr	r3, [r2, #0]
 8000f06:	f423 63c0 	bic.w	r3, r3, #1536	; 0x600
 8000f0a:	f443 7300 	orr.w	r3, r3, #512	; 0x200
 8000f0e:	6013      	str	r3, [r2, #0]
 8000f10:	4b0f      	ldr	r3, [pc, #60]	; (8000f50 <HAL_PWREx_ControlVoltageScaling+0x104>)
 8000f12:	681b      	ldr	r3, [r3, #0]
 8000f14:	2232      	movs	r2, #50	; 0x32
 8000f16:	fb02 f303 	mul.w	r3, r2, r3
 8000f1a:	4a0e      	ldr	r2, [pc, #56]	; (8000f54 <HAL_PWREx_ControlVoltageScaling+0x108>)
 8000f1c:	fba2 2303 	umull	r2, r3, r2, r3
 8000f20:	0c9b      	lsrs	r3, r3, #18
 8000f22:	3301      	adds	r3, #1
 8000f24:	e000      	b.n	8000f28 <HAL_PWREx_ControlVoltageScaling+0xdc>
 8000f26:	3b01      	subs	r3, #1
 8000f28:	4a08      	ldr	r2, [pc, #32]	; (8000f4c <HAL_PWREx_ControlVoltageScaling+0x100>)
 8000f2a:	6952      	ldr	r2, [r2, #20]
 8000f2c:	f412 6f80 	tst.w	r2, #1024	; 0x400
 8000f30:	d001      	beq.n	8000f36 <HAL_PWREx_ControlVoltageScaling+0xea>
 8000f32:	2b00      	cmp	r3, #0
 8000f34:	d1f7      	bne.n	8000f26 <HAL_PWREx_ControlVoltageScaling+0xda>
 8000f36:	4b05      	ldr	r3, [pc, #20]	; (8000f4c <HAL_PWREx_ControlVoltageScaling+0x100>)
 8000f38:	695b      	ldr	r3, [r3, #20]
 8000f3a:	f413 6f80 	tst.w	r3, #1024	; 0x400
 8000f3e:	d103      	bne.n	8000f48 <HAL_PWREx_ControlVoltageScaling+0xfc>
 8000f40:	2000      	movs	r0, #0
 8000f42:	4770      	bx	lr
 8000f44:	2003      	movs	r0, #3
 8000f46:	4770      	bx	lr
 8000f48:	2003      	movs	r0, #3
 8000f4a:	4770      	bx	lr
 8000f4c:	40007000 	andmi	r7, r0, r0
 8000f50:	20000000 	andcs	r0, r0, r0
 8000f54:	431bde83 	tstmi	fp, #2096	; 0x830

08000f58 <HAL_PWREx_DisableUCPDDeadBattery>:
 8000f58:	4a02      	ldr	r2, [pc, #8]	; (8000f64 <HAL_PWREx_DisableUCPDDeadBattery+0xc>)
 8000f5a:	6893      	ldr	r3, [r2, #8]
 8000f5c:	f443 4380 	orr.w	r3, r3, #16384	; 0x4000
 8000f60:	6093      	str	r3, [r2, #8]
 8000f62:	4770      	bx	lr
 8000f64:	40007000 	andmi	r7, r0, r0

08000f68 <HAL_NVIC_SetPriorityGrouping>:
 8000f68:	4a07      	ldr	r2, [pc, #28]	; (8000f88 <HAL_NVIC_SetPriorityGrouping+0x20>)
 8000f6a:	68d3      	ldr	r3, [r2, #12]
 8000f6c:	f423 63e0 	bic.w	r3, r3, #1792	; 0x700
 8000f70:	041b      	lsls	r3, r3, #16
 8000f72:	0c1b      	lsrs	r3, r3, #16
 8000f74:	0200      	lsls	r0, r0, #8
 8000f76:	f400 60e0 	and.w	r0, r0, #1792	; 0x700
 8000f7a:	4303      	orrs	r3, r0
 8000f7c:	f043 63bf 	orr.w	r3, r3, #100139008	; 0x5f80000
 8000f80:	f443 3300 	orr.w	r3, r3, #131072	; 0x20000
 8000f84:	60d3      	str	r3, [r2, #12]
 8000f86:	4770      	bx	lr
 8000f88:	e000ed00 	and	lr, r0, r0, lsl #26

08000f8c <HAL_NVIC_SetPriority>:
 8000f8c:	b500      	push	{lr}
 8000f8e:	4b19      	ldr	r3, [pc, #100]	; (8000ff4 <HAL_NVIC_SetPriority+0x68>)
 8000f90:	68db      	ldr	r3, [r3, #12]
 8000f92:	f3c3 2302 	ubfx	r3, r3, #8, #3
 8000f96:	f1c3 0c07 	rsb	ip, r3, #7
 8000f9a:	f1bc 0f04 	cmp.w	ip, #4
 8000f9e:	bf28      	it	cs
 8000fa0:	f04f 0c04 	movcs.w	ip, #4
 8000fa4:	f103 0e04 	add.w	lr, r3, #4
 8000fa8:	f1be 0f06 	cmp.w	lr, #6
 8000fac:	d918      	bls.n	8000fe0 <HAL_NVIC_SetPriority+0x54>
 8000fae:	3b03      	subs	r3, #3
 8000fb0:	f04f 3eff 	mov.w	lr, #4294967295
 8000fb4:	fa0e fc0c 	lsl.w	ip, lr, ip
 8000fb8:	ea21 010c 	bic.w	r1, r1, ip
 8000fbc:	4099      	lsls	r1, r3
 8000fbe:	fa0e f303 	lsl.w	r3, lr, r3
 8000fc2:	ea22 0303 	bic.w	r3, r2, r3
 8000fc6:	4319      	orrs	r1, r3
 8000fc8:	2800      	cmp	r0, #0
 8000fca:	db0b      	blt.n	8000fe4 <HAL_NVIC_SetPriority+0x58>
 8000fcc:	0109      	lsls	r1, r1, #4
 8000fce:	b2c9      	uxtb	r1, r1
 8000fd0:	f100 4060 	add.w	r0, r0, #3758096384	; 0xe0000000
 8000fd4:	f500 4061 	add.w	r0, r0, #57600	; 0xe100
 8000fd8:	f880 1300 	strb.w	r1, [r0, #768]	; 0x300
 8000fdc:	f85d fb04 	ldr.w	pc, [sp], #4
 8000fe0:	2300      	movs	r3, #0
 8000fe2:	e7e5      	b.n	8000fb0 <HAL_NVIC_SetPriority+0x24>
 8000fe4:	f000 000f 	and.w	r0, r0, #15
 8000fe8:	0109      	lsls	r1, r1, #4
 8000fea:	b2c9      	uxtb	r1, r1
 8000fec:	4b02      	ldr	r3, [pc, #8]	; (8000ff8 <HAL_NVIC_SetPriority+0x6c>)
 8000fee:	5419      	strb	r1, [r3, r0]
 8000ff0:	e7f4      	b.n	8000fdc <HAL_NVIC_SetPriority+0x50>
 8000ff2:	bf00      	nop
 8000ff4:	e000ed00 	and	lr, r0, r0, lsl #26
 8000ff8:	e000ed14 	and	lr, r0, r4, lsl sp

08000ffc <HAL_SYSTICK_Config>:
 8000ffc:	3801      	subs	r0, #1
 8000ffe:	f1b0 7f80 	cmp.w	r0, #16777216	; 0x1000000
 8001002:	d20b      	bcs.n	800101c <HAL_SYSTICK_Config+0x20>
 8001004:	f04f 23e0 	mov.w	r3, #3758153728	; 0xe000e000
 8001008:	6158      	str	r0, [r3, #20]
 800100a:	4a05      	ldr	r2, [pc, #20]	; (8001020 <HAL_SYSTICK_Config+0x24>)
 800100c:	21f0      	movs	r1, #240	; 0xf0
 800100e:	f882 1023 	strb.w	r1, [r2, #35]	; 0x23
 8001012:	2000      	movs	r0, #0
 8001014:	6198      	str	r0, [r3, #24]
 8001016:	2207      	movs	r2, #7
 8001018:	611a      	str	r2, [r3, #16]
 800101a:	4770      	bx	lr
 800101c:	2001      	movs	r0, #1
 800101e:	4770      	bx	lr
 8001020:	e000ed00 	and	lr, r0, r0, lsl #26

08001024 <Reset_Handler>:
 8001024:	480d      	ldr	r0, [pc, #52]	; (800105c <LoopForever+0x2>)
 8001026:	4685      	mov	sp, r0
 8001028:	480d      	ldr	r0, [pc, #52]	; (8001060 <LoopForever+0x6>)
 800102a:	490e      	ldr	r1, [pc, #56]	; (8001064 <LoopForever+0xa>)
 800102c:	4a0e      	ldr	r2, [pc, #56]	; (8001068 <LoopForever+0xe>)
 800102e:	2300      	movs	r3, #0
 8001030:	e002      	b.n	8001038 <LoopCopyDataInit>

08001032 <CopyDataInit>:
 8001032:	58d4      	ldr	r4, [r2, r3]
 8001034:	50c4      	str	r4, [r0, r3]
 8001036:	3304      	adds	r3, #4

08001038 <LoopCopyDataInit>:
 8001038:	18c4      	adds	r4, r0, r3
 800103a:	428c      	cmp	r4, r1
 800103c:	d3f9      	bcc.n	8001032 <CopyDataInit>
 800103e:	4a0b      	ldr	r2, [pc, #44]	; (800106c <LoopForever+0x12>)
 8001040:	4c0b      	ldr	r4, [pc, #44]	; (8001070 <LoopForever+0x16>)
 8001042:	2300      	movs	r3, #0
 8001044:	e001      	b.n	800104a <LoopFillZerobss>

08001046 <FillZerobss>:
 8001046:	6013      	str	r3, [r2, #0]
 8001048:	3204      	adds	r2, #4

0800104a <LoopFillZerobss>:
 800104a:	42a2      	cmp	r2, r4
 800104c:	d3fb      	bcc.n	8001046 <FillZerobss>
 800104e:	f7ff f9bd 	bl	80003cc <SystemInit>
 8001052:	f000 f811 	bl	8001078 <__libc_init_array>
 8001056:	f7ff f94c 	bl	80002f2 <main>

0800105a <LoopForever>:
 800105a:	e7fe      	b.n	800105a <LoopForever>
 800105c:	20020000 	andcs	r0, r2, r0
 8001060:	20000000 	andcs	r0, r0, r0
 8001064:	2000000c 	andcs	r0, r0, ip
 8001068:	08001100 	stmdaeq	r0, {r8, ip}
 800106c:	2000000c 	andcs	r0, r0, ip
 8001070:	2000002c 	andcs	r0, r0, ip, lsr #32

08001074 <ADC1_2_IRQHandler>:
 8001074:	e7fe      	b.n	8001074 <ADC1_2_IRQHandler>
	...

08001078 <__libc_init_array>:
 8001078:	b570      	push	{r4, r5, r6, lr}
 800107a:	4d0d      	ldr	r5, [pc, #52]	; (80010b0 <__libc_init_array+0x38>)
 800107c:	4c0d      	ldr	r4, [pc, #52]	; (80010b4 <__libc_init_array+0x3c>)
 800107e:	1b64      	subs	r4, r4, r5
 8001080:	10a4      	asrs	r4, r4, #2
 8001082:	2600      	movs	r6, #0
 8001084:	42a6      	cmp	r6, r4
 8001086:	d109      	bne.n	800109c <__libc_init_array+0x24>
 8001088:	4d0b      	ldr	r5, [pc, #44]	; (80010b8 <__libc_init_array+0x40>)
 800108a:	4c0c      	ldr	r4, [pc, #48]	; (80010bc <__libc_init_array+0x44>)
 800108c:	f000 f820 	bl	80010d0 <_init>
 8001090:	1b64      	subs	r4, r4, r5
 8001092:	10a4      	asrs	r4, r4, #2
 8001094:	2600      	movs	r6, #0
 8001096:	42a6      	cmp	r6, r4
 8001098:	d105      	bne.n	80010a6 <__libc_init_array+0x2e>
 800109a:	bd70      	pop	{r4, r5, r6, pc}
 800109c:	f855 3b04 	ldr.w	r3, [r5], #4
 80010a0:	4798      	blx	r3
 80010a2:	3601      	adds	r6, #1
 80010a4:	e7ee      	b.n	8001084 <__libc_init_array+0xc>
 80010a6:	f855 3b04 	ldr.w	r3, [r5], #4
 80010aa:	4798      	blx	r3
 80010ac:	3601      	adds	r6, #1
 80010ae:	e7f2      	b.n	8001096 <__libc_init_array+0x1e>
 80010b0:	080010f8 	stmdaeq	r0, {r3, r4, r5, r6, r7, ip}
 80010b4:	080010f8 	stmdaeq	r0, {r3, r4, r5, r6, r7, ip}
 80010b8:	080010f8 	stmdaeq	r0, {r3, r4, r5, r6, r7, ip}
 80010bc:	080010fc 	stmdaeq	r0, {r2, r3, r4, r5, r6, r7, ip}

080010c0 <memset>:
 80010c0:	4402      	add	r2, r0
 80010c2:	4603      	mov	r3, r0
 80010c4:	4293      	cmp	r3, r2
 80010c6:	d100      	bne.n	80010ca <memset+0xa>
 80010c8:	4770      	bx	lr
 80010ca:	f803 1b01 	strb.w	r1, [r3], #1
 80010ce:	e7f9      	b.n	80010c4 <memset+0x4>

080010d0 <_init>:
 80010d0:	b5f8      	push	{r3, r4, r5, r6, r7, lr}
 80010d2:	bf00      	nop
 80010d4:	bcf8      	pop	{r3, r4, r5, r6, r7}
 80010d6:	bc08      	pop	{r3}
 80010d8:	469e      	mov	lr, r3
 80010da:	4770      	bx	lr

080010dc <_fini>:
 80010dc:	b5f8      	push	{r3, r4, r5, r6, r7, lr}
 80010de:	bf00      	nop
 80010e0:	bcf8      	pop	{r3, r4, r5, r6, r7}
 80010e2:	bc08      	pop	{r3}
 80010e4:	469e      	mov	lr, r3
 80010e6:	4770      	bx	lr

Disassembly of section .rodata:

080010e8 <AHBPrescTable>:
	...
 80010f0:	04030201 	streq	r0, [r3], #-513	; 0xfffffdff
 80010f4:	09080706 	stmdbeq	r8, {r1, r2, r8, r9, sl}

Disassembly of section .init_array:

080010f8 <__frame_dummy_init_array_entry>:
 80010f8:	080001fd 	stmdaeq	r0, {r0, r2, r3, r4, r5, r6, r7, r8}

Disassembly of section .fini_array:

080010fc <__do_global_dtors_aux_fini_array_entry>:
 80010fc:	080001d9 	stmdaeq	r0, {r0, r3, r4, r6, r7, r8}

Disassembly of section .data:

20000000 <SystemCoreClock>:
20000000:	00f42400 	rscseq	r2, r4, r0, lsl #8

20000004 <uwTickFreq>:
20000004:	00000001 	andeq	r0, r0, r1

20000008 <uwTickPrio>:
20000008:	00000010 	andeq	r0, r0, r0, lsl r0

Disassembly of section .bss:

2000000c <__bss_start__>:
2000000c:	00000000 	andeq	r0, r0, r0

20000010 <object.0>:
	...

20000028 <uwTick>:
20000028:	00000000 	andeq	r0, r0, r0

Disassembly of section ._user_heap_stack:

2000002c <._user_heap_stack>:
	...

Disassembly of section .ARM.attributes:

00000000 <.ARM.attributes>:
   0:	00002f41 	andeq	r2, r0, r1, asr #30
   4:	61656100 	cmnvs	r5, r0, lsl #2
   8:	01006962 	tsteq	r0, r2, ror #18
   c:	00000025 	andeq	r0, r0, r5, lsr #32
  10:	2d453705 	stclcs	7, cr3, [r5, #-20]	; 0xffffffec
  14:	0d06004d 	stceq	0, cr0, [r6, #-308]	; 0xfffffecc
  18:	02094d07 	andeq	r4, r9, #448	; 0x1c0
  1c:	0412060a 	ldreq	r0, [r2], #-1546	; 0xfffff9f6
  20:	01150114 	tsteq	r5, r4, lsl r1
  24:	01180317 	tsteq	r8, r7, lsl r3
  28:	011b011a 	tsteq	fp, sl, lsl r1
  2c:	0122011c 			; <UNDEFINED> instruction: 0x0122011c

Disassembly of section .debug_info:

00000000 <.debug_info>:
       0:	0000032b 	andeq	r0, r0, fp, lsr #6
       4:	00000002 	andeq	r0, r0, r2
       8:	01040000 	mrseq	r0, (UNDEF: 4)
       c:	00000182 	andeq	r0, r0, r2, lsl #3
      10:	0000c80c 	andeq	ip, r0, ip, lsl #16
      14:	00004400 	andeq	r4, r0, r0, lsl #8
	...
      28:	06010200 	streq	r0, [r1], -r0, lsl #4
      2c:	0000009f 	muleq	r0, pc, r0	; <UNPREDICTABLE>
      30:	9d080102 	stflss	f0, [r8, #-8]
      34:	02000000 	andeq	r0, r0, #0
      38:	01630502 	cmneq	r3, r2, lsl #10
      3c:	bd030000 	stclt	0, cr0, [r3, #-0]
      40:	03000000 	movweq	r0, #0
      44:	004a1939 	subeq	r1, sl, r9, lsr r9
      48:	02020000 	andeq	r0, r2, #0
      4c:	00002707 	andeq	r2, r0, r7, lsl #14
      50:	05040200 	streq	r0, [r4, #-512]	; 0xfffffe00
      54:	0000012f 	andeq	r0, r0, pc, lsr #2
      58:	0000dc03 	andeq	sp, r0, r3, lsl #24
      5c:	194f0300 	stmdbne	pc, {r8, r9}^	; <UNPREDICTABLE>
      60:	00000064 	andeq	r0, r0, r4, rrx
      64:	09070402 	stmdbeq	r7, {r1, sl}
      68:	02000001 	andeq	r0, r0, #1
      6c:	012a0508 			; <UNDEFINED> instruction: 0x012a0508
      70:	08020000 	stmdaeq	r2, {}	; <UNPREDICTABLE>
      74:	00010407 	andeq	r0, r1, r7, lsl #8
      78:	05040400 	streq	r0, [r4, #-1024]	; 0xfffffc00
      7c:	00746e69 	rsbseq	r6, r4, r9, ror #28
      80:	0e070402 	cdpeq	4, 0, cr0, cr7, cr2, {0}
      84:	03000001 	movweq	r0, #1
      88:	000000bf 	strheq	r0, [r0], -pc	; <UNPREDICTABLE>
      8c:	3e142404 	cfmulscc	mvf2, mvf4, mvf4
      90:	03000000 	movweq	r0, #0
      94:	000000de 	ldrdeq	r0, [r0], -lr
      98:	58143004 	ldmdapl	r4, {r2, ip, sp}
      9c:	05000000 	streq	r0, [r0, #-0]
      a0:	00000093 	muleq	r0, r3, r0
      a4:	00009f06 	andeq	r9, r0, r6, lsl #30
      a8:	0000b400 	andeq	fp, r0, r0, lsl #8
      ac:	00800700 	addeq	r0, r0, r0, lsl #14
      b0:	00010000 	andeq	r0, r1, r0
      b4:	0000a405 	andeq	sl, r0, r5, lsl #8
      b8:	052c0800 	streq	r0, [ip, #-2048]!	; 0xfffff800
      bc:	6409020d 	strvs	r0, [r9], #-525	; 0xfffffdf3
      c0:	09000001 	stmdbeq	r0, {r0}
      c4:	00000014 	andeq	r0, r0, r4, lsl r0
      c8:	11020f05 	tstne	r2, r5, lsl #30
      cc:	0000009f 	muleq	r0, pc, r0	; <UNPREDICTABLE>
      d0:	09002302 	stmdbeq	r0, {r1, r8, r9, sp}
      d4:	00000096 	muleq	r0, r6, r0
      d8:	11021005 	tstne	r2, r5
      dc:	0000009f 	muleq	r0, pc, r0	; <UNPREDICTABLE>
      e0:	09042302 	stmdbeq	r4, {r1, r8, r9, sp}
      e4:	000000ef 	andeq	r0, r0, pc, ror #1
      e8:	11021105 	tstne	r2, r5, lsl #2
      ec:	0000009f 	muleq	r0, pc, r0	; <UNPREDICTABLE>
      f0:	09082302 	stmdbeq	r8, {r1, r8, r9, sp}
      f4:	0000011b 	andeq	r0, r0, fp, lsl r1
      f8:	11021205 	tstne	r2, r5, lsl #4
      fc:	0000009f 	muleq	r0, pc, r0	; <UNPREDICTABLE>
     100:	0a0c2302 	beq	308d10 <_Min_Stack_Size+0x308910>
     104:	00524449 	subseq	r4, r2, r9, asr #8
     108:	11021305 	tstne	r2, r5, lsl #6
     10c:	0000009f 	muleq	r0, pc, r0	; <UNPREDICTABLE>
     110:	0a102302 	beq	408d20 <_Min_Stack_Size+0x408920>
     114:	0052444f 	subseq	r4, r2, pc, asr #8
     118:	11021405 	tstne	r2, r5, lsl #8
     11c:	0000009f 	muleq	r0, pc, r0	; <UNPREDICTABLE>
     120:	09142302 	ldmdbeq	r4, {r1, r8, r9, sp}
     124:	00000022 	andeq	r0, r0, r2, lsr #32
     128:	11021505 	tstne	r2, r5, lsl #10
     12c:	0000009f 	muleq	r0, pc, r0	; <UNPREDICTABLE>
     130:	09182302 	ldmdbeq	r8, {r1, r8, r9, sp}
     134:	0000000f 	andeq	r0, r0, pc
     138:	11021605 	tstne	r2, r5, lsl #12
     13c:	0000009f 	muleq	r0, pc, r0	; <UNPREDICTABLE>
     140:	0a1c2302 	beq	708d50 <_Min_Stack_Size+0x708950>
     144:	00524641 	subseq	r4, r2, r1, asr #12
     148:	11021705 	tstne	r2, r5, lsl #14
     14c:	000000b4 	strheq	r0, [r0], -r4
     150:	0a202302 	beq	808d60 <_Min_Stack_Size+0x808960>
     154:	00525242 	subseq	r5, r2, r2, asr #4
     158:	11021805 	tstne	r2, r5, lsl #16
     15c:	0000009f 	muleq	r0, pc, r0	; <UNPREDICTABLE>
     160:	00282302 	eoreq	r2, r8, r2, lsl #6
     164:	0000f70b 	andeq	pc, r0, fp, lsl #14
     168:	02190500 	andseq	r0, r9, #0, 10
     16c:	0000b903 	andeq	fp, r0, r3, lsl #18
     170:	04080200 	streq	r0, [r8], #-512	; 0xfffffe00
     174:	00000176 	andeq	r0, r0, r6, ror r1
     178:	00016d03 	andeq	r6, r1, r3, lsl #26
     17c:	10080100 	andne	r0, r8, r0, lsl #2
     180:	00000184 	andeq	r0, r0, r4, lsl #3
     184:	018a040c 	orreq	r0, sl, ip, lsl #8
     188:	910d0000 	mrsls	r0, (UNDEF: 13)
     18c:	0e000001 	cdpeq	0, 0, cr0, cr0, cr1, {0}
     190:	ab010f00 	blge	43d98 <_Min_Stack_Size+0x43998>
     194:	01000000 	mrseq	r0, (UNDEF: 0)
     198:	18010611 	stmdane	r1, {r0, r4, r9, sl}
     19c:	7c080002 	stcvc	0, cr0, [r8], {2}
     1a0:	00080002 	andeq	r0, r8, r2
     1a4:	01000000 	mrseq	r0, (UNDEF: 0)
     1a8:	0000028a 	andeq	r0, r0, sl, lsl #5
     1ac:	00012110 	andeq	r2, r1, r0, lsl r1
     1b0:	0b130100 	bleq	4c05b8 <_Min_Stack_Size+0x4c01b8>
     1b4:	00000178 	andeq	r0, r0, r8, ror r1
     1b8:	00000022 	andeq	r0, r0, r2, lsr #32
     1bc:	00000020 	andeq	r0, r0, r0, lsr #32
     1c0:	00025011 	andeq	r5, r2, r1, lsl r0
     1c4:	00026c08 	andeq	r6, r2, r8, lsl #24
     1c8:	00020e08 	andeq	r0, r2, r8, lsl #28
     1cc:	00691200 	rsbeq	r1, r9, r0, lsl #4
     1d0:	30172501 	andscc	r2, r7, r1, lsl #10
     1d4:	3b000000 	blcc	1dc <_Min_Heap_Size-0x24>
     1d8:	35000000 	strcc	r0, [r0, #-0]
     1dc:	13000000 	movwne	r0, #0
     1e0:	0800025c 	stmdaeq	r0, {r2, r3, r4, r6, r9}
     1e4:	00000310 	andeq	r0, r0, r0, lsl r3
     1e8:	000001f4 	strdeq	r0, [r0], -r4
     1ec:	03500114 	cmpeq	r0, #20, 2
     1f0:	0003e80a 	andeq	lr, r3, sl, lsl #16
     1f4:	00026415 	andeq	r6, r2, r5, lsl r4
     1f8:	00031f08 	andeq	r1, r3, r8, lsl #30
     1fc:	50011400 	andpl	r1, r1, r0, lsl #8
     200:	10000c05 	andne	r0, r0, r5, lsl #24
     204:	01144800 	tsteq	r4, r0, lsl #16
     208:	80080251 	andhi	r0, r8, r1, asr r2
     20c:	f3160000 	vhadd.u16	d0, d6, d0
     210:	46000002 	strmi	r0, [r0], -r2
     214:	00080002 	andeq	r0, r8, r2
     218:	08000246 	stmdaeq	r0, {r1, r2, r6, r9}
     21c:	0800024a 	stmdaeq	r0, {r1, r3, r6, r9}
     220:	35052101 	strcc	r2, [r5, #-257]	; 0xfffffeff
     224:	17000002 	strne	r0, [r0, -r2]
     228:	00000302 	andeq	r0, r0, r2, lsl #6
     22c:	00000067 	andeq	r0, r0, r7, rrx
     230:	00000065 	andeq	r0, r0, r5, rrx
     234:	02d61600 	sbcseq	r1, r6, #0, 12
     238:	024a0000 	subeq	r0, sl, #0
     23c:	4a020800 	bmi	82244 <_Min_Stack_Size+0x81e44>
     240:	50080002 	andpl	r0, r8, r2
     244:	01080002 	tsteq	r8, r2
     248:	025c0524 	subseq	r0, ip, #36, 10	; 0x9000000
     24c:	e5170000 	ldr	r0, [r7, #-0]
     250:	7c000002 	stcvc	0, cr0, [r0], {2}
     254:	7a000000 	bvc	25c <_Min_Heap_Size+0x5c>
     258:	00000000 	andeq	r0, r0, r0
     25c:	00023613 	andeq	r3, r2, r3, lsl r6
     260:	00031008 	andeq	r1, r3, r8
     264:	00027000 	andeq	r7, r2, r0
     268:	50011400 	andpl	r1, r1, r0, lsl #8
     26c:	00320802 	eorseq	r0, r2, r2, lsl #16
     270:	00023e15 	andeq	r3, r2, r5, lsl lr
     274:	00031f08 	andeq	r1, r3, r8, lsl #30
     278:	50011400 	andpl	r1, r1, r0, lsl #8
     27c:	10000c05 	andne	r0, r0, r5, lsl #24
     280:	01144800 	tsteq	r4, r0, lsl #16
     284:	80080251 	andhi	r0, r8, r1, asr r2
     288:	01180000 	tsteq	r8, r0
     28c:	000000e7 	andeq	r0, r0, r7, ror #1
     290:	01060c01 	tsteq	r6, r1, lsl #24
	...
     29c:	01007d02 	tsteq	r0, r2, lsl #26
     2a0:	000002d6 	ldrdeq	r0, [r0], -r6
     2a4:	0000b819 	andeq	fp, r0, r9, lsl r8
     2a8:	1b0c0100 	blne	3006b0 <_Min_Stack_Size+0x3002b0>
     2ac:	00000080 	andeq	r0, r0, r0, lsl #1
     2b0:	f31a5001 	vhadd.u16	d5, d10, d1
     2b4:	00000002 	andeq	r0, r0, r2
	...
     2c4:	17050e01 	strne	r0, [r5, -r1, lsl #28]
     2c8:	00000302 	andeq	r0, r0, r2, lsl #6
     2cc:	00000092 	muleq	r0, r2, r0
     2d0:	00000090 	muleq	r0, r0, r0
     2d4:	381b0000 	ldmdacc	fp, {}	; <UNPREDICTABLE>
     2d8:	02000001 	andeq	r0, r0, #1
     2dc:	011b01df 			; <UNDEFINED> instruction: 0x011b01df
     2e0:	0002f303 	andeq	pc, r2, r3, lsl #6
     2e4:	001a1c00 	andseq	r1, sl, r0, lsl #24
     2e8:	df020000 	svcle	0x00020000
     2ec:	00933201 	addseq	r3, r3, r1, lsl #4
     2f0:	1b000000 	blne	2f8 <_Min_Heap_Size+0xf8>
     2f4:	0000003a 	andeq	r0, r0, sl, lsr r0
     2f8:	1b018e02 	blne	63b08 <_Min_Stack_Size+0x63708>
     2fc:	03100301 	tsteq	r0, #67108864	; 0x4000000
     300:	001c0000 	andseq	r0, ip, r0
     304:	02000000 	andeq	r0, r0, #0
     308:	932e018e 			; <UNDEFINED> instruction: 0x932e018e
     30c:	00000000 	andeq	r0, r0, r0
     310:	4601011d 			; <UNDEFINED> instruction: 0x4601011d
     314:	46000001 	strmi	r0, [r0], -r1
     318:	06000001 	streq	r0, [r0], -r1
     31c:	1d060219 	sfmne	f0, 4, [r6, #-100]	; 0xffffff9c
     320:	01500101 	cmpeq	r0, r1, lsl #2
     324:	01500000 	cmpeq	r0, r0
     328:	2c070000 	stccs	0, cr0, [r7], {-0}
     32c:	b0001301 	andlt	r1, r0, r1, lsl #6
     330:	02000003 	andeq	r0, r0, #3
     334:	0001b900 	andeq	fp, r1, r0, lsl #18
     338:	82010400 	andhi	r0, r1, #0, 8
     33c:	0c000001 	stceq	0, cr0, [r0], {1}
     340:	000003bb 			; <UNDEFINED> instruction: 0x000003bb
     344:	00000044 	andeq	r0, r0, r4, asr #32
     348:	00000018 	andeq	r0, r0, r8, lsl r0
	...
     354:	00000277 	andeq	r0, r0, r7, ror r2
     358:	9f060102 	svcls	0x00060102
     35c:	02000000 	andeq	r0, r0, #0
     360:	009d0801 	addseq	r0, sp, r1, lsl #16
     364:	02020000 	andeq	r0, r2, #0
     368:	00016305 	andeq	r6, r1, r5, lsl #6
     36c:	07020200 	streq	r0, [r2, -r0, lsl #4]
     370:	00000027 	andeq	r0, r0, r7, lsr #32
     374:	2f050402 	svccs	0x00050402
     378:	03000001 	movweq	r0, #1
     37c:	000000dc 	ldrdeq	r0, [r0], -ip
     380:	58194f03 	ldmdapl	r9, {r0, r1, r8, r9, sl, fp, lr}
     384:	02000000 	andeq	r0, r0, #0
     388:	01090704 	tsteq	r9, r4, lsl #14
     38c:	08020000 	stmdaeq	r2, {}	; <UNPREDICTABLE>
     390:	00012a05 	andeq	r2, r1, r5, lsl #20
     394:	07080200 	streq	r0, [r8, -r0, lsl #4]
     398:	00000104 	andeq	r0, r0, r4, lsl #2
     39c:	69050404 	stmdbvs	r5, {r2, sl}
     3a0:	0200746e 	andeq	r7, r0, #1845493760	; 0x6e000000
     3a4:	010e0704 	tsteq	lr, r4, lsl #14
     3a8:	de030000 	cdple	0, 0, cr0, cr3, cr0, {0}
     3ac:	04000000 	streq	r0, [r0], #-0
     3b0:	004c1430 	subeq	r1, ip, r0, lsr r4
     3b4:	08020000 	stmdaeq	r2, {}	; <UNPREDICTABLE>
     3b8:	00017604 	andeq	r7, r1, r4, lsl #12
     3bc:	01070500 	tsteq	r7, r0, lsl #10
     3c0:	00000030 	andeq	r0, r0, r0, lsr r0
     3c4:	b501270a 	strlt	r2, [r1, #-1802]	; 0xfffff8f6
     3c8:	06000000 	streq	r0, [r0], -r0
     3cc:	00000277 	andeq	r0, r0, r7, ror r2
     3d0:	026d0600 	rsbeq	r0, sp, #0, 12
     3d4:	06010000 	streq	r0, [r1], -r0
     3d8:	0000035a 	andeq	r0, r0, sl, asr r3
     3dc:	039b0602 	orrseq	r0, fp, #2097152	; 0x200000
     3e0:	00030000 	andeq	r0, r3, r0
     3e4:	2d051c07 	stccs	12, cr1, [r5, #-28]	; 0xffffffe4
     3e8:	00012809 	andeq	r2, r1, r9, lsl #16
     3ec:	03230800 			; <UNDEFINED> instruction: 0x03230800
     3f0:	2f050000 	svccs	0x00050000
     3f4:	00007b0c 	andeq	r7, r0, ip, lsl #22
     3f8:	00230200 	eoreq	r0, r3, r0, lsl #4
     3fc:	00122d08 	andseq	r2, r2, r8, lsl #26
     400:	0c320500 	cfldr32eq	mvfx0, [r2], #-0
     404:	0000007b 	andeq	r0, r0, fp, ror r0
     408:	08042302 	stmdaeq	r4, {r1, r8, r9, sp}
     40c:	00000315 	andeq	r0, r0, r5, lsl r3
     410:	7b0c3505 	blvc	30d82c <_Min_Stack_Size+0x30d42c>
     414:	02000000 	andeq	r0, r0, #0
     418:	01080823 	tsteq	r8, r3, lsr #16
     41c:	05000003 	streq	r0, [r0, #-3]
     420:	007b0c38 	rsbseq	r0, fp, r8, lsr ip
     424:	23020000 	movwcs	r0, #8192	; 0x2000
     428:	0306080c 	movweq	r0, #26636	; 0x680c
     42c:	3b050000 	blcc	140434 <_Min_Stack_Size+0x140034>
     430:	00007b0c 	andeq	r7, r0, ip, lsl #22
     434:	10230200 	eorne	r0, r3, r0, lsl #4
     438:	00030b08 	andeq	r0, r3, r8, lsl #22
     43c:	0c3e0500 	cfldr32eq	mvfx0, [lr], #-0
     440:	0000007b 	andeq	r0, r0, fp, ror r0
     444:	08142302 	ldmdaeq	r4, {r1, r8, r9, sp}
     448:	00000310 	andeq	r0, r0, r0, lsl r3
     44c:	7b0c4105 	blvc	310868 <_Min_Stack_Size+0x310468>
     450:	02000000 	andeq	r0, r0, #0
     454:	03001823 	movweq	r1, #2083	; 0x823
     458:	0000033e 	andeq	r0, r0, lr, lsr r3
     45c:	b5024505 	strlt	r4, [r2, #-1285]	; 0xfffffafb
     460:	07000000 	streq	r0, [r0, -r0]
     464:	094a0538 	stmdbeq	sl, {r3, r4, r5, r8, sl}^
     468:	000001b6 			; <UNDEFINED> instruction: 0x000001b6
     46c:	0003fe08 	andeq	pc, r3, r8, lsl #28
     470:	0c4c0500 	cfstr64eq	mvdx0, [ip], {-0}
     474:	0000007b 	andeq	r0, r0, fp, ror r0
     478:	08002302 	stmdaeq	r0, {r1, r8, r9, sp}
     47c:	0000031a 	andeq	r0, r0, sl, lsl r3
     480:	7b0c4f05 	blvc	31409c <_Min_Stack_Size+0x313c9c>
     484:	02000000 	andeq	r0, r0, #0
     488:	e8080423 	stmda	r8, {r0, r1, r5, sl}
     48c:	05000003 	streq	r0, [r0, #-3]
     490:	007b0c52 	rsbseq	r0, fp, r2, asr ip
     494:	23020000 	movwcs	r0, #8192	; 0x2000
     498:	03510808 	cmpeq	r1, #8, 16	; 0x80000
     49c:	55050000 	strpl	r0, [r5, #-0]
     4a0:	00007b0c 	andeq	r7, r0, ip, lsl #22
     4a4:	0c230200 	sfmeq	f0, 4, [r3], #-0
     4a8:	00024608 	andeq	r4, r2, r8, lsl #12
     4ac:	0c580500 	cfldr64eq	mvdx0, [r8], {-0}
     4b0:	0000007b 	andeq	r0, r0, fp, ror r0
     4b4:	08102302 	ldmdaeq	r0, {r1, r8, r9, sp}
     4b8:	000003b2 			; <UNDEFINED> instruction: 0x000003b2
     4bc:	7b0c5b05 	blvc	3170d8 <_Min_Stack_Size+0x316cd8>
     4c0:	02000000 	andeq	r0, r0, #0
     4c4:	a7081423 	strge	r1, [r8, -r3, lsr #8]
     4c8:	05000003 	streq	r0, [r0, #-3]
     4cc:	007b0c5e 	rsbseq	r0, fp, lr, asr ip
     4d0:	23020000 	movwcs	r0, #8192	; 0x2000
     4d4:	4c500918 	mrrcmi	9, 1, r0, r0, cr8	; <UNPREDICTABLE>
     4d8:	6105004c 	tstvs	r5, ip, asr #32
     4dc:	00012816 	andeq	r2, r1, r6, lsl r8
     4e0:	1c230200 	sfmne	f0, 4, [r3], #-0
     4e4:	03760300 	cmneq	r6, #0, 6
     4e8:	63050000 	movwvs	r0, #20480	; 0x5000
     4ec:	00013402 	andeq	r3, r1, r2, lsl #8
     4f0:	05140700 	ldreq	r0, [r4, #-1792]	; 0xfffff900
     4f4:	02170968 	andseq	r0, r7, #104, 18	; 0x1a0000
     4f8:	96080000 	strls	r0, [r8], -r0
     4fc:	05000002 	streq	r0, [r0, #-2]
     500:	007b0c6a 	rsbseq	r0, fp, sl, ror #24
     504:	23020000 	movwcs	r0, #8192	; 0x2000
     508:	03f10800 	mvnseq	r0, #0, 16
     50c:	6d050000 	stcvs	0, cr0, [r5, #-0]
     510:	00007b0c 	andeq	r7, r0, ip, lsl #22
     514:	04230200 	strteq	r0, [r3], #-512	; 0xfffffe00
     518:	0002a008 	andeq	sl, r2, r8
     51c:	0c700500 	cfldr64eq	mvdx0, [r0], #-0
     520:	0000007b 	andeq	r0, r0, fp, ror r0
     524:	08082302 	stmdaeq	r8, {r1, r8, r9, sp}
     528:	00000287 	andeq	r0, r0, r7, lsl #5
     52c:	7b0c7305 	blvc	31d148 <_Min_Stack_Size+0x31cd48>
     530:	02000000 	andeq	r0, r0, #0
     534:	bf080c23 	svclt	0x00080c23
     538:	05000002 	streq	r0, [r0, #-2]
     53c:	007b0c76 	rsbseq	r0, fp, r6, ror ip
     540:	23020000 	movwcs	r0, #8192	; 0x2000
     544:	5a030010 	bpl	c058c <_Min_Stack_Size+0xc018c>
     548:	05000002 	streq	r0, [r0, #-2]
     54c:	01c20279 	biceq	r0, r2, r9, ror r2
     550:	010a0000 	mrseq	r0, (UNDEF: 10)
     554:	000002ee 	andeq	r0, r0, lr, ror #5
     558:	0106a201 	tsteq	r6, r1, lsl #4
     55c:	0800027c 	stmdaeq	r0, {r2, r3, r4, r5, r6, r9}
     560:	08000280 	stmdaeq	r0, {r7, r9}
     564:	01007d02 	tsteq	r0, r2, lsl #26
     568:	00000253 	andeq	r0, r0, r3, asr r2
     56c:	0003440b 	andeq	r4, r3, fp, lsl #8
     570:	00027c00 	andeq	r7, r2, r0, lsl #24
     574:	027c0208 	rsbseq	r0, ip, #8, 4	; 0x80000000
     578:	027e0800 	rsbseq	r0, lr, #0, 16
     57c:	a6010800 	strge	r0, [r1], -r0, lsl #16
     580:	010c0003 	tsteq	ip, r3
     584:	00000363 	andeq	r0, r0, r3, ror #6
     588:	01067001 	tsteq	r6, r1
     58c:	08000280 	stmdaeq	r0, {r7, r9}
     590:	080002f2 	stmdaeq	r0, {r1, r4, r5, r6, r7, r9}
     594:	000000a5 	andeq	r0, r0, r5, lsr #1
     598:	00030001 	andeq	r0, r3, r1
     59c:	03890d00 	orreq	r0, r9, #0, 26
     5a0:	72010000 	andvc	r0, r1, #0
     5a4:	0001b616 	andeq	fp, r1, r6, lsl r6
     5a8:	40910200 	addsmi	r0, r1, r0, lsl #4
     5ac:	0002270d 	andeq	r2, r2, sp, lsl #14
     5b0:	16730100 	ldrbtne	r0, [r3], -r0, lsl #2
     5b4:	00000217 	andeq	r0, r0, r7, lsl r2
     5b8:	7fac9103 	svcvc	0x00ac9103
     5bc:	00028e0e 	andeq	r8, r2, lr, lsl #28
     5c0:	00034e08 	andeq	r4, r3, r8, lsl #28
     5c4:	0002ac00 	andeq	sl, r2, r0, lsl #24
     5c8:	50010f00 	andpl	r0, r1, r0, lsl #30
     5cc:	0f409102 	svceq	0x00409102
     5d0:	30015101 	andcc	r5, r1, r1, lsl #2
     5d4:	0252010f 	subseq	r0, r2, #-1073741821	; 0xc0000003
     5d8:	0e003808 	cdpeq	8, 0, cr3, cr0, cr8, {0}
     5dc:	0800029e 	stmdaeq	r0, {r1, r2, r3, r4, r7, r9}
     5e0:	0000035b 	andeq	r0, r0, fp, asr r3
     5e4:	000002bf 			; <UNDEFINED> instruction: 0x000002bf
     5e8:	0150010f 	cmpeq	r0, pc, lsl #2
     5ec:	c60e0030 			; <UNDEFINED> instruction: 0xc60e0030
     5f0:	6a080002 	bvs	200600 <_Min_Stack_Size+0x200200>
     5f4:	d3000003 	movwle	r0, #3
     5f8:	0f000002 	svceq	0x00000002
     5fc:	91025001 	tstls	r2, r1
     600:	e20e0040 	and	r0, lr, #64	; 0x40
     604:	79080002 	stmdbvc	r8, {r1}
     608:	ed000003 	stc	0, cr0, [r0, #-12]
     60c:	0f000002 	svceq	0x00000002
     610:	91035001 	tstls	r3, r1
     614:	010f7fac 	smlatbeq	pc, ip, pc, r7	; <UNPREDICTABLE>
     618:	00340151 	eorseq	r0, r4, r1, asr r1
     61c:	0002ee10 	andeq	lr, r2, r0, lsl lr
     620:	00022308 	andeq	r2, r2, r8, lsl #6
     624:	02f21000 	rscseq	r1, r2, #0
     628:	02230800 	eoreq	r0, r3, #0, 16
     62c:	11000000 	mrsne	r0, (UNDEF: 0)
     630:	0002fc01 	andeq	pc, r2, r1, lsl #24
     634:	05440100 	strbeq	r0, [r4, #-256]	; 0xffffff00
     638:	00006d01 	andeq	r6, r0, r1, lsl #26
     63c:	0002f200 	andeq	pc, r2, r0, lsl #4
     640:	00030608 	andeq	r0, r3, r8, lsl #12
     644:	0000eb08 	andeq	lr, r0, r8, lsl #22
     648:	03440100 	movteq	r0, #16640	; 0x4100
     64c:	f8100000 			; <UNDEFINED> instruction: 0xf8100000
     650:	88080002 	stmdahi	r8, {r1}
     654:	10000003 	andne	r0, r0, r3
     658:	080002fc 	stmdaeq	r0, {r2, r3, r4, r5, r6, r7, r9}
     65c:	00000253 	andeq	r0, r0, r3, asr r2
     660:	00030010 	andeq	r0, r3, r0, lsl r0
     664:	00039708 	andeq	r9, r3, r8, lsl #14
     668:	03041000 	movweq	r1, #16384	; 0x4000
     66c:	03a50800 			; <UNDEFINED> instruction: 0x03a50800
     670:	12000000 	andne	r0, r0, #0
     674:	000003da 	ldrdeq	r0, [r0], -sl
     678:	011bcf02 	tsteq	fp, r2, lsl #30
     67c:	01011303 	tsteq	r1, r3, lsl #6
     680:	000002b8 			; <UNDEFINED> instruction: 0x000002b8
     684:	000002ae 	andeq	r0, r0, lr, lsr #5
     688:	0114000b 	tsteq	r4, fp
     68c:	0002ce01 	andeq	ip, r2, r1, lsl #28
     690:	0002ce00 	andeq	ip, r2, r0, lsl #28
     694:	02e60600 	rsceq	r0, r6, #0, 12
     698:	01011413 	tsteq	r1, r3, lsl r4
     69c:	0000032c 	andeq	r0, r0, ip, lsr #6
     6a0:	0000032c 	andeq	r0, r0, ip, lsr #6
     6a4:	130d1e05 	movwne	r1, #56837	; 0xde05
     6a8:	c6010114 			; <UNDEFINED> instruction: 0xc6010114
     6ac:	c6000003 	strgt	r0, [r0], -r3
     6b0:	05000003 	streq	r0, [r0, #-3]
     6b4:	14130d1f 	ldrne	r0, [r3], #-3359	; 0xfffff2e1
     6b8:	027e0101 	rsbseq	r0, lr, #1073741824	; 0x40000000
     6bc:	027e0000 	rsbseq	r0, lr, #0
     6c0:	09070000 	stmdbeq	r7, {}	; <UNPREDICTABLE>
     6c4:	01151302 	tsteq	r5, r2, lsl #6
     6c8:	00023901 	andeq	r3, r2, r1, lsl #18
     6cc:	00023900 	andeq	r3, r2, r0, lsl #18
     6d0:	06270800 	strteq	r0, [r7], -r0, lsl #16
     6d4:	ab010115 	blge	40b30 <_Min_Stack_Size+0x40730>
     6d8:	ab000000 	blge	6e0 <_Min_Stack_Size+0x2e0>
     6dc:	09000000 	stmdbeq	r0, {}	; <UNPREDICTABLE>
     6e0:	66000606 	strvs	r0, [r0], -r6, lsl #12
     6e4:	02000005 	andeq	r0, r0, #5
     6e8:	00032d00 	andeq	r2, r3, r0, lsl #26
     6ec:	82010400 	andhi	r0, r1, #0, 8
     6f0:	0c000001 	stceq	0, cr0, [r0], {1}
     6f4:	00000595 	muleq	r0, r5, r5
     6f8:	00000044 	andeq	r0, r0, r4, asr #32
     6fc:	00000038 	andeq	r0, r0, r8, lsr r0
	...
     708:	00000548 	andeq	r0, r0, r8, asr #10
     70c:	9f060102 	svcls	0x00060102
     710:	02000000 	andeq	r0, r0, #0
     714:	009d0801 	addseq	r0, sp, r1, lsl #16
     718:	02020000 	andeq	r0, r2, #0
     71c:	00016305 	andeq	r6, r1, r5, lsl #6
     720:	00bd0300 	adcseq	r0, sp, r0, lsl #6
     724:	39020000 	stmdbcc	r2, {}	; <UNPREDICTABLE>
     728:	00004a19 	andeq	r4, r0, r9, lsl sl
     72c:	07020200 	streq	r0, [r2, -r0, lsl #4]
     730:	00000027 	andeq	r0, r0, r7, lsr #32
     734:	2f050402 	svccs	0x00050402
     738:	03000001 	movweq	r0, #1
     73c:	000000dc 	ldrdeq	r0, [r0], -ip
     740:	64194f02 	ldrvs	r4, [r9], #-3842	; 0xfffff0fe
     744:	02000000 	andeq	r0, r0, #0
     748:	01090704 	tsteq	r9, r4, lsl #14
     74c:	08020000 	stmdaeq	r2, {}	; <UNPREDICTABLE>
     750:	00012a05 	andeq	r2, r1, r5, lsl #20
     754:	07080200 	streq	r0, [r8, -r0, lsl #4]
     758:	00000104 	andeq	r0, r0, r4, lsl #2
     75c:	69050404 	stmdbvs	r5, {r2, sl}
     760:	0200746e 	andeq	r7, r0, #1845493760	; 0x6e000000
     764:	010e0704 	tsteq	lr, r4, lsl #14
     768:	bf030000 	svclt	0x00030000
     76c:	03000000 	movweq	r0, #0
     770:	003e1424 	eorseq	r1, lr, r4, lsr #8
     774:	de030000 	cdple	0, 0, cr0, cr3, cr0, {0}
     778:	03000000 	movweq	r0, #0
     77c:	00581430 	subseq	r1, r8, r0, lsr r4
     780:	93050000 	movwls	r0, #20480	; 0x5000
     784:	06000000 	streq	r0, [r0], -r0
     788:	0000009f 	muleq	r0, pc, r0	; <UNPREDICTABLE>
     78c:	000000b4 	strheq	r0, [r0], -r4
     790:	00008007 	andeq	r8, r0, r7
     794:	05000100 	streq	r0, [r0, #-256]	; 0xffffff00
     798:	000000a4 	andeq	r0, r0, r4, lsr #1
     79c:	0d042c08 	stceq	12, cr2, [r4, #-32]	; 0xffffffe0
     7a0:	01640902 	cmneq	r4, r2, lsl #18
     7a4:	14090000 	strne	r0, [r9], #-0
     7a8:	04000000 	streq	r0, [r0], #-0
     7ac:	9f11020f 	svcls	0x0011020f
     7b0:	02000000 	andeq	r0, r0, #0
     7b4:	96090023 	strls	r0, [r9], -r3, lsr #32
     7b8:	04000000 	streq	r0, [r0], #-0
     7bc:	9f110210 	svcls	0x00110210
     7c0:	02000000 	andeq	r0, r0, #0
     7c4:	ef090423 	svc	0x00090423
     7c8:	04000000 	streq	r0, [r0], #-0
     7cc:	9f110211 	svcls	0x00110211
     7d0:	02000000 	andeq	r0, r0, #0
     7d4:	1b090823 	blne	242868 <_Min_Stack_Size+0x242468>
     7d8:	04000001 	streq	r0, [r0], #-1
     7dc:	9f110212 	svcls	0x00110212
     7e0:	02000000 	andeq	r0, r0, #0
     7e4:	490a0c23 	stmdbmi	sl, {r0, r1, r5, sl, fp}
     7e8:	04005244 	streq	r5, [r0], #-580	; 0xfffffdbc
     7ec:	9f110213 	svcls	0x00110213
     7f0:	02000000 	andeq	r0, r0, #0
     7f4:	4f0a1023 	svcmi	0x000a1023
     7f8:	04005244 	streq	r5, [r0], #-580	; 0xfffffdbc
     7fc:	9f110214 	svcls	0x00110214
     800:	02000000 	andeq	r0, r0, #0
     804:	22091423 	andcs	r1, r9, #587202560	; 0x23000000
     808:	04000000 	streq	r0, [r0], #-0
     80c:	9f110215 	svcls	0x00110215
     810:	02000000 	andeq	r0, r0, #0
     814:	0f091823 	svceq	0x00091823
     818:	04000000 	streq	r0, [r0], #-0
     81c:	9f110216 	svcls	0x00110216
     820:	02000000 	andeq	r0, r0, #0
     824:	410a1c23 	tstmi	sl, r3, lsr #24
     828:	04005246 	streq	r5, [r0], #-582	; 0xfffffdba
     82c:	b4110217 	ldrlt	r0, [r1], #-535	; 0xfffffde9
     830:	02000000 	andeq	r0, r0, #0
     834:	420a2023 	andmi	r2, sl, #35	; 0x23
     838:	04005252 	streq	r5, [r0], #-594	; 0xfffffdae
     83c:	9f110218 	svcls	0x00110218
     840:	02000000 	andeq	r0, r0, #0
     844:	0b002823 	bleq	a8d8 <_Min_Stack_Size+0xa4d8>
     848:	000000f7 	strdeq	r0, [r0], -r7
     84c:	03021904 	movweq	r1, #10500	; 0x2904
     850:	000000b9 	strheq	r0, [r0], -r9
     854:	9004a008 	andls	sl, r4, r8
     858:	04030902 	streq	r0, [r3], #-2306	; 0xfffff6fe
     85c:	430a0000 	movwmi	r0, #40960	; 0xa000
     860:	92040052 	andls	r0, r4, #82	; 0x52
     864:	009f1102 	addseq	r1, pc, r2, lsl #2
     868:	23020000 	movwcs	r0, #8192	; 0x2000
     86c:	05140900 	ldreq	r0, [r4, #-2304]	; 0xfffff700
     870:	93040000 	movwls	r0, #16384	; 0x4000
     874:	009f1102 	addseq	r1, pc, r2, lsl #2
     878:	23020000 	movwcs	r0, #8192	; 0x2000
     87c:	041e0904 	ldreq	r0, [lr], #-2308	; 0xfffff6fc
     880:	94040000 	strls	r0, [r4], #-0
     884:	009f1102 	addseq	r1, pc, r2, lsl #2
     888:	23020000 	movwcs	r0, #8192	; 0x2000
     88c:	041b0908 	ldreq	r0, [fp], #-2312	; 0xfffff6f8
     890:	95040000 	strls	r0, [r4, #-0]
     894:	009f1102 	addseq	r1, pc, r2, lsl #2
     898:	23020000 	movwcs	r0, #8192	; 0x2000
     89c:	0524090c 	streq	r0, [r4, #-2316]!	; 0xfffff6f4
     8a0:	96040000 	strls	r0, [r4], -r0
     8a4:	00931102 	addseq	r1, r3, r2, lsl #2
     8a8:	23020000 	movwcs	r0, #8192	; 0x2000
     8ac:	052e0910 	streq	r0, [lr, #-2320]!	; 0xfffff6f0
     8b0:	97040000 	strls	r0, [r4, -r0]
     8b4:	00931102 	addseq	r1, r3, r2, lsl #2
     8b8:	23020000 	movwcs	r0, #8192	; 0x2000
     8bc:	045d0914 	ldrbeq	r0, [sp], #-2324	; 0xfffff6ec
     8c0:	98040000 	stmdals	r4, {}	; <UNPREDICTABLE>
     8c4:	009f1102 	addseq	r1, pc, r2, lsl #2
     8c8:	23020000 	movwcs	r0, #8192	; 0x2000
     8cc:	05880918 	streq	r0, [r8, #2328]	; 0x918
     8d0:	99040000 	stmdbls	r4, {}	; <UNPREDICTABLE>
     8d4:	009f1102 	addseq	r1, pc, r2, lsl #2
     8d8:	23020000 	movwcs	r0, #8192	; 0x2000
     8dc:	044f091c 	strbeq	r0, [pc], #-2332	; 8e4 <_Min_Stack_Size+0x4e4>
     8e0:	9a040000 	bls	1008e8 <_Min_Stack_Size+0x1004e8>
     8e4:	009f1102 	addseq	r1, pc, r2, lsl #2
     8e8:	23020000 	movwcs	r0, #8192	; 0x2000
     8ec:	05380920 	ldreq	r0, [r8, #-2336]!	; 0xfffff6e0
     8f0:	9b040000 	blls	1008f8 <_Min_Stack_Size+0x1004f8>
     8f4:	00931102 	addseq	r1, r3, r2, lsl #2
     8f8:	23020000 	movwcs	r0, #8192	; 0x2000
     8fc:	04540924 	ldrbeq	r0, [r4], #-2340	; 0xfffff6dc
     900:	9c040000 	stcls	0, cr0, [r4], {-0}
     904:	009f1102 	addseq	r1, pc, r2, lsl #2
     908:	23020000 	movwcs	r0, #8192	; 0x2000
     90c:	04f20928 	ldrbteq	r0, [r2], #2344	; 0x928
     910:	9d040000 	stcls	0, cr0, [r4, #-0]
     914:	009f1102 	addseq	r1, pc, r2, lsl #2
     918:	23020000 	movwcs	r0, #8192	; 0x2000
     91c:	05cb092c 	strbeq	r0, [fp, #2348]	; 0x92c
     920:	9e040000 	cdpls	0, 0, cr0, cr4, cr0, {0}
     924:	009f1102 	addseq	r1, pc, r2, lsl #2
     928:	23020000 	movwcs	r0, #8192	; 0x2000
     92c:	05420930 	strbeq	r0, [r2, #-2352]	; 0xfffff6d0
     930:	9f040000 	svcls	0x00040000
     934:	00931102 	addseq	r1, r3, r2, lsl #2
     938:	23020000 	movwcs	r0, #8192	; 0x2000
     93c:	04230934 	strteq	r0, [r3], #-2356	; 0xfffff6cc
     940:	a0040000 	andge	r0, r4, r0
     944:	009f1102 	addseq	r1, pc, r2, lsl #2
     948:	23020000 	movwcs	r0, #8192	; 0x2000
     94c:	042d0938 	strteq	r0, [sp], #-2360	; 0xfffff6c8
     950:	a1040000 	mrsge	r0, (UNDEF: 4)
     954:	009f1102 	addseq	r1, pc, r2, lsl #2
     958:	23020000 	movwcs	r0, #8192	; 0x2000
     95c:	04a3093c 	strteq	r0, [r3], #2364	; 0x93c
     960:	a2040000 	andge	r0, r4, #0
     964:	009f1102 	addseq	r1, pc, r2, lsl #2
     968:	23020000 	movwcs	r0, #8192	; 0x2000
     96c:	054c0940 	strbeq	r0, [ip, #-2368]	; 0xfffff6c0
     970:	a3040000 	movwge	r0, #16384	; 0x4000
     974:	00931102 	addseq	r1, r3, r2, lsl #2
     978:	23020000 	movwcs	r0, #8192	; 0x2000
     97c:	058d0944 	streq	r0, [sp, #2372]	; 0x944
     980:	a4040000 	strge	r0, [r4], #-0
     984:	009f1102 	addseq	r1, pc, r2, lsl #2
     988:	23020000 	movwcs	r0, #8192	; 0x2000
     98c:	04370948 	ldrteq	r0, [r7], #-2376	; 0xfffff6b8
     990:	a5040000 	strge	r0, [r4, #-0]
     994:	009f1102 	addseq	r1, pc, r2, lsl #2
     998:	23020000 	movwcs	r0, #8192	; 0x2000
     99c:	0462094c 	strbteq	r0, [r2], #-2380	; 0xfffff6b4
     9a0:	a6040000 	strge	r0, [r4], -r0
     9a4:	009f1102 	addseq	r1, pc, r2, lsl #2
     9a8:	23020000 	movwcs	r0, #8192	; 0x2000
     9ac:	05560950 	ldrbeq	r0, [r6, #-2384]	; 0xfffff6b0
     9b0:	a7040000 	strge	r0, [r4, -r0]
     9b4:	00931102 	addseq	r1, r3, r2, lsl #2
     9b8:	23020000 	movwcs	r0, #8192	; 0x2000
     9bc:	04fb0954 	ldrbteq	r0, [fp], #2388	; 0x954
     9c0:	a8040000 	stmdage	r4, {}	; <UNPREDICTABLE>
     9c4:	009f1102 	addseq	r1, pc, r2, lsl #2
     9c8:	23020000 	movwcs	r0, #8192	; 0x2000
     9cc:	05040958 	streq	r0, [r4, #-2392]	; 0xfffff6a8
     9d0:	a9040000 	stmdbge	r4, {}	; <UNPREDICTABLE>
     9d4:	009f1102 	addseq	r1, pc, r2, lsl #2
     9d8:	23020000 	movwcs	r0, #8192	; 0x2000
     9dc:	04d4095c 	ldrbeq	r0, [r4], #2396	; 0x95c
     9e0:	aa040000 	bge	1009e8 <_Min_Stack_Size+0x1005e8>
     9e4:	009f1102 	addseq	r1, pc, r2, lsl #2
     9e8:	23020000 	movwcs	r0, #8192	; 0x2000
     9ec:	05600960 	strbeq	r0, [r0, #-2400]!	; 0xfffff6a0
     9f0:	ab040000 	blge	1009f8 <_Min_Stack_Size+0x1005f8>
     9f4:	00931102 	addseq	r1, r3, r2, lsl #2
     9f8:	23020000 	movwcs	r0, #8192	; 0x2000
     9fc:	05c10964 	strbeq	r0, [r1, #2404]	; 0x964
     a00:	ac040000 	stcge	0, cr0, [r4], {-0}
     a04:	009f1102 	addseq	r1, pc, r2, lsl #2
     a08:	23020000 	movwcs	r0, #8192	; 0x2000
     a0c:	04990968 	ldreq	r0, [r9], #2408	; 0x968
     a10:	ad040000 	stcge	0, cr0, [r4, #-0]
     a14:	009f1102 	addseq	r1, pc, r2, lsl #2
     a18:	23020000 	movwcs	r0, #8192	; 0x2000
     a1c:	05b7096c 	ldreq	r0, [r7, #2412]!	; 0x96c
     a20:	ae040000 	cdpge	0, 0, cr0, cr4, cr0, {0}
     a24:	009f1102 	addseq	r1, pc, r2, lsl #2
     a28:	23020000 	movwcs	r0, #8192	; 0x2000
     a2c:	056a0970 	strbeq	r0, [sl, #-2416]!	; 0xfffff690
     a30:	af040000 	svcge	0x00040000
     a34:	00931102 	addseq	r1, r3, r2, lsl #2
     a38:	23020000 	movwcs	r0, #8192	; 0x2000
     a3c:	04770974 	ldrbteq	r0, [r7], #-2420	; 0xfffff68c
     a40:	b0040000 	andlt	r0, r4, r0
     a44:	009f1102 	addseq	r1, pc, r2, lsl #2
     a48:	23020000 	movwcs	r0, #8192	; 0x2000
     a4c:	04820978 	streq	r0, [r2], #2424	; 0x978
     a50:	b1040000 	mrslt	r0, (UNDEF: 4)
     a54:	009f1102 	addseq	r1, pc, r2, lsl #2
     a58:	23020000 	movwcs	r0, #8192	; 0x2000
     a5c:	051a097c 	ldreq	r0, [sl, #-2428]	; 0xfffff684
     a60:	b2040000 	andlt	r0, r4, #0
     a64:	009f1102 	addseq	r1, pc, r2, lsl #2
     a68:	23030000 	movwcs	r0, #12288	; 0x3000
     a6c:	74090180 	strvc	r0, [r9], #-384	; 0xfffffe80
     a70:	04000005 	streq	r0, [r0], #-5
     a74:	931102b3 	tstls	r1, #805306379	; 0x3000000b
     a78:	03000000 	movweq	r0, #0
     a7c:	09018423 	stmdbeq	r1, {r0, r1, r5, sl, pc}
     a80:	00000449 	andeq	r0, r0, r9, asr #8
     a84:	1102b404 	tstne	r2, r4, lsl #8
     a88:	0000009f 	muleq	r0, pc, r0	; <UNPREDICTABLE>
     a8c:	01882303 	orreq	r2, r8, r3, lsl #6
     a90:	00057e09 	andeq	r7, r5, r9, lsl #28
     a94:	02b50400 	adcseq	r0, r5, #0, 8
     a98:	00009311 	andeq	r9, r0, r1, lsl r3
     a9c:	8c230300 	stchi	3, cr0, [r3], #-0
     aa0:	043f0901 	ldrteq	r0, [pc], #-2305	; aa8 <_Min_Stack_Size+0x6a8>
     aa4:	b6040000 	strlt	r0, [r4], -r0
     aa8:	009f1102 	addseq	r1, pc, r2, lsl #2
     aac:	23030000 	movwcs	r0, #12288	; 0x3000
     ab0:	430a0190 	movwmi	r0, #41360	; 0xa190
     ab4:	04005253 	streq	r5, [r0], #-595	; 0xfffffdad
     ab8:	9f1102b7 	svcls	0x001102b7
     abc:	03000000 	movweq	r0, #0
     ac0:	09019423 	stmdbeq	r1, {r0, r1, r5, sl, ip, pc}
     ac4:	000004dc 	ldrdeq	r0, [r0], -ip
     ac8:	1102b804 	tstne	r2, r4, lsl #16
     acc:	0000009f 	muleq	r0, pc, r0	; <UNPREDICTABLE>
     ad0:	01982303 	orrseq	r2, r8, r3, lsl #6
     ad4:	00050d09 	andeq	r0, r5, r9, lsl #26
     ad8:	02b90400 	adcseq	r0, r9, #0, 8
     adc:	00009f11 	andeq	r9, r0, r1, lsl pc
     ae0:	9c230300 	stcls	3, cr0, [r3], #-0
     ae4:	8d0b0001 	stchi	0, cr0, [fp, #-4]
     ae8:	04000004 	streq	r0, [r0], #-4
     aec:	710302ba 			; <UNDEFINED> instruction: 0x710302ba
     af0:	02000001 	andeq	r0, r0, #1
     af4:	01760408 	cmneq	r6, r8, lsl #8
     af8:	140c0000 	strne	r0, [ip], #-0
     afc:	6c092f05 	stcvs	15, cr2, [r9], {5}
     b00:	0d000004 	stceq	0, cr0, [r0, #-16]
     b04:	006e6950 	rsbeq	r6, lr, r0, asr r9
     b08:	930c3105 	movwls	r3, #49413	; 0xc105
     b0c:	02000000 	andeq	r0, r0, #0
     b10:	e00e0023 	and	r0, lr, r3, lsr #32
     b14:	05000019 	streq	r0, [r0, #-25]	; 0xffffffe7
     b18:	00930c34 	addseq	r0, r3, r4, lsr ip
     b1c:	23020000 	movwcs	r0, #8192	; 0x2000
     b20:	04440e04 	strbeq	r0, [r4], #-3588	; 0xfffff1fc
     b24:	37050000 	strcc	r0, [r5, -r0]
     b28:	0000930c 	andeq	r9, r0, ip, lsl #6
     b2c:	08230200 	stmdaeq	r3!, {r9}
     b30:	0005a00e 	andeq	sl, r5, lr
     b34:	0c3a0500 	cfldr32eq	mvfx0, [sl], #-0
     b38:	00000093 	muleq	r0, r3, r0
     b3c:	0e0c2302 	cdpeq	3, 0, cr2, cr12, cr2, {0}
     b40:	000005d4 	ldrdeq	r0, [r0], -r4
     b44:	930c3d05 	movwls	r3, #52485	; 0xcd05
     b48:	02000000 	andeq	r0, r0, #0
     b4c:	03001023 	movweq	r1, #35	; 0x23
     b50:	000005a6 	andeq	r0, r0, r6, lsr #11
     b54:	17033f05 	strne	r3, [r3, -r5, lsl #30]
     b58:	0f000004 	svceq	0x00000004
     b5c:	00300107 	eorseq	r0, r0, r7, lsl #2
     b60:	45050000 	strmi	r0, [r5, #-0]
     b64:	00049301 	andeq	r9, r4, r1, lsl #6
     b68:	04c51000 	strbeq	r1, [r5], #0
     b6c:	10000000 	andne	r0, r0, r0
     b70:	0000046a 	andeq	r0, r0, sl, ror #8
     b74:	01110001 	tsteq	r1, r1
     b78:	00000239 	andeq	r0, r0, r9, lsr r2
     b7c:	01062a01 	tsteq	r6, r1, lsl #20
     b80:	08000308 	stmdaeq	r0, {r3, r8, r9}
     b84:	0800037c 	stmdaeq	r0, {r2, r3, r4, r5, r6, r8, r9}
     b88:	0000010b 	andeq	r0, r0, fp, lsl #2
     b8c:	00054b01 	andeq	r4, r5, r1, lsl #22
     b90:	04e21200 	strbteq	r1, [r2], #512	; 0x200
     b94:	2d010000 	stccs	0, cr0, [r1, #-0]
     b98:	00046c14 	andeq	r6, r4, r4, lsl ip
     b9c:	5c910200 	lfmpl	f0, 4, [r1], {0}
     ba0:	00031813 	andeq	r1, r3, r3, lsl r8
     ba4:	00032c08 	andeq	r2, r3, r8, lsl #24
     ba8:	0004da08 	andeq	sp, r4, r8, lsl #20
     bac:	04be1200 	ldrteq	r1, [lr], #512	; 0x200
     bb0:	30010000 	andcc	r0, r1, r0
     bb4:	00009f03 	andeq	r9, r0, r3, lsl #30
     bb8:	50910200 	addspl	r0, r1, r0, lsl #4
     bbc:	032c1300 			; <UNDEFINED> instruction: 0x032c1300
     bc0:	033e0800 	teqeq	lr, #0, 16
     bc4:	04f70800 	ldrbteq	r0, [r7], #2048	; 0x800
     bc8:	be120000 	cdplt	0, 1, cr0, cr2, cr0, {0}
     bcc:	01000004 	tsteq	r0, r4
     bd0:	009f0331 	addseq	r0, pc, r1, lsr r3	; <UNPREDICTABLE>
     bd4:	91020000 	mrsls	r0, (UNDEF: 2)
     bd8:	3e130054 	mrccc	0, 0, r0, cr3, cr4, {2}
     bdc:	50080003 	andpl	r0, r8, r3
     be0:	14080003 	strne	r0, [r8], #-3
     be4:	12000005 	andne	r0, r0, #5
     be8:	000004be 			; <UNDEFINED> instruction: 0x000004be
     bec:	9f033201 	svcls	0x00033201
     bf0:	02000000 	andeq	r0, r0, #0
     bf4:	14005891 	strne	r5, [r0], #-2193	; 0xfffff76f
     bf8:	0800035c 	stmdaeq	r0, {r2, r3, r4, r6, r8, r9}
     bfc:	0000054b 	andeq	r0, r0, fp, asr #10
     c00:	00000534 	andeq	r0, r0, r4, lsr r5
     c04:	02500115 	subseq	r0, r0, #1073741829	; 0x40000005
     c08:	01150075 	tsteq	r5, r5, ror r0
     c0c:	80080251 	andhi	r0, r8, r1, asr r2
     c10:	02520115 	subseq	r0, r2, #1073741829	; 0x40000005
     c14:	16000074 			; <UNDEFINED> instruction: 0x16000074
     c18:	08000370 	stmdaeq	r0, {r4, r5, r6, r8, r9}
     c1c:	0000055a 	andeq	r0, r0, sl, asr r5
     c20:	02500115 	subseq	r0, r0, #1073741829	; 0x40000005
     c24:	01150075 	tsteq	r5, r5, ror r0
     c28:	5c910251 	lfmpl	f0, 4, [r1], {81}	; 0x51
     c2c:	01170000 	tsteq	r7, r0
     c30:	0004ac01 	andeq	sl, r4, r1, lsl #24
     c34:	0004ac00 	andeq	sl, r4, r0, lsl #24
     c38:	012b0500 			; <UNDEFINED> instruction: 0x012b0500
     c3c:	01011713 	tsteq	r1, r3, lsl r7
     c40:	0000040d 	andeq	r0, r0, sp, lsl #8
     c44:	0000040d 	andeq	r0, r0, sp, lsl #8
     c48:	13011d05 	movwne	r1, #7429	; 0x1d05
     c4c:	00015700 	andeq	r5, r1, r0, lsl #14
     c50:	7e000200 	cdpvc	2, 0, cr0, cr0, cr0, {0}
     c54:	04000004 	streq	r0, [r0], #-4
     c58:	00018201 	andeq	r8, r1, r1, lsl #4
     c5c:	067a0c00 	ldrbteq	r0, [sl], -r0, lsl #24
     c60:	00440000 	subeq	r0, r4, r0
     c64:	00480000 	subeq	r0, r8, r0
	...
     c70:	06f30000 	ldrbteq	r0, [r3], r0
     c74:	01020000 	mrseq	r0, (UNDEF: 2)
     c78:	00009f06 	andeq	r9, r0, r6, lsl #30
     c7c:	08010200 	stmdaeq	r1, {r9}
     c80:	0000009d 	muleq	r0, sp, r0
     c84:	63050202 	movwvs	r0, #20994	; 0x5202
     c88:	02000001 	andeq	r0, r0, #1
     c8c:	00270702 	eoreq	r0, r7, r2, lsl #14
     c90:	04020000 	streq	r0, [r2], #-0
     c94:	00012f05 	andeq	r2, r1, r5, lsl #30
     c98:	07040200 	streq	r0, [r4, -r0, lsl #4]
     c9c:	00000109 	andeq	r0, r0, r9, lsl #2
     ca0:	2a050802 	bcs	142cb0 <_Min_Stack_Size+0x1428b0>
     ca4:	02000001 	andeq	r0, r0, #1
     ca8:	01040708 	tsteq	r4, r8, lsl #14
     cac:	04030000 	streq	r0, [r3], #-0
     cb0:	746e6905 	strbtvc	r6, [lr], #-2309	; 0xfffff6fb
     cb4:	07040200 	streq	r0, [r4, -r0, lsl #4]
     cb8:	0000010e 	andeq	r0, r0, lr, lsl #2
     cbc:	76040802 	strvc	r0, [r4], -r2, lsl #16
     cc0:	04000001 	streq	r0, [r0], #-1
     cc4:	00064d01 	andeq	r4, r6, r1, lsl #26
     cc8:	06b70100 	ldrteq	r0, [r7], r0, lsl #2
     ccc:	00038c01 	andeq	r8, r3, r1, lsl #24
     cd0:	00039408 	andeq	r9, r3, r8, lsl #8
     cd4:	00014308 	andeq	r4, r1, r8, lsl #6
     cd8:	009b0100 	addseq	r0, fp, r0, lsl #2
     cdc:	92050000 	andls	r0, r5, #0
     ce0:	4b080003 	blmi	200cf4 <_Min_Stack_Size+0x2008f4>
     ce4:	00000001 	andeq	r0, r0, r1
     ce8:	05de0106 	ldrbeq	r0, [lr, #262]	; 0x106
     cec:	aa010000 	bge	40cf4 <_Min_Stack_Size+0x408f4>
     cf0:	038a0106 	orreq	r0, sl, #-2147483647	; 0x80000001
     cf4:	038c0800 	orreq	r0, ip, #0, 16
     cf8:	7d020800 	stcvc	8, cr0, [r2, #-0]
     cfc:	01060100 	mrseq	r0, (UNDEF: 22)
     d00:	00000669 	andeq	r0, r0, r9, ror #12
     d04:	01069d01 	tsteq	r6, r1, lsl #26
     d08:	08000388 	stmdaeq	r0, {r3, r7, r8, r9}
     d0c:	0800038a 	stmdaeq	r0, {r1, r3, r7, r8, r9}
     d10:	01007d02 	tsteq	r0, r2, lsl #26
     d14:	065d0106 	ldrbeq	r0, [sp], -r6, lsl #2
     d18:	90010000 	andls	r0, r1, r0
     d1c:	03860106 	orreq	r0, r6, #-2147483647	; 0x80000001
     d20:	03880800 	orreq	r0, r8, #0, 16
     d24:	7d020800 	stcvc	8, cr0, [r2, #-0]
     d28:	01060100 	mrseq	r0, (UNDEF: 22)
     d2c:	000005f9 	strdeq	r0, [r0], -r9
     d30:	01068101 	tsteq	r6, r1, lsl #2
     d34:	08000384 	stmdaeq	r0, {r2, r7, r8, r9}
     d38:	08000386 	stmdaeq	r0, {r1, r2, r7, r8, r9}
     d3c:	01007d02 	tsteq	r0, r2, lsl #26
     d40:	060c0106 	streq	r0, [ip], -r6, lsl #2
     d44:	72010000 	andvc	r0, r1, #0
     d48:	03820106 	orreq	r0, r2, #-2147483647	; 0x80000001
     d4c:	03840800 	orreq	r0, r4, #0, 16
     d50:	7d020800 	stcvc	8, cr0, [r2, #-0]
     d54:	01060100 	mrseq	r0, (UNDEF: 22)
     d58:	0000063b 	andeq	r0, r0, fp, lsr r6
     d5c:	01066301 	tsteq	r6, r1, lsl #6
     d60:	08000380 	stmdaeq	r0, {r7, r8, r9}
     d64:	08000382 	stmdaeq	r0, {r1, r7, r8, r9}
     d68:	01007d02 	tsteq	r0, r2, lsl #26
     d6c:	061d0106 	ldreq	r0, [sp], -r6, lsl #2
     d70:	54010000 	strpl	r0, [r1], #-0
     d74:	037e0106 	cmneq	lr, #-2147483647	; 0x80000001
     d78:	03800800 	orreq	r0, r0, #0, 16
     d7c:	7d020800 	stcvc	8, cr0, [r2, #-0]
     d80:	01060100 	mrseq	r0, (UNDEF: 22)
     d84:	0000062f 	andeq	r0, r0, pc, lsr #12
     d88:	01064501 	tsteq	r6, r1, lsl #10
     d8c:	0800037c 	stmdaeq	r0, {r2, r3, r4, r5, r6, r8, r9}
     d90:	0800037e 	stmdaeq	r0, {r1, r2, r3, r4, r5, r6, r8, r9}
     d94:	01007d02 	tsteq	r0, r2, lsl #26
     d98:	ed010107 	stfs	f0, [r1, #-28]	; 0xffffffe4
     d9c:	ed000005 	stc	0, cr0, [r0, #-20]	; 0xffffffec
     da0:	02000005 	andeq	r0, r0, #5
     da4:	00060218 	andeq	r0, r6, r8, lsl r2
     da8:	0000039d 	muleq	r0, sp, r3
     dac:	04ff0002 	ldrbteq	r0, [pc], #2	; db4 <_Min_Stack_Size+0x9b4>
     db0:	01040000 	mrseq	r0, (UNDEF: 4)
     db4:	00000182 	andeq	r0, r0, r2, lsl #3
     db8:	00068d0c 	andeq	r8, r6, ip, lsl #26
     dbc:	00004400 	andeq	r4, r0, r0, lsl #8
     dc0:	00009800 	andeq	r9, r0, r0, lsl #16
	...
     dcc:	00086700 	andeq	r6, r8, r0, lsl #14
     dd0:	06010200 	streq	r0, [r1], -r0, lsl #4
     dd4:	0000009f 	muleq	r0, pc, r0	; <UNPREDICTABLE>
     dd8:	9d080102 	stflss	f0, [r8, #-8]
     ddc:	02000000 	andeq	r0, r0, #0
     de0:	01630502 	cmneq	r3, r2, lsl #10
     de4:	02020000 	andeq	r0, r2, #0
     de8:	00002707 	andeq	r2, r0, r7, lsl #14
     dec:	05040200 	streq	r0, [r4, #-512]	; 0xfffffe00
     df0:	0000012f 	andeq	r0, r0, pc, lsr #2
     df4:	0000dc03 	andeq	sp, r0, r3, lsl #24
     df8:	194f0200 	stmdbne	pc, {r9}^	; <UNPREDICTABLE>
     dfc:	00000058 	andeq	r0, r0, r8, asr r0
     e00:	09070402 	stmdbeq	r7, {r1, sl}
     e04:	02000001 	andeq	r0, r0, #1
     e08:	012a0508 			; <UNDEFINED> instruction: 0x012a0508
     e0c:	08020000 	stmdaeq	r2, {}	; <UNPREDICTABLE>
     e10:	00010407 	andeq	r0, r1, r7, lsl #8
     e14:	05040400 	streq	r0, [r4, #-1024]	; 0xfffffc00
     e18:	00746e69 	rsbseq	r6, r4, r9, ror #28
     e1c:	0e070402 	cdpeq	4, 0, cr0, cr7, cr2, {0}
     e20:	03000001 	movweq	r0, #1
     e24:	000000de 	ldrdeq	r0, [r0], -lr
     e28:	4c143003 	ldcmi	0, cr3, [r4], {3}
     e2c:	05000000 	streq	r0, [r0, #-0]
     e30:	0000007b 	andeq	r0, r0, fp, ror r0
     e34:	9004a006 	andls	sl, r4, r6
     e38:	031e0902 	tsteq	lr, #32768	; 0x8000
     e3c:	43070000 	movwmi	r0, #28672	; 0x7000
     e40:	92040052 	andls	r0, r4, #82	; 0x52
     e44:	00871102 	addeq	r1, r7, r2, lsl #2
     e48:	23020000 	movwcs	r0, #8192	; 0x2000
     e4c:	05140800 	ldreq	r0, [r4, #-2048]	; 0xfffff800
     e50:	93040000 	movwls	r0, #16384	; 0x4000
     e54:	00871102 	addeq	r1, r7, r2, lsl #2
     e58:	23020000 	movwcs	r0, #8192	; 0x2000
     e5c:	041e0804 	ldreq	r0, [lr], #-2052	; 0xfffff7fc
     e60:	94040000 	strls	r0, [r4], #-0
     e64:	00871102 	addeq	r1, r7, r2, lsl #2
     e68:	23020000 	movwcs	r0, #8192	; 0x2000
     e6c:	041b0808 	ldreq	r0, [fp], #-2056	; 0xfffff7f8
     e70:	95040000 	strls	r0, [r4, #-0]
     e74:	00871102 	addeq	r1, r7, r2, lsl #2
     e78:	23020000 	movwcs	r0, #8192	; 0x2000
     e7c:	0524080c 	streq	r0, [r4, #-2060]!	; 0xfffff7f4
     e80:	96040000 	strls	r0, [r4], -r0
     e84:	007b1102 	rsbseq	r1, fp, r2, lsl #2
     e88:	23020000 	movwcs	r0, #8192	; 0x2000
     e8c:	052e0810 	streq	r0, [lr, #-2064]!	; 0xfffff7f0
     e90:	97040000 	strls	r0, [r4, -r0]
     e94:	007b1102 	rsbseq	r1, fp, r2, lsl #2
     e98:	23020000 	movwcs	r0, #8192	; 0x2000
     e9c:	045d0814 	ldrbeq	r0, [sp], #-2068	; 0xfffff7ec
     ea0:	98040000 	stmdals	r4, {}	; <UNPREDICTABLE>
     ea4:	00871102 	addeq	r1, r7, r2, lsl #2
     ea8:	23020000 	movwcs	r0, #8192	; 0x2000
     eac:	05880818 	streq	r0, [r8, #2072]	; 0x818
     eb0:	99040000 	stmdbls	r4, {}	; <UNPREDICTABLE>
     eb4:	00871102 	addeq	r1, r7, r2, lsl #2
     eb8:	23020000 	movwcs	r0, #8192	; 0x2000
     ebc:	044f081c 	strbeq	r0, [pc], #-2076	; ec4 <_Min_Stack_Size+0xac4>
     ec0:	9a040000 	bls	100ec8 <_Min_Stack_Size+0x100ac8>
     ec4:	00871102 	addeq	r1, r7, r2, lsl #2
     ec8:	23020000 	movwcs	r0, #8192	; 0x2000
     ecc:	05380820 	ldreq	r0, [r8, #-2080]!	; 0xfffff7e0
     ed0:	9b040000 	blls	100ed8 <_Min_Stack_Size+0x100ad8>
     ed4:	007b1102 	rsbseq	r1, fp, r2, lsl #2
     ed8:	23020000 	movwcs	r0, #8192	; 0x2000
     edc:	04540824 	ldrbeq	r0, [r4], #-2084	; 0xfffff7dc
     ee0:	9c040000 	stcls	0, cr0, [r4], {-0}
     ee4:	00871102 	addeq	r1, r7, r2, lsl #2
     ee8:	23020000 	movwcs	r0, #8192	; 0x2000
     eec:	04f20828 	ldrbteq	r0, [r2], #2088	; 0x828
     ef0:	9d040000 	stcls	0, cr0, [r4, #-0]
     ef4:	00871102 	addeq	r1, r7, r2, lsl #2
     ef8:	23020000 	movwcs	r0, #8192	; 0x2000
     efc:	05cb082c 	strbeq	r0, [fp, #2092]	; 0x82c
     f00:	9e040000 	cdpls	0, 0, cr0, cr4, cr0, {0}
     f04:	00871102 	addeq	r1, r7, r2, lsl #2
     f08:	23020000 	movwcs	r0, #8192	; 0x2000
     f0c:	05420830 	strbeq	r0, [r2, #-2096]	; 0xfffff7d0
     f10:	9f040000 	svcls	0x00040000
     f14:	007b1102 	rsbseq	r1, fp, r2, lsl #2
     f18:	23020000 	movwcs	r0, #8192	; 0x2000
     f1c:	04230834 	strteq	r0, [r3], #-2100	; 0xfffff7cc
     f20:	a0040000 	andge	r0, r4, r0
     f24:	00871102 	addeq	r1, r7, r2, lsl #2
     f28:	23020000 	movwcs	r0, #8192	; 0x2000
     f2c:	042d0838 	strteq	r0, [sp], #-2104	; 0xfffff7c8
     f30:	a1040000 	mrsge	r0, (UNDEF: 4)
     f34:	00871102 	addeq	r1, r7, r2, lsl #2
     f38:	23020000 	movwcs	r0, #8192	; 0x2000
     f3c:	04a3083c 	strteq	r0, [r3], #2108	; 0x83c
     f40:	a2040000 	andge	r0, r4, #0
     f44:	00871102 	addeq	r1, r7, r2, lsl #2
     f48:	23020000 	movwcs	r0, #8192	; 0x2000
     f4c:	054c0840 	strbeq	r0, [ip, #-2112]	; 0xfffff7c0
     f50:	a3040000 	movwge	r0, #16384	; 0x4000
     f54:	007b1102 	rsbseq	r1, fp, r2, lsl #2
     f58:	23020000 	movwcs	r0, #8192	; 0x2000
     f5c:	058d0844 	streq	r0, [sp, #2116]	; 0x844
     f60:	a4040000 	strge	r0, [r4], #-0
     f64:	00871102 	addeq	r1, r7, r2, lsl #2
     f68:	23020000 	movwcs	r0, #8192	; 0x2000
     f6c:	04370848 	ldrteq	r0, [r7], #-2120	; 0xfffff7b8
     f70:	a5040000 	strge	r0, [r4, #-0]
     f74:	00871102 	addeq	r1, r7, r2, lsl #2
     f78:	23020000 	movwcs	r0, #8192	; 0x2000
     f7c:	0462084c 	strbteq	r0, [r2], #-2124	; 0xfffff7b4
     f80:	a6040000 	strge	r0, [r4], -r0
     f84:	00871102 	addeq	r1, r7, r2, lsl #2
     f88:	23020000 	movwcs	r0, #8192	; 0x2000
     f8c:	05560850 	ldrbeq	r0, [r6, #-2128]	; 0xfffff7b0
     f90:	a7040000 	strge	r0, [r4, -r0]
     f94:	007b1102 	rsbseq	r1, fp, r2, lsl #2
     f98:	23020000 	movwcs	r0, #8192	; 0x2000
     f9c:	04fb0854 	ldrbteq	r0, [fp], #2132	; 0x854
     fa0:	a8040000 	stmdage	r4, {}	; <UNPREDICTABLE>
     fa4:	00871102 	addeq	r1, r7, r2, lsl #2
     fa8:	23020000 	movwcs	r0, #8192	; 0x2000
     fac:	05040858 	streq	r0, [r4, #-2136]	; 0xfffff7a8
     fb0:	a9040000 	stmdbge	r4, {}	; <UNPREDICTABLE>
     fb4:	00871102 	addeq	r1, r7, r2, lsl #2
     fb8:	23020000 	movwcs	r0, #8192	; 0x2000
     fbc:	04d4085c 	ldrbeq	r0, [r4], #2140	; 0x85c
     fc0:	aa040000 	bge	100fc8 <_Min_Stack_Size+0x100bc8>
     fc4:	00871102 	addeq	r1, r7, r2, lsl #2
     fc8:	23020000 	movwcs	r0, #8192	; 0x2000
     fcc:	05600860 	strbeq	r0, [r0, #-2144]!	; 0xfffff7a0
     fd0:	ab040000 	blge	100fd8 <_Min_Stack_Size+0x100bd8>
     fd4:	007b1102 	rsbseq	r1, fp, r2, lsl #2
     fd8:	23020000 	movwcs	r0, #8192	; 0x2000
     fdc:	05c10864 	strbeq	r0, [r1, #2148]	; 0x864
     fe0:	ac040000 	stcge	0, cr0, [r4], {-0}
     fe4:	00871102 	addeq	r1, r7, r2, lsl #2
     fe8:	23020000 	movwcs	r0, #8192	; 0x2000
     fec:	04990868 	ldreq	r0, [r9], #2152	; 0x868
     ff0:	ad040000 	stcge	0, cr0, [r4, #-0]
     ff4:	00871102 	addeq	r1, r7, r2, lsl #2
     ff8:	23020000 	movwcs	r0, #8192	; 0x2000
     ffc:	05b7086c 	ldreq	r0, [r7, #2156]!	; 0x86c
    1000:	ae040000 	cdpge	0, 0, cr0, cr4, cr0, {0}
    1004:	00871102 	addeq	r1, r7, r2, lsl #2
    1008:	23020000 	movwcs	r0, #8192	; 0x2000
    100c:	056a0870 	strbeq	r0, [sl, #-2160]!	; 0xfffff790
    1010:	af040000 	svcge	0x00040000
    1014:	007b1102 	rsbseq	r1, fp, r2, lsl #2
    1018:	23020000 	movwcs	r0, #8192	; 0x2000
    101c:	04770874 	ldrbteq	r0, [r7], #-2164	; 0xfffff78c
    1020:	b0040000 	andlt	r0, r4, r0
    1024:	00871102 	addeq	r1, r7, r2, lsl #2
    1028:	23020000 	movwcs	r0, #8192	; 0x2000
    102c:	04820878 	streq	r0, [r2], #2168	; 0x878
    1030:	b1040000 	mrslt	r0, (UNDEF: 4)
    1034:	00871102 	addeq	r1, r7, r2, lsl #2
    1038:	23020000 	movwcs	r0, #8192	; 0x2000
    103c:	051a087c 	ldreq	r0, [sl, #-2172]	; 0xfffff784
    1040:	b2040000 	andlt	r0, r4, #0
    1044:	00871102 	addeq	r1, r7, r2, lsl #2
    1048:	23030000 	movwcs	r0, #12288	; 0x3000
    104c:	74080180 	strvc	r0, [r8], #-384	; 0xfffffe80
    1050:	04000005 	streq	r0, [r0], #-5
    1054:	7b1102b3 	blvc	441b28 <_Min_Stack_Size+0x441728>
    1058:	03000000 	movweq	r0, #0
    105c:	08018423 	stmdaeq	r1, {r0, r1, r5, sl, pc}
    1060:	00000449 	andeq	r0, r0, r9, asr #8
    1064:	1102b404 	tstne	r2, r4, lsl #8
    1068:	00000087 	andeq	r0, r0, r7, lsl #1
    106c:	01882303 	orreq	r2, r8, r3, lsl #6
    1070:	00057e08 	andeq	r7, r5, r8, lsl #28
    1074:	02b50400 	adcseq	r0, r5, #0, 8
    1078:	00007b11 	andeq	r7, r0, r1, lsl fp
    107c:	8c230300 	stchi	3, cr0, [r3], #-0
    1080:	043f0801 	ldrteq	r0, [pc], #-2049	; 1088 <_Min_Stack_Size+0xc88>
    1084:	b6040000 	strlt	r0, [r4], -r0
    1088:	00871102 	addeq	r1, r7, r2, lsl #2
    108c:	23030000 	movwcs	r0, #12288	; 0x3000
    1090:	43070190 	movwmi	r0, #29072	; 0x7190
    1094:	04005253 	streq	r5, [r0], #-595	; 0xfffffdad
    1098:	871102b7 			; <UNDEFINED> instruction: 0x871102b7
    109c:	03000000 	movweq	r0, #0
    10a0:	08019423 	stmdaeq	r1, {r0, r1, r5, sl, ip, pc}
    10a4:	000004dc 	ldrdeq	r0, [r0], -ip
    10a8:	1102b804 	tstne	r2, r4, lsl #16
    10ac:	00000087 	andeq	r0, r0, r7, lsl #1
    10b0:	01982303 	orrseq	r2, r8, r3, lsl #6
    10b4:	00050d08 	andeq	r0, r5, r8, lsl #26
    10b8:	02b90400 	adcseq	r0, r9, #0, 8
    10bc:	00008711 	andeq	r8, r0, r1, lsl r7
    10c0:	9c230300 	stcls	3, cr0, [r3], #-0
    10c4:	8d090001 	stchi	0, cr0, [r9, #-4]
    10c8:	04000004 	streq	r0, [r0], #-4
    10cc:	8c0302ba 	sfmhi	f0, 4, [r3], {186}	; 0xba
    10d0:	02000000 	andeq	r0, r0, #0
    10d4:	01760408 	cmneq	r6, r8, lsl #8
    10d8:	010a0000 	mrseq	r0, (UNDEF: 10)
    10dc:	000006a5 	andeq	r0, r0, r5, lsr #13
    10e0:	01064001 	tsteq	r6, r1
    10e4:	08000394 	stmdaeq	r0, {r2, r4, r7, r8, r9}
    10e8:	080003cc 	stmdaeq	r0, {r2, r3, r6, r7, r8, r9}
    10ec:	00000163 	andeq	r0, r0, r3, ror #2
    10f0:	00039101 	andeq	r9, r3, r1, lsl #2
    10f4:	03980b00 	orrseq	r0, r8, #0, 22
    10f8:	03ac0800 			; <UNDEFINED> instruction: 0x03ac0800
    10fc:	036a0800 	cmneq	sl, #0, 16
    1100:	be0c0000 	cdplt	0, 0, cr0, cr12, cr0, {0}
    1104:	01000004 	tsteq	r0, r4
    1108:	00870346 	addeq	r0, r7, r6, asr #6
    110c:	91020000 	mrsls	r0, (UNDEF: 2)
    1110:	ac0b0070 	stcge	0, cr0, [fp], {112}	; 0x70
    1114:	be080003 	cdplt	0, 0, cr0, cr8, cr3, {0}
    1118:	87080003 	strhi	r0, [r8, -r3]
    111c:	0c000003 	stceq	0, cr0, [r0], {3}
    1120:	000004be 			; <UNDEFINED> instruction: 0x000004be
    1124:	87034701 	strhi	r4, [r3, -r1, lsl #14]
    1128:	02000000 	andeq	r0, r0, #0
    112c:	0d007491 	cfstrseq	mvf7, [r0, #-580]	; 0xfffffdbc
    1130:	080003c2 	stmdaeq	r0, {r1, r6, r7, r8, r9}
    1134:	00000391 	muleq	r0, r1, r3
    1138:	01010e00 	tsteq	r1, r0, lsl #28
    113c:	000006b1 			; <UNDEFINED> instruction: 0x000006b1
    1140:	000006b1 			; <UNDEFINED> instruction: 0x000006b1
    1144:	06031805 	streq	r1, [r3], -r5, lsl #16
    1148:	00064500 	andeq	r4, r6, r0, lsl #10
    114c:	d8000200 	stmdale	r0, {r9}
    1150:	04000005 	streq	r0, [r0], #-5
    1154:	00018201 	andeq	r8, r1, r1, lsl #4
    1158:	07880c00 	streq	r0, [r8, r0, lsl #24]
    115c:	00440000 	subeq	r0, r4, r0
    1160:	00a80000 	adceq	r0, r8, r0
	...
    116c:	09f30000 	ldmibeq	r3!, {}^	; <UNPREDICTABLE>
    1170:	01020000 	mrseq	r0, (UNDEF: 2)
    1174:	00009f06 	andeq	r9, r0, r6, lsl #30
    1178:	07040300 	streq	r0, [r4, -r0, lsl #6]
    117c:	2b020000 	blcs	81184 <_Min_Stack_Size+0x80d84>
    1180:	00003c18 	andeq	r3, r0, r8, lsl ip
    1184:	08010200 	stmdaeq	r1, {r9}
    1188:	0000009d 	muleq	r0, sp, r0
    118c:	63050202 	movwvs	r0, #20994	; 0x5202
    1190:	02000001 	andeq	r0, r0, #1
    1194:	00270702 	eoreq	r0, r7, r2, lsl #14
    1198:	04020000 	streq	r0, [r2], #-0
    119c:	00012f05 	andeq	r2, r1, r5, lsl #30
    11a0:	00dc0300 	sbcseq	r0, ip, r0, lsl #6
    11a4:	4f020000 	svcmi	0x00020000
    11a8:	00006419 	andeq	r6, r0, r9, lsl r4
    11ac:	07040200 	streq	r0, [r4, -r0, lsl #4]
    11b0:	00000109 	andeq	r0, r0, r9, lsl #2
    11b4:	2a050802 	bcs	1431c4 <_Min_Stack_Size+0x142dc4>
    11b8:	02000001 	andeq	r0, r0, #1
    11bc:	01040708 	tsteq	r4, r8, lsl #14
    11c0:	04040000 	streq	r0, [r4], #-0
    11c4:	746e6905 	strbtvc	r6, [lr], #-2309	; 0xfffff6fb
    11c8:	07040200 	streq	r0, [r4, -r0, lsl #4]
    11cc:	0000010e 	andeq	r0, r0, lr, lsl #2
    11d0:	00070603 	andeq	r0, r7, r3, lsl #12
    11d4:	13180300 	tstne	r8, #0, 6
    11d8:	00000030 	andeq	r0, r0, r0, lsr r0
    11dc:	00008705 	andeq	r8, r0, r5, lsl #14
    11e0:	00870600 	addeq	r0, r7, r0, lsl #12
    11e4:	de030000 	cdple	0, 0, cr0, cr3, cr0, {0}
    11e8:	03000000 	movweq	r0, #0
    11ec:	00581430 	subseq	r1, r8, r0, lsr r4
    11f0:	9d050000 	stcls	0, cr0, [r5, #-0]
    11f4:	06000000 	streq	r0, [r0], -r0
    11f8:	000000a9 	andeq	r0, r0, r9, lsr #1
    11fc:	b8048c07 	stmdalt	r4, {r0, r1, r2, sl, fp, pc}
    1200:	020f0901 	andeq	r0, pc, #16384	; 0x4000
    1204:	d2080000 	andle	r0, r8, #0
    1208:	04000006 	streq	r0, [r0], #-6
    120c:	ae1201ba 	mrcge	1, 0, r0, cr2, cr10, {5}
    1210:	02000000 	andeq	r0, r0, #0
    1214:	fa080023 	blx	2012a8 <_Min_Stack_Size+0x200ea8>
    1218:	04000006 	streq	r0, [r0], #-6
    121c:	a91201bb 	ldmdbge	r2, {r0, r1, r3, r4, r5, r7, r8}
    1220:	02000000 	andeq	r0, r0, #0
    1224:	4e080423 	cdpmi	4, 0, cr0, cr8, cr3, {1}
    1228:	04000007 	streq	r0, [r0], #-7
    122c:	a91201bc 	ldmdbge	r2, {r2, r3, r4, r5, r7, r8}
    1230:	02000000 	andeq	r0, r0, #0
    1234:	35080823 	strcc	r0, [r8, #-2083]	; 0xfffff7dd
    1238:	04000007 	streq	r0, [r0], #-7
    123c:	a91201bd 	ldmdbge	r2, {r0, r2, r3, r4, r5, r7, r8}
    1240:	02000000 	andeq	r0, r0, #0
    1244:	53090c23 	movwpl	r0, #39971	; 0x9c23
    1248:	04005243 	streq	r5, [r0], #-579	; 0xfffffdbd
    124c:	a91201be 	ldmdbge	r2, {r1, r2, r3, r4, r5, r7, r8}
    1250:	02000000 	andeq	r0, r0, #0
    1254:	43091023 	movwmi	r1, #36899	; 0x9023
    1258:	04005243 	streq	r5, [r0], #-579	; 0xfffffdbd
    125c:	a91201bf 	ldmdbge	r2, {r0, r1, r2, r3, r4, r5, r7, r8}
    1260:	02000000 	andeq	r0, r0, #0
    1264:	53091423 	movwpl	r1, #37923	; 0x9423
    1268:	04005048 	streq	r5, [r0], #-72	; 0xffffffb8
    126c:	1f1201c0 	svcne	0x001201c0
    1270:	02000002 	andeq	r0, r0, #2
    1274:	3b081823 	blcc	207308 <_Min_Stack_Size+0x206f08>
    1278:	04000007 	streq	r0, [r0], #-7
    127c:	a91201c1 	ldmdbge	r2, {r0, r6, r7, r8}
    1280:	02000000 	andeq	r0, r0, #0
    1284:	0e082423 	cdpeq	4, 0, cr2, cr8, cr3, {1}
    1288:	04000007 	streq	r0, [r0], #-7
    128c:	a91201c2 	ldmdbge	r2, {r1, r6, r7, r8}
    1290:	02000000 	andeq	r0, r0, #0
    1294:	83082823 	movwhi	r2, #34851	; 0x8823
    1298:	04000007 	streq	r0, [r0], #-7
    129c:	a91201c3 	ldmdbge	r2, {r0, r1, r6, r7, r8}
    12a0:	02000000 	andeq	r0, r0, #0
    12a4:	6e082c23 	cdpvs	12, 0, cr2, cr8, cr3, {1}
    12a8:	04000007 	streq	r0, [r0], #-7
    12ac:	a91201c4 	ldmdbge	r2, {r2, r6, r7, r8}
    12b0:	02000000 	andeq	r0, r0, #0
    12b4:	41083023 	tstmi	r8, r3, lsr #32
    12b8:	04000007 	streq	r0, [r0], #-7
    12bc:	a91201c5 	ldmdbge	r2, {r0, r2, r6, r7, r8}
    12c0:	02000000 	andeq	r0, r0, #0
    12c4:	ff083423 			; <UNDEFINED> instruction: 0xff083423
    12c8:	04000006 	streq	r0, [r0], #-6
    12cc:	a91201c6 	ldmdbge	r2, {r1, r2, r6, r7, r8}
    12d0:	02000000 	andeq	r0, r0, #0
    12d4:	a4083823 	strge	r3, [r8], #-2083	; 0xfffff7dd
    12d8:	04000007 	streq	r0, [r0], #-7
    12dc:	a91201c7 	ldmdbge	r2, {r0, r1, r2, r6, r7, r8}
    12e0:	02000000 	andeq	r0, r0, #0
    12e4:	50093c23 	andpl	r3, r9, r3, lsr #24
    12e8:	04005246 	streq	r5, [r0], #-582	; 0xfffffdba
    12ec:	391201c8 	ldmdbcc	r2, {r3, r6, r7, r8}
    12f0:	02000002 	andeq	r0, r0, #2
    12f4:	44094023 	strmi	r4, [r9], #-35	; 0xffffffdd
    12f8:	04005246 	streq	r5, [r0], #-582	; 0xfffffdba
    12fc:	ae1201c9 	mufgedm	f0, f2, #1.0
    1300:	02000000 	andeq	r0, r0, #0
    1304:	41094823 	tstmi	r9, r3, lsr #16
    1308:	04005244 	streq	r5, [r0], #-580	; 0xfffffdbc
    130c:	ae1201ca 	mufgedm	f0, f2, #2.0
    1310:	02000000 	andeq	r0, r0, #0
    1314:	9f084c23 	svcls	0x00084c23
    1318:	04000007 	streq	r0, [r0], #-7
    131c:	531201cb 	tstpl	r2, #-1073741774	; 0xc0000032
    1320:	02000002 	andeq	r0, r0, #2
    1324:	69085023 	stmdbvs	r8, {r0, r1, r5, ip, lr}
    1328:	04000007 	streq	r0, [r0], #-7
    132c:	6d1201cc 	ldfvss	f0, [r2, #-816]	; 0xfffffcd0
    1330:	02000002 	andeq	r0, r0, #2
    1334:	24086023 	strcs	r6, [r8], #-35	; 0xffffffdd
    1338:	04000005 	streq	r0, [r0], #-5
    133c:	721201cd 	andsvc	r0, r2, #1073741875	; 0x40000033
    1340:	02000002 	andeq	r0, r0, #2
    1344:	a9087423 	stmdbge	r8, {r0, r1, r5, sl, ip, sp, lr}
    1348:	04000007 	streq	r0, [r0], #-7
    134c:	a91201ce 	ldmdbge	r2, {r1, r2, r3, r6, r7, r8}
    1350:	03000000 	movweq	r0, #0
    1354:	00018823 	andeq	r8, r1, r3, lsr #16
    1358:	0000930a 	andeq	r9, r0, sl, lsl #6
    135c:	00021f00 	andeq	r1, r2, r0, lsl #30
    1360:	00800b00 	addeq	r0, r0, r0, lsl #22
    1364:	000b0000 	andeq	r0, fp, r0
    1368:	00020f05 	andeq	r0, r2, r5, lsl #30
    136c:	00ae0a00 	adceq	r0, lr, r0, lsl #20
    1370:	02340000 	eorseq	r0, r4, #0
    1374:	800b0000 	andhi	r0, fp, r0
    1378:	01000000 	mrseq	r0, (UNDEF: 0)
    137c:	02240600 	eoreq	r0, r4, #0, 12
    1380:	34050000 	strcc	r0, [r5], #-0
    1384:	0a000002 	beq	1394 <_Min_Stack_Size+0xf94>
    1388:	000000ae 	andeq	r0, r0, lr, lsr #1
    138c:	0000024e 	andeq	r0, r0, lr, asr #4
    1390:	0000800b 	andeq	r8, r0, fp
    1394:	06000300 	streq	r0, [r0], -r0, lsl #6
    1398:	0000023e 	andeq	r0, r0, lr, lsr r2
    139c:	00024e05 	andeq	r4, r2, r5, lsl #28
    13a0:	00ae0a00 	adceq	r0, lr, r0, lsl #20
    13a4:	02680000 	rsbeq	r0, r8, #0
    13a8:	800b0000 	andhi	r0, fp, r0
    13ac:	04000000 	streq	r0, [r0], #-0
    13b0:	02580600 	subseq	r0, r8, #0, 12
    13b4:	68050000 	stmdavs	r5, {}	; <UNPREDICTABLE>
    13b8:	0a000002 	beq	13c8 <_Min_Stack_Size+0xfc8>
    13bc:	0000009d 	muleq	r0, sp, r0
    13c0:	00000282 	andeq	r0, r0, r2, lsl #5
    13c4:	0000800b 	andeq	r8, r0, fp
    13c8:	0c000400 	cfstrseq	mvf0, [r0], {-0}
    13cc:	000006e3 	andeq	r0, r0, r3, ror #13
    13d0:	0301cf04 	movweq	ip, #7940	; 0x1f04
    13d4:	000000b3 	strheq	r0, [r0], -r3
    13d8:	0007730d 	andeq	r7, r7, sp, lsl #6
    13dc:	11390500 	teqne	r9, r0, lsl #10
    13e0:	0000009d 	muleq	r0, sp, r0
    13e4:	980a0101 	stmdals	sl, {r0, r8}
    13e8:	ad000000 	stcge	0, cr0, [r0, #-0]
    13ec:	0b000002 	bleq	13fc <_Min_Stack_Size+0xffc>
    13f0:	00000080 	andeq	r0, r0, r0, lsl #1
    13f4:	9d06000f 	stcls	0, cr0, [r6, #-60]	; 0xffffffc4
    13f8:	0d000002 	stceq	0, cr0, [r0, #-8]
    13fc:	000006ec 	andeq	r0, r0, ip, ror #13
    1400:	ad173b05 	vldrge	d3, [r7, #-20]	; 0xffffffec
    1404:	01000002 	tsteq	r0, r2
    1408:	00980a01 	addseq	r0, r8, r1, lsl #20
    140c:	02d00000 	sbcseq	r0, r0, #0
    1410:	800b0000 	andhi	r0, fp, r0
    1414:	07000000 	streq	r0, [r0, -r0]
    1418:	02c00600 	sbceq	r0, r0, #0, 12
    141c:	130d0000 	movwne	r0, #53248	; 0xd000
    1420:	05000007 	streq	r0, [r0, #-7]
    1424:	02d0173c 	sbcseq	r1, r0, #60, 14	; 0xf00000
    1428:	01010000 	mrseq	r0, (UNDEF: 1)
    142c:	9006a007 	andls	sl, r6, r7
    1430:	05750902 	ldrbeq	r0, [r5, #-2306]!	; 0xfffff6fe
    1434:	43090000 	movwmi	r0, #36864	; 0x9000
    1438:	92060052 	andls	r0, r6, #82	; 0x52
    143c:	00a91102 	adceq	r1, r9, r2, lsl #2
    1440:	23020000 	movwcs	r0, #8192	; 0x2000
    1444:	05140800 	ldreq	r0, [r4, #-2048]	; 0xfffff800
    1448:	93060000 	movwls	r0, #24576	; 0x6000
    144c:	00a91102 	adceq	r1, r9, r2, lsl #2
    1450:	23020000 	movwcs	r0, #8192	; 0x2000
    1454:	041e0804 	ldreq	r0, [lr], #-2052	; 0xfffff7fc
    1458:	94060000 	strls	r0, [r6], #-0
    145c:	00a91102 	adceq	r1, r9, r2, lsl #2
    1460:	23020000 	movwcs	r0, #8192	; 0x2000
    1464:	041b0808 	ldreq	r0, [fp], #-2056	; 0xfffff7f8
    1468:	95060000 	strls	r0, [r6, #-0]
    146c:	00a91102 	adceq	r1, r9, r2, lsl #2
    1470:	23020000 	movwcs	r0, #8192	; 0x2000
    1474:	0524080c 	streq	r0, [r4, #-2060]!	; 0xfffff7f4
    1478:	96060000 	strls	r0, [r6], -r0
    147c:	009d1102 	addseq	r1, sp, r2, lsl #2
    1480:	23020000 	movwcs	r0, #8192	; 0x2000
    1484:	052e0810 	streq	r0, [lr, #-2064]!	; 0xfffff7f0
    1488:	97060000 	strls	r0, [r6, -r0]
    148c:	009d1102 	addseq	r1, sp, r2, lsl #2
    1490:	23020000 	movwcs	r0, #8192	; 0x2000
    1494:	045d0814 	ldrbeq	r0, [sp], #-2068	; 0xfffff7ec
    1498:	98060000 	stmdals	r6, {}	; <UNPREDICTABLE>
    149c:	00a91102 	adceq	r1, r9, r2, lsl #2
    14a0:	23020000 	movwcs	r0, #8192	; 0x2000
    14a4:	05880818 	streq	r0, [r8, #2072]	; 0x818
    14a8:	99060000 	stmdbls	r6, {}	; <UNPREDICTABLE>
    14ac:	00a91102 	adceq	r1, r9, r2, lsl #2
    14b0:	23020000 	movwcs	r0, #8192	; 0x2000
    14b4:	044f081c 	strbeq	r0, [pc], #-2076	; 14bc <_Min_Stack_Size+0x10bc>
    14b8:	9a060000 	bls	1814c0 <_Min_Stack_Size+0x1810c0>
    14bc:	00a91102 	adceq	r1, r9, r2, lsl #2
    14c0:	23020000 	movwcs	r0, #8192	; 0x2000
    14c4:	05380820 	ldreq	r0, [r8, #-2080]!	; 0xfffff7e0
    14c8:	9b060000 	blls	1814d0 <_Min_Stack_Size+0x1810d0>
    14cc:	009d1102 	addseq	r1, sp, r2, lsl #2
    14d0:	23020000 	movwcs	r0, #8192	; 0x2000
    14d4:	04540824 	ldrbeq	r0, [r4], #-2084	; 0xfffff7dc
    14d8:	9c060000 	stcls	0, cr0, [r6], {-0}
    14dc:	00a91102 	adceq	r1, r9, r2, lsl #2
    14e0:	23020000 	movwcs	r0, #8192	; 0x2000
    14e4:	04f20828 	ldrbteq	r0, [r2], #2088	; 0x828
    14e8:	9d060000 	stcls	0, cr0, [r6, #-0]
    14ec:	00a91102 	adceq	r1, r9, r2, lsl #2
    14f0:	23020000 	movwcs	r0, #8192	; 0x2000
    14f4:	05cb082c 	strbeq	r0, [fp, #2092]	; 0x82c
    14f8:	9e060000 	cdpls	0, 0, cr0, cr6, cr0, {0}
    14fc:	00a91102 	adceq	r1, r9, r2, lsl #2
    1500:	23020000 	movwcs	r0, #8192	; 0x2000
    1504:	05420830 	strbeq	r0, [r2, #-2096]	; 0xfffff7d0
    1508:	9f060000 	svcls	0x00060000
    150c:	009d1102 	addseq	r1, sp, r2, lsl #2
    1510:	23020000 	movwcs	r0, #8192	; 0x2000
    1514:	04230834 	strteq	r0, [r3], #-2100	; 0xfffff7cc
    1518:	a0060000 	andge	r0, r6, r0
    151c:	00a91102 	adceq	r1, r9, r2, lsl #2
    1520:	23020000 	movwcs	r0, #8192	; 0x2000
    1524:	042d0838 	strteq	r0, [sp], #-2104	; 0xfffff7c8
    1528:	a1060000 	mrsge	r0, (UNDEF: 6)
    152c:	00a91102 	adceq	r1, r9, r2, lsl #2
    1530:	23020000 	movwcs	r0, #8192	; 0x2000
    1534:	04a3083c 	strteq	r0, [r3], #2108	; 0x83c
    1538:	a2060000 	andge	r0, r6, #0
    153c:	00a91102 	adceq	r1, r9, r2, lsl #2
    1540:	23020000 	movwcs	r0, #8192	; 0x2000
    1544:	054c0840 	strbeq	r0, [ip, #-2112]	; 0xfffff7c0
    1548:	a3060000 	movwge	r0, #24576	; 0x6000
    154c:	009d1102 	addseq	r1, sp, r2, lsl #2
    1550:	23020000 	movwcs	r0, #8192	; 0x2000
    1554:	058d0844 	streq	r0, [sp, #2116]	; 0x844
    1558:	a4060000 	strge	r0, [r6], #-0
    155c:	00a91102 	adceq	r1, r9, r2, lsl #2
    1560:	23020000 	movwcs	r0, #8192	; 0x2000
    1564:	04370848 	ldrteq	r0, [r7], #-2120	; 0xfffff7b8
    1568:	a5060000 	strge	r0, [r6, #-0]
    156c:	00a91102 	adceq	r1, r9, r2, lsl #2
    1570:	23020000 	movwcs	r0, #8192	; 0x2000
    1574:	0462084c 	strbteq	r0, [r2], #-2124	; 0xfffff7b4
    1578:	a6060000 	strge	r0, [r6], -r0
    157c:	00a91102 	adceq	r1, r9, r2, lsl #2
    1580:	23020000 	movwcs	r0, #8192	; 0x2000
    1584:	05560850 	ldrbeq	r0, [r6, #-2128]	; 0xfffff7b0
    1588:	a7060000 	strge	r0, [r6, -r0]
    158c:	009d1102 	addseq	r1, sp, r2, lsl #2
    1590:	23020000 	movwcs	r0, #8192	; 0x2000
    1594:	04fb0854 	ldrbteq	r0, [fp], #2132	; 0x854
    1598:	a8060000 	stmdage	r6, {}	; <UNPREDICTABLE>
    159c:	00a91102 	adceq	r1, r9, r2, lsl #2
    15a0:	23020000 	movwcs	r0, #8192	; 0x2000
    15a4:	05040858 	streq	r0, [r4, #-2136]	; 0xfffff7a8
    15a8:	a9060000 	stmdbge	r6, {}	; <UNPREDICTABLE>
    15ac:	00a91102 	adceq	r1, r9, r2, lsl #2
    15b0:	23020000 	movwcs	r0, #8192	; 0x2000
    15b4:	04d4085c 	ldrbeq	r0, [r4], #2140	; 0x85c
    15b8:	aa060000 	bge	1815c0 <_Min_Stack_Size+0x1811c0>
    15bc:	00a91102 	adceq	r1, r9, r2, lsl #2
    15c0:	23020000 	movwcs	r0, #8192	; 0x2000
    15c4:	05600860 	strbeq	r0, [r0, #-2144]!	; 0xfffff7a0
    15c8:	ab060000 	blge	1815d0 <_Min_Stack_Size+0x1811d0>
    15cc:	009d1102 	addseq	r1, sp, r2, lsl #2
    15d0:	23020000 	movwcs	r0, #8192	; 0x2000
    15d4:	05c10864 	strbeq	r0, [r1, #2148]	; 0x864
    15d8:	ac060000 	stcge	0, cr0, [r6], {-0}
    15dc:	00a91102 	adceq	r1, r9, r2, lsl #2
    15e0:	23020000 	movwcs	r0, #8192	; 0x2000
    15e4:	04990868 	ldreq	r0, [r9], #2152	; 0x868
    15e8:	ad060000 	stcge	0, cr0, [r6, #-0]
    15ec:	00a91102 	adceq	r1, r9, r2, lsl #2
    15f0:	23020000 	movwcs	r0, #8192	; 0x2000
    15f4:	05b7086c 	ldreq	r0, [r7, #2156]!	; 0x86c
    15f8:	ae060000 	cdpge	0, 0, cr0, cr6, cr0, {0}
    15fc:	00a91102 	adceq	r1, r9, r2, lsl #2
    1600:	23020000 	movwcs	r0, #8192	; 0x2000
    1604:	056a0870 	strbeq	r0, [sl, #-2160]!	; 0xfffff790
    1608:	af060000 	svcge	0x00060000
    160c:	009d1102 	addseq	r1, sp, r2, lsl #2
    1610:	23020000 	movwcs	r0, #8192	; 0x2000
    1614:	04770874 	ldrbteq	r0, [r7], #-2164	; 0xfffff78c
    1618:	b0060000 	andlt	r0, r6, r0
    161c:	00a91102 	adceq	r1, r9, r2, lsl #2
    1620:	23020000 	movwcs	r0, #8192	; 0x2000
    1624:	04820878 	streq	r0, [r2], #2168	; 0x878
    1628:	b1060000 	mrslt	r0, (UNDEF: 6)
    162c:	00a91102 	adceq	r1, r9, r2, lsl #2
    1630:	23020000 	movwcs	r0, #8192	; 0x2000
    1634:	051a087c 	ldreq	r0, [sl, #-2172]	; 0xfffff784
    1638:	b2060000 	andlt	r0, r6, #0
    163c:	00a91102 	adceq	r1, r9, r2, lsl #2
    1640:	23030000 	movwcs	r0, #12288	; 0x3000
    1644:	74080180 	strvc	r0, [r8], #-384	; 0xfffffe80
    1648:	06000005 	streq	r0, [r0], -r5
    164c:	9d1102b3 	lfmls	f0, 4, [r1, #-716]	; 0xfffffd34
    1650:	03000000 	movweq	r0, #0
    1654:	08018423 	stmdaeq	r1, {r0, r1, r5, sl, pc}
    1658:	00000449 	andeq	r0, r0, r9, asr #8
    165c:	1102b406 	tstne	r2, r6, lsl #8
    1660:	000000a9 	andeq	r0, r0, r9, lsr #1
    1664:	01882303 	orreq	r2, r8, r3, lsl #6
    1668:	00057e08 	andeq	r7, r5, r8, lsl #28
    166c:	02b50600 	adcseq	r0, r5, #0, 12
    1670:	00009d11 	andeq	r9, r0, r1, lsl sp
    1674:	8c230300 	stchi	3, cr0, [r3], #-0
    1678:	043f0801 	ldrteq	r0, [pc], #-2049	; 1680 <_Min_Stack_Size+0x1280>
    167c:	b6060000 	strlt	r0, [r6], -r0
    1680:	00a91102 	adceq	r1, r9, r2, lsl #2
    1684:	23030000 	movwcs	r0, #12288	; 0x3000
    1688:	43090190 	movwmi	r0, #37264	; 0x9190
    168c:	06005253 			; <UNDEFINED> instruction: 0x06005253
    1690:	a91102b7 	ldmdbge	r1, {r0, r1, r2, r4, r5, r7, r9}
    1694:	03000000 	movweq	r0, #0
    1698:	08019423 	stmdaeq	r1, {r0, r1, r5, sl, ip, pc}
    169c:	000004dc 	ldrdeq	r0, [r0], -ip
    16a0:	1102b806 	tstne	r2, r6, lsl #16
    16a4:	000000a9 	andeq	r0, r0, r9, lsr #1
    16a8:	01982303 	orrseq	r2, r8, r3, lsl #6
    16ac:	00050d08 	andeq	r0, r5, r8, lsl #26
    16b0:	02b90600 	adcseq	r0, r9, #0, 12
    16b4:	0000a911 	andeq	sl, r0, r1, lsl r9
    16b8:	9c230300 	stcls	3, cr0, [r3], #-0
    16bc:	8d0c0001 	stchi	0, cr0, [ip, #-4]
    16c0:	06000004 	streq	r0, [r0], -r4
    16c4:	e30302ba 	movw	r0, #12986	; 0x32ba
    16c8:	02000002 	andeq	r0, r0, #2
    16cc:	01760408 	cmneq	r6, r8, lsl #8
    16d0:	8f0e0000 	svchi	0x000e0000
    16d4:	01000002 	tsteq	r0, r2
    16d8:	03050c98 	movweq	r0, #23704	; 0x5c98
    16dc:	20000000 	andcs	r0, r0, r0
    16e0:	0002b20e 	andeq	fp, r2, lr, lsl #4
    16e4:	119a0100 	orrsne	r0, sl, r0, lsl #2
    16e8:	10e80305 	rscne	r0, r8, r5, lsl #6
    16ec:	d50e0800 	strle	r0, [lr, #-2048]	; 0xfffff800
    16f0:	01000002 	tsteq	r0, r2
    16f4:	0305119b 	movweq	r1, #20891	; 0x519b
    16f8:	00000000 	andeq	r0, r0, r0
    16fc:	0753010f 	ldrbeq	r0, [r3, -pc, lsl #2]
    1700:	e4010000 	str	r0, [r1], #-0
    1704:	00000106 	andeq	r0, r0, r6, lsl #2
    1708:	00000000 	andeq	r0, r0, r0
    170c:	7d020000 	stcvc	0, cr0, [r2, #-0]
    1710:	06320100 	ldrteq	r0, [r2], -r0, lsl #2
    1714:	74100000 	ldrvc	r0, [r0], #-0
    1718:	0100706d 	tsteq	r0, sp, rrx
    171c:	009d0ce6 	addseq	r0, sp, r6, ror #25
    1720:	019d0000 	orrseq	r0, sp, r0
    1724:	019b0000 	orrseq	r0, fp, r0
    1728:	47110000 	ldrmi	r0, [r1, -r0]
    172c:	01000007 	tsteq	r0, r7
    1730:	009d11e6 	addseq	r1, sp, r6, ror #3
    1734:	01b60000 			; <UNDEFINED> instruction: 0x01b60000
    1738:	01b00000 	movseq	r0, r0
    173c:	30110000 	andscc	r0, r1, r0
    1740:	01000007 	tsteq	r0, r7
    1744:	009d19e6 	addseq	r1, sp, r6, ror #19
    1748:	01e10000 	mvneq	r0, r0
    174c:	01df0000 	bicseq	r0, pc, r0
    1750:	21110000 	tstcs	r1, r0
    1754:	01000007 	tsteq	r0, r7
    1758:	009d1fe6 	addseq	r1, sp, r6, ror #31
    175c:	01f80000 	mvnseq	r0, r0
    1760:	01f40000 	mvnseq	r0, r0
    1764:	2b110000 	blcs	44176c <_Min_Stack_Size+0x44136c>
    1768:	01000007 	tsteq	r0, r7
    176c:	009d2ae6 	addseq	r2, sp, r6, ror #21
    1770:	021a0000 	andseq	r0, sl, #0
    1774:	02160000 	andseq	r0, r6, #0
    1778:	12000000 	andne	r0, r0, #0
    177c:	0006d801 	andeq	sp, r6, r1, lsl #16
    1780:	06b30100 	ldrteq	r0, [r3], r0, lsl #2
    1784:	0003cc01 	andeq	ip, r3, r1, lsl #24
    1788:	0003e008 	andeq	lr, r3, r8
    178c:	007d0208 	rsbseq	r0, sp, r8, lsl #4
    1790:	0d190001 	ldceq	0, cr0, [r9, #-4]
    1794:	00020000 	andeq	r0, r2, r0
    1798:	000006f3 	strdeq	r0, [r0], -r3
    179c:	01820104 	orreq	r0, r2, r4, lsl #2
    17a0:	260c0000 	strcs	r0, [ip], -r0
    17a4:	4400000d 	strmi	r0, [r0], #-13
    17a8:	c0000000 	andgt	r0, r0, r0
	...
    17b4:	25000000 	strcs	r0, [r0, #-0]
    17b8:	0200000c 	andeq	r0, r0, #12
    17bc:	029c0105 	addseq	r0, ip, #1073741825	; 0x40000001
    17c0:	42050000 	andmi	r0, r5, #0
    17c4:	00029c01 	andeq	r9, r2, r1, lsl #24
    17c8:	10100300 	andsne	r0, r0, r0, lsl #6
    17cc:	03720000 	cmneq	r2, #0
    17d0:	00000ba4 	andeq	r0, r0, r4, lsr #23
    17d4:	0dc60373 	stcleq	3, cr0, [r6, #460]	; 0x1cc
    17d8:	03740000 	cmneq	r4, #0
    17dc:	00000a78 	andeq	r0, r0, r8, ror sl
    17e0:	0f980375 	svceq	0x00980375
    17e4:	03760000 	cmneq	r6, #0
    17e8:	00000cb7 			; <UNDEFINED> instruction: 0x00000cb7
    17ec:	1088037b 	addne	r0, r8, fp, ror r3
    17f0:	037c0000 	cmneq	ip, #0
    17f4:	000009d9 	ldrdeq	r0, [r0], -r9
    17f8:	0c48037e 	mcrreq	3, 7, r0, r8, cr14
    17fc:	047f0000 	ldrbteq	r0, [pc], #-0	; 1804 <_Min_Stack_Size+0x1404>
    1800:	000008ad 	andeq	r0, r0, sp, lsr #17
    1804:	0b130400 	bleq	4c280c <_Min_Stack_Size+0x4c240c>
    1808:	04010000 	streq	r0, [r1], #-0
    180c:	00000feb 	andeq	r0, r0, fp, ror #31
    1810:	08780402 	ldmdaeq	r8!, {r1, sl}^
    1814:	04030000 	streq	r0, [r3], #-0
    1818:	00000f40 	andeq	r0, r0, r0, asr #30
    181c:	113d0404 	teqne	sp, r4, lsl #8
    1820:	04050000 	streq	r0, [r5], #-0
    1824:	000010df 	ldrdeq	r1, [r0], -pc	; <UNPREDICTABLE>
    1828:	115a0406 	cmpne	sl, r6, lsl #8
    182c:	04070000 	streq	r0, [r7], #-0
    1830:	00000f07 	andeq	r0, r0, r7, lsl #30
    1834:	111d0408 	tstne	sp, r8, lsl #8
    1838:	04090000 	streq	r0, [r9], #-0
    183c:	00000e73 	andeq	r0, r0, r3, ror lr
    1840:	0db3040a 	cfldrseq	mvf0, [r3, #40]!	; 0x28
    1844:	040b0000 	streq	r0, [fp], #-0
    1848:	00000c78 	andeq	r0, r0, r8, ror ip
    184c:	0ebf040c 	cdpeq	4, 11, cr0, cr15, cr12, {0}
    1850:	040d0000 	streq	r0, [sp], #-0
    1854:	00000c2b 	andeq	r0, r0, fp, lsr #24
    1858:	0b53040e 	bleq	14c2898 <_Min_Stack_Size+0x14c2498>
    185c:	040f0000 	streq	r0, [pc], #-0	; 1864 <_Min_Stack_Size+0x1464>
    1860:	0000104d 	andeq	r1, r0, sp, asr #32
    1864:	0c180410 	cfldrseq	mvf0, [r8], {16}
    1868:	04110000 	ldreq	r0, [r1], #-0
    186c:	00000999 	muleq	r0, r9, r9
    1870:	0a860412 	beq	fe1828c0 <BootRAM+0xc373061>
    1874:	04130000 	ldreq	r0, [r3], #-0
    1878:	0000106d 	andeq	r1, r0, sp, rrx
    187c:	08f10414 	ldmeq	r1!, {r2, r4, sl}^
    1880:	04150000 	ldreq	r0, [r5], #-0
    1884:	00000a49 	andeq	r0, r0, r9, asr #20
    1888:	07d90416 	bfieq	r0, r6, #8, #18
    188c:	04170000 	ldreq	r0, [r7], #-0
    1890:	00001146 	andeq	r1, r0, r6, asr #2
    1894:	0f4b0418 	svceq	0x004b0418
    1898:	04190000 	ldreq	r0, [r9], #-0
    189c:	000007c1 	andeq	r0, r0, r1, asr #15
    18a0:	0c55041a 	cfldrdeq	mvd0, [r5], {26}
    18a4:	041b0000 	ldreq	r0, [fp], #-0
    18a8:	000010c8 	andeq	r1, r0, r8, asr #1
    18ac:	11bf041c 			; <UNDEFINED> instruction: 0x11bf041c
    18b0:	041d0000 	ldreq	r0, [sp], #-0
    18b4:	0000086e 	andeq	r0, r0, lr, ror #16
    18b8:	07f3041e 			; <UNDEFINED> instruction: 0x07f3041e
    18bc:	041f0000 	ldreq	r0, [pc], #-0	; 18c4 <_Min_Stack_Size+0x14c4>
    18c0:	0000119e 	muleq	r0, lr, r1
    18c4:	10af0420 	adcne	r0, pc, r0, lsr #8
    18c8:	04210000 	strteq	r0, [r1], #-0
    18cc:	00000861 	andeq	r0, r0, r1, ror #16
    18d0:	0bc90422 	bleq	ff242960 <BootRAM+0xd433101>
    18d4:	04230000 	strteq	r0, [r3], #-0
    18d8:	00000d11 	andeq	r0, r0, r1, lsl sp
    18dc:	110c0424 	tstne	ip, r4, lsr #8
    18e0:	04250000 	strteq	r0, [r5], #-0
    18e4:	00000f8c 	andeq	r0, r0, ip, lsl #31
    18e8:	10bc0426 	adcsne	r0, ip, r6, lsr #8
    18ec:	04270000 	strteq	r0, [r7], #-0
    18f0:	00000bb3 			; <UNDEFINED> instruction: 0x00000bb3
    18f4:	08520428 	ldmdaeq	r2, {r3, r5, sl}^
    18f8:	04290000 	strteq	r0, [r9], #-0
    18fc:	00001079 	andeq	r1, r0, r9, ror r0
    1900:	0c8b042a 	cfstrseq	mvf0, [fp], {42}	; 0x2a
    1904:	042b0000 	strteq	r0, [fp], #-0
    1908:	000010d2 	ldrdeq	r1, [r0], -r2
    190c:	0f7a042c 	svceq	0x007a042c
    1910:	042d0000 	strteq	r0, [sp], #-0
    1914:	000008b7 			; <UNDEFINED> instruction: 0x000008b7
    1918:	0935042e 	ldmdbeq	r5!, {r1, r2, r3, r5, sl}
    191c:	042f0000 	strteq	r0, [pc], #-0	; 1924 <_Min_Stack_Size+0x1524>
    1920:	00000ed2 	ldrdeq	r0, [r0], -r2
    1924:	0ae90430 	beq	ffa429ec <BootRAM+0xdc3318d>
    1928:	04310000 	ldrteq	r0, [r1], #-0
    192c:	00000d07 	andeq	r0, r0, r7, lsl #26
    1930:	11ab0432 			; <UNDEFINED> instruction: 0x11ab0432
    1934:	04330000 	ldrteq	r0, [r3], #-0
    1938:	00000b48 	andeq	r0, r0, r8, asr #22
    193c:	0d1b0434 	cfldrseq	mvf0, [fp, #-208]	; 0xffffff30
    1940:	04350000 	ldrteq	r0, [r5], #-0
    1944:	000009a5 	andeq	r0, r0, r5, lsr #19
    1948:	09be0436 	ldmibeq	lr!, {r1, r2, r4, r5, sl}
    194c:	04370000 	ldrteq	r0, [r7], #-0
    1950:	0000083f 	andeq	r0, r0, pc, lsr r8
    1954:	0ce10438 	cfstrdeq	mvd0, [r1], #224	; 0xe0
    1958:	04390000 	ldrteq	r0, [r9], #-0
    195c:	00000e26 	andeq	r0, r0, r6, lsr #28
    1960:	0fd8043a 	svceq	0x00d8043a
    1964:	043b0000 	ldrteq	r0, [fp], #-0
    1968:	00000cf4 	strdeq	r0, [r0], -r4
    196c:	0b20043c 	bleq	802a64 <_Min_Stack_Size+0x802664>
    1970:	043d0000 	ldrteq	r0, [sp], #-0
    1974:	00000c3e 	andeq	r0, r0, lr, lsr ip
    1978:	1193043e 	orrsne	r0, r3, lr, lsr r4
    197c:	043f0000 	ldrteq	r0, [pc], #-0	; 1984 <_Min_Stack_Size+0x1584>
    1980:	00000edb 	ldrdeq	r0, [r0], -fp
    1984:	0c690440 	cfstrdeq	mvd0, [r9], #-256	; 0xffffff00
    1988:	04410000 	strbeq	r0, [r1], #-0
    198c:	00000823 	andeq	r0, r0, r3, lsr #16
    1990:	0e0d0442 	cdpeq	4, 0, cr0, cr13, cr2, {2}
    1994:	044b0000 	strbeq	r0, [fp], #-0
    1998:	00000b3e 	andeq	r0, r0, lr, lsr fp
    199c:	0916044c 	ldmdbeq	r6, {r2, r3, r6, sl}
    19a0:	044d0000 	strbeq	r0, [sp], #-0
    19a4:	00000e48 	andeq	r0, r0, r8, asr #28
    19a8:	0ab3044e 	beq	fecc2ae8 <BootRAM+0xceb3289>
    19ac:	044f0000 	strbeq	r0, [pc], #-0	; 19b4 <_Min_Stack_Size+0x15b4>
    19b0:	00000a92 	muleq	r0, r2, sl
    19b4:	11720450 	cmnne	r2, r0, asr r4
    19b8:	04510000 	ldrbeq	r0, [r1], #-0
    19bc:	00000c99 	muleq	r0, r9, ip
    19c0:	08c40452 	stmiaeq	r4, {r1, r4, r6, sl}^
    19c4:	04530000 	ldrbeq	r0, [r3], #-0
    19c8:	00000835 	andeq	r0, r0, r5, lsr r8
    19cc:	09060454 	stmdbeq	r6, {r2, r4, r6, sl}
    19d0:	04560000 	ldrbeq	r0, [r6], #-0
    19d4:	00000e16 	andeq	r0, r0, r6, lsl lr
    19d8:	093f0457 	ldmdbeq	pc!, {r0, r1, r2, r4, r6, sl}	; <UNPREDICTABLE>
    19dc:	04580000 	ldrbeq	r0, [r8], #-0
    19e0:	00000ad9 	ldrdeq	r0, [r0], -r9
    19e4:	0e7e0459 	mrceq	4, 3, r0, cr14, cr9, {2}
    19e8:	045a0000 	ldrbeq	r0, [sl], #-0
    19ec:	00000eb2 			; <UNDEFINED> instruction: 0x00000eb2
    19f0:	0b31045b 	bleq	c42b64 <_Min_Stack_Size+0xc42764>
    19f4:	045c0000 	ldrbeq	r0, [ip], #-0
    19f8:	000009cc 	andeq	r0, r0, ip, asr #19
    19fc:	109f045d 	addsne	r0, pc, sp, asr r4	; <UNPREDICTABLE>
    1a00:	045e0000 	ldrbeq	r0, [lr], #-0
    1a04:	00000b97 	muleq	r0, r7, fp
    1a08:	0800045f 	stmdaeq	r0, {r0, r1, r2, r3, r4, r6, sl}
    1a0c:	04600000 	strbteq	r0, [r0], #-0
    1a10:	00000ac6 	andeq	r0, r0, r6, asr #21
    1a14:	0be00461 	bleq	ff802ba0 <BootRAM+0xd9f3341>
    1a18:	04620000 	strbteq	r0, [r2], #-0
    1a1c:	000009e5 	andeq	r0, r0, r5, ror #19
    1a20:	09680463 	stmdbeq	r8!, {r0, r1, r5, r6, sl}^
    1a24:	04640000 	strbteq	r0, [r4], #-0
    1a28:	000011b5 			; <UNDEFINED> instruction: 0x000011b5
    1a2c:	01050065 	tsteq	r5, r5, rrx
    1a30:	00009f06 	andeq	r9, r0, r6, lsl #30
    1a34:	08010500 	stmdaeq	r1, {r8, sl}
    1a38:	0000009d 	muleq	r0, sp, r0
    1a3c:	63050205 	movwvs	r0, #20997	; 0x5205
    1a40:	05000001 	streq	r0, [r0, #-1]
    1a44:	00270702 	eoreq	r0, r7, r2, lsl #14
    1a48:	04050000 	streq	r0, [r5], #-0
    1a4c:	00012f05 	andeq	r2, r1, r5, lsl #30
    1a50:	00dc0600 	sbcseq	r0, ip, r0, lsl #12
    1a54:	4f020000 	svcmi	0x00020000
    1a58:	0002cb19 	andeq	ip, r2, r9, lsl fp
    1a5c:	07040500 	streq	r0, [r4, -r0, lsl #10]
    1a60:	00000109 	andeq	r0, r0, r9, lsl #2
    1a64:	2a050805 	bcs	143a80 <_Min_Stack_Size+0x143680>
    1a68:	05000001 	streq	r0, [r0, #-1]
    1a6c:	01040708 	tsteq	r4, r8, lsl #14
    1a70:	04070000 	streq	r0, [r7], #-0
    1a74:	746e6905 	strbtvc	r6, [lr], #-2309	; 0xfffff6fb
    1a78:	07040500 	streq	r0, [r4, -r0, lsl #10]
    1a7c:	0000010e 	andeq	r0, r0, lr, lsl #2
    1a80:	0000de06 	andeq	sp, r0, r6, lsl #28
    1a84:	14300300 	ldrtne	r0, [r0], #-768	; 0xfffffd00
    1a88:	000002bf 			; <UNDEFINED> instruction: 0x000002bf
    1a8c:	0002ee08 	andeq	lr, r2, r8, lsl #28
    1a90:	02fa0900 	rscseq	r0, sl, #0, 18
    1a94:	100a0000 	andne	r0, sl, r0
    1a98:	0902f704 	stmdbeq	r2, {r2, r8, r9, sl, ip, sp, lr, pc}
    1a9c:	0000034f 	andeq	r0, r0, pc, asr #6
    1aa0:	00109a0b 	andseq	r9, r0, fp, lsl #20
    1aa4:	02f90400 	rscseq	r0, r9, #0, 8
    1aa8:	0002fa12 	andeq	pc, r2, r2, lsl sl	; <UNPREDICTABLE>
    1aac:	00230200 	eoreq	r0, r3, r0, lsl #4
    1ab0:	000ca60b 	andeq	sl, ip, fp, lsl #12
    1ab4:	02fa0400 	rscseq	r0, sl, #0, 8
    1ab8:	0002fa12 	andeq	pc, r2, r2, lsl sl	; <UNPREDICTABLE>
    1abc:	04230200 	strteq	r0, [r3], #-512	; 0xfffffe00
    1ac0:	4c41560c 	mcrrmi	6, 0, r5, r1, cr12
    1ac4:	02fb0400 	rscseq	r0, fp, #0, 8
    1ac8:	0002fa12 	andeq	pc, r2, r2, lsl sl	; <UNPREDICTABLE>
    1acc:	08230200 	stmdaeq	r3!, {r9}
    1ad0:	000b660b 	andeq	r6, fp, fp, lsl #12
    1ad4:	02fc0400 	rscseq	r0, ip, #0, 8
    1ad8:	0002ff12 	andeq	pc, r2, r2, lsl pc	; <UNPREDICTABLE>
    1adc:	0c230200 	sfmeq	f0, 4, [r3], #-0
    1ae0:	0bd30d00 	bleq	ff4c4ee8 <BootRAM+0xd6b5689>
    1ae4:	fd040000 	stc2	0, cr0, [r4, #-0]
    1ae8:	03040302 	movweq	r0, #17154	; 0x4302
    1aec:	730e0000 	movwvc	r0, #57344	; 0xe000
    1af0:	07000007 	streq	r0, [r0, -r7]
    1af4:	02ee1139 	rsceq	r1, lr, #1073741838	; 0x4000000e
    1af8:	01010000 	mrseq	r0, (UNDEF: 1)
    1afc:	7105140a 	tstvc	r5, sl, lsl #8
    1b00:	03c40901 	biceq	r0, r4, #16384	; 0x4000
    1b04:	620b0000 	andvs	r0, fp, #0
    1b08:	0500000c 	streq	r0, [r0, #-12]
    1b0c:	fa110173 	blx	4420e0 <_Min_Stack_Size+0x441ce0>
    1b10:	02000002 	andeq	r0, r0, #2
    1b14:	430c0023 	movwmi	r0, #49187	; 0xc023
    1b18:	74050052 	strvc	r0, [r5], #-82	; 0xffffffae
    1b1c:	02fa1101 	rscseq	r1, sl, #1073741824	; 0x40000000
    1b20:	23020000 	movwcs	r0, #8192	; 0x2000
    1b24:	11280b04 			; <UNDEFINED> instruction: 0x11280b04
    1b28:	75050000 	strvc	r0, [r5, #-0]
    1b2c:	02fa1101 	rscseq	r1, sl, #1073741824	; 0x40000000
    1b30:	23020000 	movwcs	r0, #8192	; 0x2000
    1b34:	0aa50b08 	beq	fe94475c <BootRAM+0xcb34efd>
    1b38:	76050000 	strvc	r0, [r5], -r0
    1b3c:	02fa1101 	rscseq	r1, sl, #1073741824	; 0x40000000
    1b40:	23020000 	movwcs	r0, #8192	; 0x2000
    1b44:	0bc20b0c 	bleq	ff08477c <BootRAM+0xd274f1d>
    1b48:	77050000 	strvc	r0, [r5, -r0]
    1b4c:	02fa1101 	rscseq	r1, sl, #1073741824	; 0x40000000
    1b50:	23020000 	movwcs	r0, #8192	; 0x2000
    1b54:	5e0d0010 	mcrpl	0, 0, r0, cr13, cr0, {0}
    1b58:	0500000f 	streq	r0, [r0, #-15]
    1b5c:	6a030178 	bvs	c2144 <_Min_Stack_Size+0xc1d44>
    1b60:	0a000003 	beq	1b74 <_Min_Stack_Size+0x1774>
    1b64:	029005a0 	addseq	r0, r0, #160, 10	; 0x28000000
    1b68:	00066309 	andeq	r6, r6, r9, lsl #6
    1b6c:	52430c00 	subpl	r0, r3, #0, 24
    1b70:	02920500 	addseq	r0, r2, #0, 10
    1b74:	0002fa11 	andeq	pc, r2, r1, lsl sl	; <UNPREDICTABLE>
    1b78:	00230200 	eoreq	r0, r3, r0, lsl #4
    1b7c:	0005140b 	andeq	r1, r5, fp, lsl #8
    1b80:	02930500 	addseq	r0, r3, #0, 10
    1b84:	0002fa11 	andeq	pc, r2, r1, lsl sl	; <UNPREDICTABLE>
    1b88:	04230200 	strteq	r0, [r3], #-512	; 0xfffffe00
    1b8c:	00041e0b 	andeq	r1, r4, fp, lsl #28
    1b90:	02940500 	addseq	r0, r4, #0, 10
    1b94:	0002fa11 	andeq	pc, r2, r1, lsl sl	; <UNPREDICTABLE>
    1b98:	08230200 	stmdaeq	r3!, {r9}
    1b9c:	00041b0b 	andeq	r1, r4, fp, lsl #22
    1ba0:	02950500 	addseq	r0, r5, #0, 10
    1ba4:	0002fa11 	andeq	pc, r2, r1, lsl sl	; <UNPREDICTABLE>
    1ba8:	0c230200 	sfmeq	f0, 4, [r3], #-0
    1bac:	0005240b 	andeq	r2, r5, fp, lsl #8
    1bb0:	02960500 	addseq	r0, r6, #0, 10
    1bb4:	0002ee11 	andeq	lr, r2, r1, lsl lr
    1bb8:	10230200 	eorne	r0, r3, r0, lsl #4
    1bbc:	00052e0b 	andeq	r2, r5, fp, lsl #28
    1bc0:	02970500 	addseq	r0, r7, #0, 10
    1bc4:	0002ee11 	andeq	lr, r2, r1, lsl lr
    1bc8:	14230200 	strtne	r0, [r3], #-512	; 0xfffffe00
    1bcc:	00045d0b 	andeq	r5, r4, fp, lsl #26
    1bd0:	02980500 	addseq	r0, r8, #0, 10
    1bd4:	0002fa11 	andeq	pc, r2, r1, lsl sl	; <UNPREDICTABLE>
    1bd8:	18230200 	stmdane	r3!, {r9}
    1bdc:	0005880b 	andeq	r8, r5, fp, lsl #16
    1be0:	02990500 	addseq	r0, r9, #0, 10
    1be4:	0002fa11 	andeq	pc, r2, r1, lsl sl	; <UNPREDICTABLE>
    1be8:	1c230200 	sfmne	f0, 4, [r3], #-0
    1bec:	00044f0b 	andeq	r4, r4, fp, lsl #30
    1bf0:	029a0500 	addseq	r0, sl, #0, 10
    1bf4:	0002fa11 	andeq	pc, r2, r1, lsl sl	; <UNPREDICTABLE>
    1bf8:	20230200 	eorcs	r0, r3, r0, lsl #4
    1bfc:	0005380b 	andeq	r3, r5, fp, lsl #16
    1c00:	029b0500 	addseq	r0, fp, #0, 10
    1c04:	0002ee11 	andeq	lr, r2, r1, lsl lr
    1c08:	24230200 	strtcs	r0, [r3], #-512	; 0xfffffe00
    1c0c:	0004540b 	andeq	r5, r4, fp, lsl #8
    1c10:	029c0500 	addseq	r0, ip, #0, 10
    1c14:	0002fa11 	andeq	pc, r2, r1, lsl sl	; <UNPREDICTABLE>
    1c18:	28230200 	stmdacs	r3!, {r9}
    1c1c:	0004f20b 	andeq	pc, r4, fp, lsl #4
    1c20:	029d0500 	addseq	r0, sp, #0, 10
    1c24:	0002fa11 	andeq	pc, r2, r1, lsl sl	; <UNPREDICTABLE>
    1c28:	2c230200 	sfmcs	f0, 4, [r3], #-0
    1c2c:	0005cb0b 	andeq	ip, r5, fp, lsl #22
    1c30:	029e0500 	addseq	r0, lr, #0, 10
    1c34:	0002fa11 	andeq	pc, r2, r1, lsl sl	; <UNPREDICTABLE>
    1c38:	30230200 	eorcc	r0, r3, r0, lsl #4
    1c3c:	0005420b 	andeq	r4, r5, fp, lsl #4
    1c40:	029f0500 	addseq	r0, pc, #0, 10
    1c44:	0002ee11 	andeq	lr, r2, r1, lsl lr
    1c48:	34230200 	strtcc	r0, [r3], #-512	; 0xfffffe00
    1c4c:	0004230b 	andeq	r2, r4, fp, lsl #6
    1c50:	02a00500 	adceq	r0, r0, #0, 10
    1c54:	0002fa11 	andeq	pc, r2, r1, lsl sl	; <UNPREDICTABLE>
    1c58:	38230200 	stmdacc	r3!, {r9}
    1c5c:	00042d0b 	andeq	r2, r4, fp, lsl #26
    1c60:	02a10500 	adceq	r0, r1, #0, 10
    1c64:	0002fa11 	andeq	pc, r2, r1, lsl sl	; <UNPREDICTABLE>
    1c68:	3c230200 	sfmcc	f0, 4, [r3], #-0
    1c6c:	0004a30b 	andeq	sl, r4, fp, lsl #6
    1c70:	02a20500 	adceq	r0, r2, #0, 10
    1c74:	0002fa11 	andeq	pc, r2, r1, lsl sl	; <UNPREDICTABLE>
    1c78:	40230200 	eormi	r0, r3, r0, lsl #4
    1c7c:	00054c0b 	andeq	r4, r5, fp, lsl #24
    1c80:	02a30500 	adceq	r0, r3, #0, 10
    1c84:	0002ee11 	andeq	lr, r2, r1, lsl lr
    1c88:	44230200 	strtmi	r0, [r3], #-512	; 0xfffffe00
    1c8c:	00058d0b 	andeq	r8, r5, fp, lsl #26
    1c90:	02a40500 	adceq	r0, r4, #0, 10
    1c94:	0002fa11 	andeq	pc, r2, r1, lsl sl	; <UNPREDICTABLE>
    1c98:	48230200 	stmdami	r3!, {r9}
    1c9c:	0004370b 	andeq	r3, r4, fp, lsl #14
    1ca0:	02a50500 	adceq	r0, r5, #0, 10
    1ca4:	0002fa11 	andeq	pc, r2, r1, lsl sl	; <UNPREDICTABLE>
    1ca8:	4c230200 	sfmmi	f0, 4, [r3], #-0
    1cac:	0004620b 	andeq	r6, r4, fp, lsl #4
    1cb0:	02a60500 	adceq	r0, r6, #0, 10
    1cb4:	0002fa11 	andeq	pc, r2, r1, lsl sl	; <UNPREDICTABLE>
    1cb8:	50230200 	eorpl	r0, r3, r0, lsl #4
    1cbc:	0005560b 	andeq	r5, r5, fp, lsl #12
    1cc0:	02a70500 	adceq	r0, r7, #0, 10
    1cc4:	0002ee11 	andeq	lr, r2, r1, lsl lr
    1cc8:	54230200 	strtpl	r0, [r3], #-512	; 0xfffffe00
    1ccc:	0004fb0b 	andeq	pc, r4, fp, lsl #22
    1cd0:	02a80500 	adceq	r0, r8, #0, 10
    1cd4:	0002fa11 	andeq	pc, r2, r1, lsl sl	; <UNPREDICTABLE>
    1cd8:	58230200 	stmdapl	r3!, {r9}
    1cdc:	0005040b 	andeq	r0, r5, fp, lsl #8
    1ce0:	02a90500 	adceq	r0, r9, #0, 10
    1ce4:	0002fa11 	andeq	pc, r2, r1, lsl sl	; <UNPREDICTABLE>
    1ce8:	5c230200 	sfmpl	f0, 4, [r3], #-0
    1cec:	0004d40b 	andeq	sp, r4, fp, lsl #8
    1cf0:	02aa0500 	adceq	r0, sl, #0, 10
    1cf4:	0002fa11 	andeq	pc, r2, r1, lsl sl	; <UNPREDICTABLE>
    1cf8:	60230200 	eorvs	r0, r3, r0, lsl #4
    1cfc:	0005600b 	andeq	r6, r5, fp
    1d00:	02ab0500 	adceq	r0, fp, #0, 10
    1d04:	0002ee11 	andeq	lr, r2, r1, lsl lr
    1d08:	64230200 	strtvs	r0, [r3], #-512	; 0xfffffe00
    1d0c:	0005c10b 	andeq	ip, r5, fp, lsl #2
    1d10:	02ac0500 	adceq	r0, ip, #0, 10
    1d14:	0002fa11 	andeq	pc, r2, r1, lsl sl	; <UNPREDICTABLE>
    1d18:	68230200 	stmdavs	r3!, {r9}
    1d1c:	0004990b 	andeq	r9, r4, fp, lsl #18
    1d20:	02ad0500 	adceq	r0, sp, #0, 10
    1d24:	0002fa11 	andeq	pc, r2, r1, lsl sl	; <UNPREDICTABLE>
    1d28:	6c230200 	sfmvs	f0, 4, [r3], #-0
    1d2c:	0005b70b 	andeq	fp, r5, fp, lsl #14
    1d30:	02ae0500 	adceq	r0, lr, #0, 10
    1d34:	0002fa11 	andeq	pc, r2, r1, lsl sl	; <UNPREDICTABLE>
    1d38:	70230200 	eorvc	r0, r3, r0, lsl #4
    1d3c:	00056a0b 	andeq	r6, r5, fp, lsl #20
    1d40:	02af0500 	adceq	r0, pc, #0, 10
    1d44:	0002ee11 	andeq	lr, r2, r1, lsl lr
    1d48:	74230200 	strtvc	r0, [r3], #-512	; 0xfffffe00
    1d4c:	0004770b 	andeq	r7, r4, fp, lsl #14
    1d50:	02b00500 	adcseq	r0, r0, #0, 10
    1d54:	0002fa11 	andeq	pc, r2, r1, lsl sl	; <UNPREDICTABLE>
    1d58:	78230200 	stmdavc	r3!, {r9}
    1d5c:	0004820b 	andeq	r8, r4, fp, lsl #4
    1d60:	02b10500 	adcseq	r0, r1, #0, 10
    1d64:	0002fa11 	andeq	pc, r2, r1, lsl sl	; <UNPREDICTABLE>
    1d68:	7c230200 	sfmvc	f0, 4, [r3], #-0
    1d6c:	00051a0b 	andeq	r1, r5, fp, lsl #20
    1d70:	02b20500 	adcseq	r0, r2, #0, 10
    1d74:	0002fa11 	andeq	pc, r2, r1, lsl sl	; <UNPREDICTABLE>
    1d78:	80230300 	eorhi	r0, r3, r0, lsl #6
    1d7c:	05740b01 	ldrbeq	r0, [r4, #-2817]!	; 0xfffff4ff
    1d80:	b3050000 	movwlt	r0, #20480	; 0x5000
    1d84:	02ee1102 	rsceq	r1, lr, #-2147483648	; 0x80000000
    1d88:	23030000 	movwcs	r0, #12288	; 0x3000
    1d8c:	490b0184 	stmdbmi	fp, {r2, r7, r8}
    1d90:	05000004 	streq	r0, [r0, #-4]
    1d94:	fa1102b4 	blx	44286c <_Min_Stack_Size+0x44246c>
    1d98:	03000002 	movweq	r0, #2
    1d9c:	0b018823 	bleq	63e30 <_Min_Stack_Size+0x63a30>
    1da0:	0000057e 	andeq	r0, r0, lr, ror r5
    1da4:	1102b505 	tstne	r2, r5, lsl #10
    1da8:	000002ee 	andeq	r0, r0, lr, ror #5
    1dac:	018c2303 	orreq	r2, ip, r3, lsl #6
    1db0:	00043f0b 	andeq	r3, r4, fp, lsl #30
    1db4:	02b60500 	adcseq	r0, r6, #0, 10
    1db8:	0002fa11 	andeq	pc, r2, r1, lsl sl	; <UNPREDICTABLE>
    1dbc:	90230300 	eorls	r0, r3, r0, lsl #6
    1dc0:	53430c01 	movtpl	r0, #15361	; 0x3c01
    1dc4:	b7050052 	smlsdlt	r5, r2, r0, r0
    1dc8:	02fa1102 	rscseq	r1, sl, #-2147483648	; 0x80000000
    1dcc:	23030000 	movwcs	r0, #12288	; 0x3000
    1dd0:	dc0b0194 	stfles	f0, [fp], {148}	; 0x94
    1dd4:	05000004 	streq	r0, [r0, #-4]
    1dd8:	fa1102b8 	blx	4428c0 <_Min_Stack_Size+0x4424c0>
    1ddc:	03000002 	movweq	r0, #2
    1de0:	0b019823 	bleq	67e74 <_Min_Stack_Size+0x67a74>
    1de4:	0000050d 	andeq	r0, r0, sp, lsl #10
    1de8:	1102b905 	tstne	r2, r5, lsl #18
    1dec:	000002fa 	strdeq	r0, [r0], -sl
    1df0:	019c2303 	orrseq	r2, ip, r3, lsl #6
    1df4:	048d0d00 	streq	r0, [sp], #3328	; 0xd00
    1df8:	ba050000 	blt	141e00 <_Min_Stack_Size+0x141a00>
    1dfc:	03d10302 	bicseq	r0, r1, #134217728	; 0x8000000
    1e00:	280a0000 	stmdacs	sl, {}	; <UNPREDICTABLE>
    1e04:	09034605 	stmdbeq	r3, {r0, r2, r9, sl, lr}
    1e08:	000006eb 	andeq	r0, r0, fp, ror #13
    1e0c:	00082e0b 	andeq	r2, r8, fp, lsl #28
    1e10:	03480500 	movteq	r0, #34048	; 0x8500
    1e14:	0002fa11 	andeq	pc, r2, r1, lsl sl	; <UNPREDICTABLE>
    1e18:	00230200 	eoreq	r0, r3, r0, lsl #4
    1e1c:	0011310b 	andseq	r3, r1, fp, lsl #2
    1e20:	03490500 	movteq	r0, #38144	; 0x9500
    1e24:	0002fa11 	andeq	pc, r2, r1, lsl sl	; <UNPREDICTABLE>
    1e28:	04230200 	strteq	r0, [r3], #-512	; 0xfffffe00
    1e2c:	0011c90b 	andseq	ip, r1, fp, lsl #18
    1e30:	034a0500 	movteq	r0, #42240	; 0xa500
    1e34:	0006fb11 	andeq	pc, r6, r1, lsl fp	; <UNPREDICTABLE>
    1e38:	08230200 	stmdaeq	r3!, {r9}
    1e3c:	000aae0b 	andeq	sl, sl, fp, lsl #28
    1e40:	034b0500 	movteq	r0, #46336	; 0xb500
    1e44:	0002fa11 	andeq	pc, r2, r1, lsl sl	; <UNPREDICTABLE>
    1e48:	18230200 	stmdane	r3!, {r9}
    1e4c:	0011370b 	andseq	r3, r1, fp, lsl #14
    1e50:	034c0500 	movteq	r0, #50432	; 0xc500
    1e54:	0002fa11 	andeq	pc, r2, r1, lsl sl	; <UNPREDICTABLE>
    1e58:	1c230200 	sfmne	f0, 4, [r3], #-0
    1e5c:	000aa00b 	andeq	sl, sl, fp
    1e60:	034d0500 	movteq	r0, #54528	; 0xd500
    1e64:	0002fa11 	andeq	pc, r2, r1, lsl sl	; <UNPREDICTABLE>
    1e68:	20230200 	eorcs	r0, r3, r0, lsl #4
    1e6c:	524b530c 	subpl	r5, fp, #12, 6	; 0x30000000
    1e70:	034e0500 	movteq	r0, #58624	; 0xe500
    1e74:	0002fa11 	andeq	pc, r2, r1, lsl sl	; <UNPREDICTABLE>
    1e78:	24230200 	strtcs	r0, [r3], #-512	; 0xfffffe00
    1e7c:	02fa0f00 	rscseq	r0, sl, #0, 30
    1e80:	06fb0000 	ldrbteq	r0, [fp], r0
    1e84:	e7100000 	ldr	r0, [r0, -r0]
    1e88:	03000002 	movweq	r0, #2
    1e8c:	06eb0800 	strbteq	r0, [fp], r0, lsl #16
    1e90:	390d0000 	stmdbcc	sp, {}	; <UNPREDICTABLE>
    1e94:	0500000e 	streq	r0, [r0, #-14]
    1e98:	7003034f 	andvc	r0, r3, pc, asr #6
    1e9c:	0a000006 	beq	1ebc <_Min_Stack_Size+0x1abc>
    1ea0:	03b40508 			; <UNDEFINED> instruction: 0x03b40508
    1ea4:	00073809 	andeq	r3, r7, r9, lsl #16
    1ea8:	53430c00 	movtpl	r0, #15360	; 0x3c00
    1eac:	b6050052 			; <UNDEFINED> instruction: 0xb6050052
    1eb0:	02fa1103 	rscseq	r1, sl, #-1073741824	; 0xc0000000
    1eb4:	23020000 	movwcs	r0, #8192	; 0x2000
    1eb8:	43430c00 	movtmi	r0, #15360	; 0x3c00
    1ebc:	b7050052 	smlsdlt	r5, r2, r0, r0
    1ec0:	02fa1103 	rscseq	r1, sl, #-1073741824	; 0xc0000000
    1ec4:	23020000 	movwcs	r0, #8192	; 0x2000
    1ec8:	940d0004 	strls	r0, [sp], #-4
    1ecc:	0500000d 	streq	r0, [r0, #-13]
    1ed0:	0d0303b8 	stceq	3, cr0, [r3, #-736]	; 0xfffffd20
    1ed4:	05000007 	streq	r0, [r0, #-7]
    1ed8:	01760408 	cmneq	r6, r8, lsl #8
    1edc:	07020000 	streq	r0, [r2, -r0]
    1ee0:	0002a301 	andeq	sl, r2, r1, lsl #6
    1ee4:	01270600 			; <UNDEFINED> instruction: 0x01270600
    1ee8:	00000773 	andeq	r0, r0, r3, ror r7
    1eec:	00027704 	andeq	r7, r2, r4, lsl #14
    1ef0:	6d040000 	stcvs	0, cr0, [r4, #-0]
    1ef4:	01000002 	tsteq	r0, r2
    1ef8:	00035a04 	andeq	r5, r3, r4, lsl #20
    1efc:	9b040200 	blls	102704 <_Min_Stack_Size+0x102304>
    1f00:	03000003 	movweq	r0, #3
    1f04:	0bf30600 	bleq	ffcc370c <BootRAM+0xdeb3ead>
    1f08:	2c060000 	stccs	0, cr0, [r6], {-0}
    1f0c:	00074c03 	andeq	r4, r7, r3, lsl #24
    1f10:	0b2a1100 	bleq	a86318 <_Min_Stack_Size+0xa85f18>
    1f14:	3c080000 	stccc	0, cr0, [r8], {-0}
    1f18:	02fa1602 	rscseq	r1, sl, #2097152	; 0x200000
    1f1c:	01010000 	mrseq	r0, (UNDEF: 1)
    1f20:	000fcd11 	andeq	ip, pc, r1, lsl sp	; <UNPREDICTABLE>
    1f24:	023d0800 	eorseq	r0, sp, #0, 16
    1f28:	0002ee11 	andeq	lr, r2, r1, lsl lr
    1f2c:	11010100 	mrsne	r0, (UNDEF: 17)
    1f30:	000009b3 			; <UNDEFINED> instruction: 0x000009b3
    1f34:	11023e08 	tstne	r2, r8, lsl #28
    1f38:	000002ee 	andeq	r0, r0, lr, ror #5
    1f3c:	7f120101 	svcvc	0x00120101
    1f40:	01000007 	tsteq	r0, r7
    1f44:	03050f55 	movweq	r0, #24405	; 0x5f55
    1f48:	20000028 	andcs	r0, r0, r8, lsr #32
    1f4c:	00078e12 	andeq	r8, r7, r2, lsl lr
    1f50:	0a560100 	beq	1582358 <_Min_Stack_Size+0x1581f58>
    1f54:	00080305 	andeq	r0, r8, r5, lsl #6
    1f58:	9d122000 	ldcls	0, cr2, [r2, #-0]
    1f5c:	01000007 	tsteq	r0, r7
    1f60:	03050a57 	movweq	r0, #23127	; 0x5a57
    1f64:	20000004 	andcs	r0, r0, r4
    1f68:	10240113 	eorne	r0, r4, r3, lsl r1
    1f6c:	ec010000 	stc	0, cr0, [r1], {-0}
    1f70:	00010602 	andeq	r0, r1, r2, lsl #12
    1f74:	00000000 	andeq	r0, r0, r0
    1f78:	02000000 	andeq	r0, r0, #0
    1f7c:	0101007d 	tsteq	r1, sp, ror r0
    1f80:	14000008 	strne	r0, [r0], #-8
    1f84:	00001118 	andeq	r1, r0, r8, lsl r1
    1f88:	3802ec01 	stmdacc	r2, {r0, sl, fp, sp, lr, pc}
    1f8c:	000002ee 	andeq	r0, r0, lr, ror #5
    1f90:	15005001 	strne	r5, [r0, #-1]
    1f94:	000cc301 	andeq	ip, ip, r1, lsl #6
    1f98:	02e10100 	rsceq	r0, r1, #0, 2
    1f9c:	00000106 	andeq	r0, r0, r6, lsl #2
    1fa0:	00000000 	andeq	r0, r0, r0
    1fa4:	7d020000 	stcvc	0, cr0, [r2, #-0]
    1fa8:	01150100 	tsteq	r5, r0, lsl #2
    1fac:	00000e56 	andeq	r0, r0, r6, asr lr
    1fb0:	0602d701 	streq	sp, [r2], -r1, lsl #14
    1fb4:	00000001 	andeq	r0, r0, r1
    1fb8:	00000000 	andeq	r0, r0, r0
    1fbc:	007d0200 	rsbseq	r0, sp, r0, lsl #4
    1fc0:	ea011501 	b	473cc <_Min_Stack_Size+0x46fcc>
    1fc4:	01000010 	tsteq	r0, r0, lsl r0
    1fc8:	010602cd 	smlabteq	r6, sp, r2, r0
	...
    1fd4:	01007d02 	tsteq	r0, r2, lsl #26
    1fd8:	0a280115 	beq	a02434 <_Min_Stack_Size+0xa02034>
    1fdc:	c3010000 	movwgt	r0, #4096	; 0x1000
    1fe0:	00010602 	andeq	r0, r1, r2, lsl #12
    1fe4:	00000000 	andeq	r0, r0, r0
    1fe8:	02000000 	andeq	r0, r0, #0
    1fec:	1501007d 	strne	r0, [r1, #-125]	; 0xffffff83
    1ff0:	00097401 	andeq	r7, r9, r1, lsl #8
    1ff4:	02b80100 	adcseq	r0, r8, #0, 2
    1ff8:	00000106 	andeq	r0, r0, r6, lsl #2
    1ffc:	00000000 	andeq	r0, r0, r0
    2000:	7d020000 	stcvc	0, cr0, [r2, #-0]
    2004:	01160100 	tsteq	r6, r0, lsl #2
    2008:	0000094f 	andeq	r0, r0, pc, asr #18
    200c:	13029e01 	movwne	r9, #11777	; 0x2e01
    2010:	00077301 	andeq	r7, r7, r1, lsl #6
	...
    201c:	00023800 	andeq	r3, r2, r0, lsl #16
    2020:	08bc0100 	ldmeq	ip!, {r8}
    2024:	a8170000 	ldmdage	r7, {}	; <UNPREDICTABLE>
    2028:	0100000e 	tsteq	r0, lr
    202c:	ee0c02a0 	cdp	2, 0, cr0, cr12, cr0, {5}
    2030:	5c000002 	stcpl	0, cr0, [r0], {2}
    2034:	58000002 	stmdapl	r0, {r1}
    2038:	18000002 	stmdane	r0, {r1}
    203c:	00000000 	andeq	r0, r0, r0
    2040:	00000b98 	muleq	r0, r8, fp
    2044:	00000018 	andeq	r0, r0, r8, lsl r0
    2048:	000b9800 	andeq	r9, fp, r0, lsl #16
    204c:	01130000 	tsteq	r3, r0
    2050:	000009f8 	strdeq	r0, [r0], -r8
    2054:	06029201 	streq	r9, [r2], -r1, lsl #4
    2058:	00000001 	andeq	r0, r0, r1
    205c:	00000000 	andeq	r0, r0, r0
    2060:	007d0200 	rsbseq	r0, sp, r0, lsl #4
    2064:	0008e701 	andeq	lr, r8, r1, lsl #14
    2068:	0b6c1400 	bleq	1b07070 <_Min_Stack_Size+0x1b06c70>
    206c:	92010000 	andls	r0, r1, #0
    2070:	02ee3102 	rsceq	r3, lr, #-2147483648	; 0x80000000
    2074:	50010000 	andpl	r0, r1, r0
    2078:	86011300 	strhi	r1, [r1], -r0, lsl #6
    207c:	01000008 	tsteq	r0, r8
    2080:	01060284 	smlabbeq	r6, r4, r2, r0
	...
    208c:	01007d02 	tsteq	r0, r2, lsl #26
    2090:	00000912 	andeq	r0, r0, r2, lsl r9
    2094:	0019e014 	andseq	lr, r9, r4, lsl r0
    2098:	02840100 	addeq	r0, r4, #0, 2
    209c:	0002ee36 	andeq	lr, r2, r6, lsr lr
    20a0:	00500100 	subseq	r0, r0, r0, lsl #2
    20a4:	0d6c0113 	stfeqe	f0, [ip, #-76]!	; 0xffffffb4
    20a8:	74010000 	strvc	r0, [r1], #-0
    20ac:	00010602 	andeq	r0, r1, r2, lsl #12
    20b0:	00000000 	andeq	r0, r0, r0
    20b4:	02000000 	andeq	r0, r0, #0
    20b8:	3d01007d 	stccc	0, cr0, [r1, #-500]	; 0xfffffe0c
    20bc:	14000009 	strne	r0, [r0], #-9
    20c0:	000002df 	ldrdeq	r0, [r0], -pc	; <UNPREDICTABLE>
    20c4:	37027401 	strcc	r7, [r2, -r1, lsl #8]
    20c8:	000002ee 	andeq	r0, r0, lr, ror #5
    20cc:	15005001 	strne	r5, [r0, #-1]
    20d0:	000fa801 	andeq	sl, pc, r1, lsl #16
    20d4:	02620100 	rsbeq	r0, r2, #0, 2
    20d8:	00000106 	andeq	r0, r0, r6, lsl #2
    20dc:	00000000 	andeq	r0, r0, r0
    20e0:	7d020000 	stcvc	0, cr0, [r2, #-0]
    20e4:	01150100 	tsteq	r5, r0, lsl #2
    20e8:	00000ddc 	ldrdeq	r0, [r0], -ip
    20ec:	06025301 	streq	r5, [r2], -r1, lsl #6
    20f0:	00000001 	andeq	r0, r0, r1
    20f4:	00000000 	andeq	r0, r0, r0
    20f8:	007d0200 	rsbseq	r0, sp, r0, lsl #4
    20fc:	7b011501 	blvc	47508 <_Min_Stack_Size+0x47108>
    2100:	01000011 	tsteq	r0, r1, lsl r0
    2104:	01060240 	tsteq	r6, r0, asr #4
	...
    2110:	01007d02 	tsteq	r0, r2, lsl #26
    2114:	0e870115 	mcreq	1, 4, r0, cr7, cr5, {0}
    2118:	1f010000 	svcne	0x00010000
    211c:	00010602 	andeq	r0, r1, r2, lsl #12
    2120:	00000000 	andeq	r0, r0, r0
    2124:	02000000 	andeq	r0, r0, #0
    2128:	1501007d 	strne	r0, [r1, #-125]	; 0xffffff83
    212c:	0008d101 	andeq	sp, r8, r1, lsl #2
    2130:	02160100 	andseq	r0, r6, #0, 2
    2134:	00000106 	andeq	r0, r0, r6, lsl #2
    2138:	00000000 	andeq	r0, r0, r0
    213c:	7d020000 	stcvc	0, cr0, [r2, #-0]
    2140:	01150100 	tsteq	r5, r0, lsl #2
    2144:	00000af5 	strdeq	r0, [r0], -r5
    2148:	06020d01 	streq	r0, [r2], -r1, lsl #26
    214c:	00000001 	andeq	r0, r0, r1
    2150:	00000000 	andeq	r0, r0, r0
    2154:	007d0200 	rsbseq	r0, sp, r0, lsl #4
    2158:	7a011501 	bvc	47564 <_Min_Stack_Size+0x47164>
    215c:	0100000b 	tsteq	r0, fp
    2160:	01060204 	tsteq	r6, r4, lsl #4
	...
    216c:	01007d02 	tsteq	r0, r2, lsl #26
    2170:	0a590115 	beq	16425cc <_Min_Stack_Size+0x16421cc>
    2174:	fb010000 	blx	4217e <_Min_Stack_Size+0x41d7e>
    2178:	00010601 	andeq	r0, r1, r1, lsl #12
    217c:	00000000 	andeq	r0, r0, r0
    2180:	02000000 	andeq	r0, r0, #0
    2184:	1501007d 	strne	r0, [r1, #-125]	; 0xffffff83
    2188:	000f2201 	andeq	r2, pc, r1, lsl #4
    218c:	01f20100 	mvnseq	r0, r0, lsl #2
    2190:	00000106 	andeq	r0, r0, r6, lsl #2
    2194:	00000000 	andeq	r0, r0, r0
    2198:	7d020000 	stcvc	0, cr0, [r2, #-0]
    219c:	01190100 	tsteq	r9, r0, lsl #2
    21a0:	00001165 	andeq	r1, r0, r5, ror #2
    21a4:	0a01d501 	beq	775b0 <_Min_Stack_Size+0x771b0>
    21a8:	0002ee01 	andeq	lr, r2, r1, lsl #28
	...
    21b4:	007d0200 	rsbseq	r0, sp, r0, lsl #4
    21b8:	6d011901 	vstrvs.16	s2, [r1, #-2]	; <UNPREDICTABLE>
    21bc:	0100000f 	tsteq	r0, pc
    21c0:	010a01cc 	smlabteq	sl, ip, r1, r0
    21c4:	000002ee 	andeq	r0, r0, lr, ror #5
	...
    21d0:	01007d02 	tsteq	r0, r2, lsl #26
    21d4:	07af0119 			; <UNDEFINED> instruction: 0x07af0119
    21d8:	c3010000 	movwgt	r0, #4096	; 0x1000
    21dc:	ee010a01 	vmla.f32	s0, s2, s2
    21e0:	00000002 	andeq	r0, r0, r2
    21e4:	00000000 	andeq	r0, r0, r0
    21e8:	02000000 	andeq	r0, r0, #0
    21ec:	1501007d 	strne	r0, [r1, #-125]	; 0xffffff83
    21f0:	000da401 	andeq	sl, sp, r1, lsl #8
    21f4:	01b90100 			; <UNDEFINED> instruction: 0x01b90100
    21f8:	0000010d 	andeq	r0, r0, sp, lsl #2
    21fc:	00000000 	andeq	r0, r0, r0
    2200:	7d020000 	stcvc	0, cr0, [r2, #-0]
    2204:	01150100 	tsteq	r5, r0, lsl #2
    2208:	00000f12 	andeq	r0, r0, r2, lsl pc
    220c:	0d01a901 	vstreq.16	s20, [r1, #-2]	; <UNPREDICTABLE>
    2210:	00000001 	andeq	r0, r0, r1
    2214:	00000000 	andeq	r0, r0, r0
    2218:	007d0200 	rsbseq	r0, sp, r0, lsl #4
    221c:	46011a01 	strmi	r1, [r1], -r1, lsl #20
    2220:	01000001 	tsteq	r0, r1
    2224:	010d018f 	smlabbeq	sp, pc, r1, r0	; <UNPREDICTABLE>
    2228:	08000474 	stmdaeq	r0, {r2, r4, r5, r6, sl}
    222c:	0800049c 	stmdaeq	r0, {r2, r3, r4, r7, sl}
    2230:	0000027a 	andeq	r0, r0, sl, ror r2
    2234:	000af901 	andeq	pc, sl, r1, lsl #18
    2238:	014a1b00 	cmpeq	sl, r0, lsl #22
    223c:	8f010000 	svchi	0x00010000
    2240:	02ee2001 	rsceq	r2, lr, #1
    2244:	02a00000 	adceq	r0, r0, #0
    2248:	029a0000 	addseq	r0, sl, #0
    224c:	a8170000 	ldmdage	r7, {}	; <UNPREDICTABLE>
    2250:	0100000e 	tsteq	r0, lr
    2254:	ee0c0191 	mcr	1, 0, r0, cr12, cr1, {4}
    2258:	d0000002 	andle	r0, r0, r2
    225c:	cc000002 	stcgt	0, cr0, [r0], {2}
    2260:	17000002 	strne	r0, [r0, -r2]
    2264:	00000901 	andeq	r0, r0, r1, lsl #18
    2268:	0c019201 	sfmeq	f1, 1, [r1], {1}
    226c:	000002ee 	andeq	r0, r0, lr, ror #5
    2270:	000002f0 	strdeq	r0, [r0], -r0	; <UNPREDICTABLE>
    2274:	000002ee 	andeq	r0, r0, lr, ror #5
    2278:	00047c18 	andeq	r7, r4, r8, lsl ip
    227c:	000b9808 	andeq	r9, fp, r8, lsl #16
    2280:	048e1800 	streq	r1, [lr], #2048	; 0x800
    2284:	0b980800 	bleq	fe60428c <BootRAM+0xc7f4a2d>
    2288:	19000000 	stmdbne	r0, {}	; <UNPREDICTABLE>
    228c:	00100001 	andseq	r0, r0, r1
    2290:	017f0100 	cmneq	pc, r0, lsl #2
    2294:	02ee010a 	rsceq	r0, lr, #-2147483646	; 0x80000002
	...
    22a0:	7d020000 	stcvc	0, cr0, [r2, #-0]
    22a4:	01160100 	tsteq	r6, r0, lsl #2
    22a8:	00000813 	andeq	r0, r0, r3, lsl r8
    22ac:	13015f01 	movwne	r5, #7937	; 0x1f01
    22b0:	00077301 	andeq	r7, r7, r1, lsl #6
	...
    22bc:	00030300 	andeq	r0, r3, r0, lsl #6
    22c0:	0b7d0100 	bleq	1f426c8 <_Min_Stack_Size+0x1f422c8>
    22c4:	a71b0000 	ldrge	r0, [fp, -r0]
    22c8:	01000014 	tsteq	r0, r4, lsl r0
    22cc:	ee2c015f 	mcr	1, 1, r0, cr12, cr15, {2}
    22d0:	2d000002 	stccs	0, cr0, [r0, #-8]
    22d4:	23000003 	movwcs	r0, #3
    22d8:	17000003 	strne	r0, [r0, -r3]
    22dc:	00001526 	andeq	r1, r0, r6, lsr #10
    22e0:	15016101 	strne	r6, [r1, #-257]	; 0xfffffeff
    22e4:	00000773 	andeq	r0, r0, r3, ror r7
    22e8:	0000037e 	andeq	r0, r0, lr, ror r3
    22ec:	00000376 	andeq	r0, r0, r6, ror r3
    22f0:	00106017 	andseq	r6, r0, r7, lsl r0
    22f4:	01620100 	cmneq	r2, r0, lsl #2
    22f8:	0002ee0c 	andeq	lr, r2, ip, lsl #28
    22fc:	0003b600 	andeq	fp, r3, r0, lsl #12
    2300:	0003b400 	andeq	fp, r3, r0, lsl #8
    2304:	00001800 	andeq	r1, r0, r0, lsl #16
    2308:	0bca0000 	bleq	ff282310 <BootRAM+0xd472ab1>
    230c:	19000000 	stmdbne	r0, {}	; <UNPREDICTABLE>
    2310:	00092501 	andeq	r2, r9, r1, lsl #10
    2314:	01560100 	cmpeq	r6, r0, lsl #2
    2318:	02ee010a 	rsceq	r0, lr, #-2147483646	; 0x80000002
	...
    2324:	7d020000 	stcvc	0, cr0, [r2, #-0]
    2328:	01190100 	tsteq	r9, r0, lsl #2
    232c:	00000cab 	andeq	r0, r0, fp, lsr #25
    2330:	11014d01 	tstne	r1, r1, lsl #26
    2334:	0002ee01 	andeq	lr, r2, r1, lsl #28
    2338:	00046800 	andeq	r6, r4, r0, lsl #16
    233c:	00047408 	andeq	r7, r4, r8, lsl #8
    2340:	007d0208 	rsbseq	r0, sp, r8, lsl #4
    2344:	ed011501 	cfstr32	mvfx1, [r1, #-4]
    2348:	01000005 	tsteq	r0, r5
    234c:	010d0142 	tsteq	sp, r2, asr #2
    2350:	08000450 	stmdaeq	r0, {r4, r6, sl}
    2354:	08000468 	stmdaeq	r0, {r3, r5, r6, sl}
    2358:	01007d02 	tsteq	r0, r2, lsl #26
    235c:	0e00011c 	mcreq	1, 0, r0, cr0, cr12, {0}
    2360:	ff010000 			; <UNDEFINED> instruction: 0xff010000
    2364:	0773011a 			; <UNDEFINED> instruction: 0x0773011a
    2368:	03e00000 	mvneq	r0, #0
    236c:	04300800 	ldrteq	r0, [r0], #-2048	; 0xfffff800
    2370:	03c90800 	biceq	r0, r9, #0, 16
    2374:	37010000 	strcc	r0, [r1, -r0]
    2378:	1d00000c 	stcne	0, cr0, [r0, #-48]	; 0xffffffd0
    237c:	000007e6 	andeq	r0, r0, r6, ror #15
    2380:	ee30ff01 	cdp	15, 3, cr15, cr0, cr1, {0}
    2384:	f3000002 	vhadd.u8	d0, d0, d2
    2388:	e9000003 	stmdb	r0, {r0, r1}
    238c:	17000003 	strne	r0, [r0, -r3]
    2390:	00001526 	andeq	r1, r0, r6, lsr #10
    2394:	16010101 	strne	r0, [r1], -r1, lsl #2
    2398:	00000773 	andeq	r0, r0, r3, ror r7
    239c:	00000440 	andeq	r0, r0, r0, asr #8
    23a0:	00000438 	andeq	r0, r0, r8, lsr r4
    23a4:	00040218 	andeq	r0, r4, r8, lsl r2
    23a8:	000cef08 	andeq	lr, ip, r8, lsl #30
    23ac:	04181e00 	ldreq	r1, [r8], #-3584	; 0xfffff200
    23b0:	0cfe0800 	ldcleq	8, cr0, [lr]
    23b4:	011f0000 	tsteq	pc, r0
    23b8:	ff090250 			; <UNDEFINED> instruction: 0xff090250
    23bc:	0251011f 	subseq	r0, r1, #-1073741817	; 0xc0000007
    23c0:	011f0074 	tsteq	pc, r4, ror r0	; <UNPREDICTABLE>
    23c4:	00300152 	eorseq	r0, r0, r2, asr r1
    23c8:	1a012000 	bne	4a3d0 <_Min_Stack_Size+0x49fd0>
    23cc:	0100000a 	tsteq	r0, sl
    23d0:	00010de8 	andeq	r0, r1, r8, ror #27
    23d4:	00000000 	andeq	r0, r0, r0
    23d8:	02000000 	andeq	r0, r0, #0
    23dc:	2001007d 	andcs	r0, r1, sp, ror r0
    23e0:	0006a501 	andeq	sl, r6, r1, lsl #10
    23e4:	0ddd0100 	ldfeqe	f0, [sp]
    23e8:	00000001 	andeq	r0, r0, r1
    23ec:	00000000 	andeq	r0, r0, r0
    23f0:	007d0200 	rsbseq	r0, sp, r0, lsl #4
    23f4:	8e011c01 	cdphi	12, 0, cr1, cr1, cr1, {0}
    23f8:	01000009 	tsteq	r0, r9
    23fc:	730113c0 	movwvc	r1, #5056	; 0x13c0
    2400:	00000007 	andeq	r0, r0, r7
    2404:	00000000 	andeq	r0, r0, r0
    2408:	76000000 	strvc	r0, [r0], -r0
    240c:	01000004 	tsteq	r0, r4
    2410:	00000c8c 	andeq	r0, r0, ip, lsl #25
    2414:	00000018 	andeq	r0, r0, r8, lsl r0
    2418:	000c3700 	andeq	r3, ip, r0, lsl #14
    241c:	011c0000 	tsteq	ip, r0
    2420:	0000027e 	andeq	r0, r0, lr, ror r2
    2424:	01139401 	tsteq	r3, r1, lsl #8
    2428:	00000773 	andeq	r0, r0, r3, ror r7
    242c:	08000430 	stmdaeq	r0, {r4, r5, sl}
    2430:	0800044e 	stmdaeq	r0, {r1, r2, r3, r6, sl}
    2434:	00000496 	muleq	r0, r6, r4
    2438:	000cef01 	andeq	lr, ip, r1, lsl #30
    243c:	15262100 	strne	r2, [r6, #-256]!	; 0xffffff00
    2440:	96010000 	strls	r0, [r1], -r0
    2444:	00077316 	andeq	r7, r7, r6, lsl r3
    2448:	0004bc00 	andeq	fp, r4, r0, lsl #24
    244c:	0004b600 	andeq	fp, r4, r0, lsl #12
    2450:	04382200 	ldrteq	r2, [r8], #-512	; 0xfffffe00
    2454:	0d0d0800 	stceq	8, cr0, [sp, #-0]
    2458:	0cd20000 	ldcleq	0, cr0, [r2], {0}
    245c:	011f0000 	tsteq	pc, r0
    2460:	00330150 	eorseq	r0, r3, r0, asr r1
    2464:	00043e22 	andeq	r3, r4, r2, lsr #28
    2468:	000bca08 	andeq	ip, fp, r8, lsl #20
    246c:	000ce500 	andeq	lr, ip, r0, lsl #10
    2470:	50011f00 	andpl	r1, r1, r0, lsl #30
    2474:	18003f01 	stmdane	r0, {r0, r8, r9, sl, fp, ip, sp}
    2478:	0800044c 	stmdaeq	r0, {r2, r3, r6, sl}
    247c:	00000c4d 	andeq	r0, r0, sp, asr #24
    2480:	01012300 	mrseq	r2, SP_irq
    2484:	00000c05 	andeq	r0, r0, r5, lsl #24
    2488:	00000c05 	andeq	r0, r0, r5, lsl #24
    248c:	0a011209 	beq	46cb8 <_Min_Stack_Size+0x468b8>
    2490:	57010123 	strpl	r0, [r1, -r3, lsr #2]
    2494:	5700000d 	strpl	r0, [r0, -sp]
    2498:	0900000d 	stmdbeq	r0, {r0, r2, r3}
    249c:	2306010e 	movwcs	r0, #24846	; 0x610e
    24a0:	0eea0101 	cdpeq	1, 14, cr0, cr10, cr1, {0}
    24a4:	0eea0000 	cdpeq	0, 14, cr0, cr10, cr0, {0}
    24a8:	0d090000 	stceq	0, cr0, [r9, #-0]
    24ac:	47000601 	strmi	r0, [r0, -r1, lsl #12]
    24b0:	02000010 	andeq	r0, r0, #16
    24b4:	00095000 	andeq	r5, r9, r0
    24b8:	82010400 	andhi	r0, r1, #0, 8
    24bc:	0c000001 	stceq	0, cr0, [r0], {1}
    24c0:	00001245 	andeq	r1, r0, r5, asr #4
    24c4:	00000044 	andeq	r0, r0, r4, asr #32
    24c8:	000001f8 	strdeq	r0, [r0], -r8
	...
    24d4:	0000129d 	muleq	r0, sp, r2
    24d8:	0e070402 	cdpeq	4, 0, cr0, cr7, cr2, {0}
    24dc:	02000001 	andeq	r0, r0, #1
    24e0:	009f0601 	addseq	r0, pc, r1, lsl #12
    24e4:	04030000 	streq	r0, [r3], #-0
    24e8:	02000007 	andeq	r0, r0, #7
    24ec:	0043182b 	subeq	r1, r3, fp, lsr #16
    24f0:	01020000 	mrseq	r0, (UNDEF: 2)
    24f4:	00009d08 	andeq	r9, r0, r8, lsl #26
    24f8:	05020200 	streq	r0, [r2, #-512]	; 0xfffffe00
    24fc:	00000163 	andeq	r0, r0, r3, ror #2
    2500:	27070202 	strcs	r0, [r7, -r2, lsl #4]
    2504:	02000000 	andeq	r0, r0, #0
    2508:	012f0504 			; <UNDEFINED> instruction: 0x012f0504
    250c:	dc030000 	stcle	0, cr0, [r3], {-0}
    2510:	02000000 	andeq	r0, r0, #0
    2514:	006b194f 	rsbeq	r1, fp, pc, asr #18
    2518:	04020000 	streq	r0, [r2], #-0
    251c:	00010907 	andeq	r0, r1, r7, lsl #18
    2520:	05080200 	streq	r0, [r8, #-512]	; 0xfffffe00
    2524:	0000012a 	andeq	r0, r0, sl, lsr #2
    2528:	04070802 	streq	r0, [r7], #-2050	; 0xfffff7fe
    252c:	04000001 	streq	r0, [r0], #-1
    2530:	6e690504 	cdpvs	5, 6, cr0, cr9, cr4, {0}
    2534:	06030074 			; <UNDEFINED> instruction: 0x06030074
    2538:	03000007 	movweq	r0, #7
    253c:	00371318 	eorseq	r1, r7, r8, lsl r3
    2540:	87050000 	strhi	r0, [r5, -r0]
    2544:	03000000 	movweq	r0, #0
    2548:	000000de 	ldrdeq	r0, [r0], -lr
    254c:	5f143003 	svcpl	0x00143003
    2550:	06000000 	streq	r0, [r0], -r0
    2554:	00000098 	muleq	r0, r8, r0
    2558:	00077307 	andeq	r7, r7, r7, lsl #6
    255c:	11390400 	teqne	r9, r0, lsl #8
    2560:	00000098 	muleq	r0, r8, r0
    2564:	93080101 	movwls	r0, #33025	; 0x8101
    2568:	c7000000 	strgt	r0, [r0, -r0]
    256c:	09000000 	stmdbeq	r0, {}	; <UNPREDICTABLE>
    2570:	00000029 	andeq	r0, r0, r9, lsr #32
    2574:	b705000f 	strlt	r0, [r5, -pc]
    2578:	07000000 	streq	r0, [r0, -r0]
    257c:	000006ec 	andeq	r0, r0, ip, ror #13
    2580:	c7173b04 	ldrgt	r3, [r7, -r4, lsl #22]
    2584:	01000000 	mrseq	r0, (UNDEF: 0)
    2588:	00930801 	addseq	r0, r3, r1, lsl #16
    258c:	00ea0000 	rsceq	r0, sl, r0
    2590:	29090000 	stmdbcs	r9, {}	; <UNPREDICTABLE>
    2594:	07000000 	streq	r0, [r0, -r0]
    2598:	00da0500 	sbcseq	r0, sl, r0, lsl #10
    259c:	13070000 	movwne	r0, #28672	; 0x7000
    25a0:	04000007 	streq	r0, [r0], #-7
    25a4:	00ea173c 	rsceq	r1, sl, ip, lsr r7
    25a8:	01010000 	mrseq	r0, (UNDEF: 1)
    25ac:	00009808 	andeq	r9, r0, r8, lsl #16
    25b0:	00010d00 	andeq	r0, r1, r0, lsl #26
    25b4:	00290900 	eoreq	r0, r9, r0, lsl #18
    25b8:	00030000 	andeq	r0, r3, r0
    25bc:	0000a408 	andeq	sl, r0, r8, lsl #8
    25c0:	00011d00 	andeq	r1, r1, r0, lsl #26
    25c4:	00290900 	eoreq	r0, r9, r0, lsl #18
    25c8:	00010000 	andeq	r0, r1, r0
    25cc:	00010d06 	andeq	r0, r1, r6, lsl #26
    25d0:	05780a00 	ldrbeq	r0, [r8, #-2560]!	; 0xfffff600
    25d4:	7b0901c0 	blvc	242cdc <_Min_Stack_Size+0x2428dc>
    25d8:	0b000002 	bleq	25e8 <_Min_Stack_Size+0x21e8>
    25dc:	00524341 	subseq	r4, r2, r1, asr #6
    25e0:	1101c205 	tstne	r1, r5, lsl #4
    25e4:	000000a4 	andeq	r0, r0, r4, lsr #1
    25e8:	0c002302 	stceq	3, cr2, [r0], {2}
    25ec:	000012cd 	andeq	r1, r0, sp, asr #5
    25f0:	1101c305 	tstne	r1, r5, lsl #6
    25f4:	000000a4 	andeq	r0, r0, r4, lsr #1
    25f8:	0c042302 	stceq	3, cr2, [r4], {2}
    25fc:	000012cf 	andeq	r1, r0, pc, asr #5
    2600:	1101c405 	tstne	r1, r5, lsl #8
    2604:	000000a4 	andeq	r0, r0, r4, lsr #1
    2608:	0c082302 	stceq	3, cr2, [r8], {2}
    260c:	000012b8 			; <UNDEFINED> instruction: 0x000012b8
    2610:	1101c505 	tstne	r1, r5, lsl #10
    2614:	000000a4 	andeq	r0, r0, r4, lsr #1
    2618:	0b0c2302 	bleq	30b228 <_Min_Stack_Size+0x30ae28>
    261c:	05005253 	streq	r5, [r0, #-595]	; 0xfffffdad
    2620:	a41101c6 	ldrge	r0, [r1], #-454	; 0xfffffe3a
    2624:	02000000 	andeq	r0, r0, #0
    2628:	430b1023 	movwmi	r1, #45091	; 0xb023
    262c:	c7050052 	smlsdgt	r5, r2, r0, r0
    2630:	00a41101 	adceq	r1, r4, r1, lsl #2
    2634:	23020000 	movwcs	r0, #8192	; 0x2000
    2638:	13b00c14 	movsne	r0, #20, 24	; 0x1400
    263c:	c8050000 	stmdagt	r5, {}	; <UNPREDICTABLE>
    2640:	00a41101 	adceq	r1, r4, r1, lsl #2
    2644:	23020000 	movwcs	r0, #8192	; 0x2000
    2648:	052e0c18 	streq	r0, [lr, #-3096]!	; 0xfffff3e8
    264c:	c9050000 	stmdbgt	r5, {}	; <UNPREDICTABLE>
    2650:	00981101 	addseq	r1, r8, r1, lsl #2
    2654:	23020000 	movwcs	r0, #8192	; 0x2000
    2658:	133a0c1c 	teqne	sl, #28, 24	; 0x1c00
    265c:	ca050000 	bgt	142664 <_Min_Stack_Size+0x142264>
    2660:	00a41101 	adceq	r1, r4, r1, lsl #2
    2664:	23020000 	movwcs	r0, #8192	; 0x2000
    2668:	12d40c20 	sbcsne	r0, r4, #32, 24	; 0x2000
    266c:	cb050000 	blgt	142674 <_Min_Stack_Size+0x142274>
    2670:	00a41101 	adceq	r1, r4, r1, lsl #2
    2674:	23020000 	movwcs	r0, #8192	; 0x2000
    2678:	142f0c24 	strtne	r0, [pc], #-3108	; 2680 <_Min_Stack_Size+0x2280>
    267c:	cc050000 	stcgt	0, cr0, [r5], {-0}
    2680:	00a41101 	adceq	r1, r4, r1, lsl #2
    2684:	23020000 	movwcs	r0, #8192	; 0x2000
    2688:	13170c28 	tstne	r7, #40, 24	; 0x2800
    268c:	cd050000 	stcgt	0, cr0, [r5, #-0]
    2690:	00a41101 	adceq	r1, r4, r1, lsl #2
    2694:	23020000 	movwcs	r0, #8192	; 0x2000
    2698:	13510c2c 	cmpne	r1, #44, 24	; 0x2c00
    269c:	ce050000 	cdpgt	0, 0, cr0, cr5, cr0, {0}
    26a0:	00a41101 	adceq	r1, r4, r1, lsl #2
    26a4:	23020000 	movwcs	r0, #8192	; 0x2000
    26a8:	05380c30 	ldreq	r0, [r8, #-3120]!	; 0xfffff3d0
    26ac:	cf050000 	svcgt	0x00050000
    26b0:	00fd1101 	rscseq	r1, sp, r1, lsl #2
    26b4:	23020000 	movwcs	r0, #8192	; 0x2000
    26b8:	11e40c34 	mvnne	r0, r4, lsr ip
    26bc:	d0050000 	andle	r0, r5, r0
    26c0:	00a41101 	adceq	r1, r4, r1, lsl #2
    26c4:	23020000 	movwcs	r0, #8192	; 0x2000
    26c8:	132b0c44 			; <UNDEFINED> instruction: 0x132b0c44
    26cc:	d1050000 	mrsle	r0, (UNDEF: 5)
    26d0:	00a41101 	adceq	r1, r4, r1, lsl #2
    26d4:	23020000 	movwcs	r0, #8192	; 0x2000
    26d8:	12c60c48 	sbcne	r0, r6, #72, 24	; 0x4800
    26dc:	d2050000 	andle	r0, r5, #0
    26e0:	00a41101 	adceq	r1, r4, r1, lsl #2
    26e4:	23020000 	movwcs	r0, #8192	; 0x2000
    26e8:	12fe0c4c 	rscsne	r0, lr, #76, 24	; 0x4c00
    26ec:	d3050000 	movwle	r0, #20480	; 0x5000
    26f0:	00a41101 	adceq	r1, r4, r1, lsl #2
    26f4:	23020000 	movwcs	r0, #8192	; 0x2000
    26f8:	05420c50 	strbeq	r0, [r2, #-3152]	; 0xfffff3b0
    26fc:	d4050000 	strle	r0, [r5], #-0
    2700:	027b1101 	rsbseq	r1, fp, #1073741824	; 0x40000000
    2704:	23020000 	movwcs	r0, #8192	; 0x2000
    2708:	13340c54 	teqne	r4, #84, 24	; 0x5400
    270c:	d5050000 	strle	r0, [r5, #-0]
    2710:	00a41101 	adceq	r1, r4, r1, lsl #2
    2714:	23020000 	movwcs	r0, #8192	; 0x2000
    2718:	137c0c70 	cmnne	ip, #112, 24	; 0x7000
    271c:	d6050000 	strle	r0, [r5], -r0
    2720:	00a41101 	adceq	r1, r4, r1, lsl #2
    2724:	23020000 	movwcs	r0, #8192	; 0x2000
    2728:	98080074 	stmdals	r8, {r2, r4, r5, r6}
    272c:	8b000000 	blhi	2734 <_Min_Stack_Size+0x2334>
    2730:	09000002 	stmdbeq	r0, {r1}
    2734:	00000029 	andeq	r0, r0, r9, lsr #32
    2738:	800d0006 	andhi	r0, sp, r6
    273c:	05000012 	streq	r0, [r0, #-18]	; 0xffffffee
    2740:	220301d7 	andcs	r0, r3, #-1073741771	; 0xc0000035
    2744:	0a000001 	beq	2750 <_Min_Stack_Size+0x2350>
    2748:	020d052c 	andeq	r0, sp, #44, 10	; 0xb000000
    274c:	00034309 	andeq	r4, r3, r9, lsl #6
    2750:	00140c00 	andseq	r0, r4, r0, lsl #24
    2754:	0f050000 	svceq	0x00050000
    2758:	00a41102 	adceq	r1, r4, r2, lsl #2
    275c:	23020000 	movwcs	r0, #8192	; 0x2000
    2760:	00960c00 	addseq	r0, r6, r0, lsl #24
    2764:	10050000 	andne	r0, r5, r0
    2768:	00a41102 	adceq	r1, r4, r2, lsl #2
    276c:	23020000 	movwcs	r0, #8192	; 0x2000
    2770:	00ef0c04 	rsceq	r0, pc, r4, lsl #24
    2774:	11050000 	mrsne	r0, (UNDEF: 5)
    2778:	00a41102 	adceq	r1, r4, r2, lsl #2
    277c:	23020000 	movwcs	r0, #8192	; 0x2000
    2780:	011b0c08 	tsteq	fp, r8, lsl #24
    2784:	12050000 	andne	r0, r5, #0
    2788:	00a41102 	adceq	r1, r4, r2, lsl #2
    278c:	23020000 	movwcs	r0, #8192	; 0x2000
    2790:	44490b0c 	strbmi	r0, [r9], #-2828	; 0xfffff4f4
    2794:	13050052 	movwne	r0, #20562	; 0x5052
    2798:	00a41102 	adceq	r1, r4, r2, lsl #2
    279c:	23020000 	movwcs	r0, #8192	; 0x2000
    27a0:	444f0b10 	strbmi	r0, [pc], #-2832	; 27a8 <_Min_Stack_Size+0x23a8>
    27a4:	14050052 	strne	r0, [r5], #-82	; 0xffffffae
    27a8:	00a41102 	adceq	r1, r4, r2, lsl #2
    27ac:	23020000 	movwcs	r0, #8192	; 0x2000
    27b0:	00220c14 	eoreq	r0, r2, r4, lsl ip
    27b4:	15050000 	strne	r0, [r5, #-0]
    27b8:	00a41102 	adceq	r1, r4, r2, lsl #2
    27bc:	23020000 	movwcs	r0, #8192	; 0x2000
    27c0:	000f0c18 	andeq	r0, pc, r8, lsl ip	; <UNPREDICTABLE>
    27c4:	16050000 	strne	r0, [r5], -r0
    27c8:	00a41102 	adceq	r1, r4, r2, lsl #2
    27cc:	23020000 	movwcs	r0, #8192	; 0x2000
    27d0:	46410b1c 			; <UNDEFINED> instruction: 0x46410b1c
    27d4:	17050052 	smlsdne	r5, r2, r0, r0
    27d8:	011d1102 	tsteq	sp, r2, lsl #2
    27dc:	23020000 	movwcs	r0, #8192	; 0x2000
    27e0:	52420b20 	subpl	r0, r2, #32, 22	; 0x8000
    27e4:	18050052 	stmdane	r5, {r1, r4, r6}
    27e8:	00a41102 	adceq	r1, r4, r2, lsl #2
    27ec:	23020000 	movwcs	r0, #8192	; 0x2000
    27f0:	f70d0028 			; <UNDEFINED> instruction: 0xf70d0028
    27f4:	05000000 	streq	r0, [r0, #-0]
    27f8:	98030219 	stmdals	r3, {r0, r3, r4, r9}
    27fc:	0a000002 	beq	280c <_Min_Stack_Size+0x240c>
    2800:	025b0584 	subseq	r0, fp, #132, 10	; 0x21000000
    2804:	0004dc09 	andeq	sp, r4, r9, lsl #24
    2808:	52430b00 	subpl	r0, r3, #0, 22
    280c:	5d050031 	stcpl	0, cr0, [r5, #-196]	; 0xffffff3c
    2810:	00a41102 	adceq	r1, r4, r2, lsl #2
    2814:	23020000 	movwcs	r0, #8192	; 0x2000
    2818:	52430b00 	subpl	r0, r3, #0, 22
    281c:	5e050032 	mcrpl	0, 0, r0, cr5, cr2, {1}
    2820:	00a41102 	adceq	r1, r4, r2, lsl #2
    2824:	23020000 	movwcs	r0, #8192	; 0x2000
    2828:	52430b04 	subpl	r0, r3, #4, 22	; 0x1000
    282c:	5f050033 	svcpl	0x00050033
    2830:	00a41102 	adceq	r1, r4, r2, lsl #2
    2834:	23020000 	movwcs	r0, #8192	; 0x2000
    2838:	52430b08 	subpl	r0, r3, #8, 22	; 0x2000
    283c:	60050034 	andvs	r0, r5, r4, lsr r0
    2840:	00a41102 	adceq	r1, r4, r2, lsl #2
    2844:	23020000 	movwcs	r0, #8192	; 0x2000
    2848:	52530b0c 	subspl	r0, r3, #12, 22	; 0x3000
    284c:	61050031 	tstvs	r5, r1, lsr r0
    2850:	00a41102 	adceq	r1, r4, r2, lsl #2
    2854:	23020000 	movwcs	r0, #8192	; 0x2000
    2858:	52530b10 	subspl	r0, r3, #16, 22	; 0x4000
    285c:	62050032 	andvs	r0, r5, #50	; 0x32
    2860:	00a41102 	adceq	r1, r4, r2, lsl #2
    2864:	23020000 	movwcs	r0, #8192	; 0x2000
    2868:	43530b14 	cmpmi	r3, #20, 22	; 0x5000
    286c:	63050052 	movwvs	r0, #20562	; 0x5052
    2870:	00a41102 	adceq	r1, r4, r2, lsl #2
    2874:	23020000 	movwcs	r0, #8192	; 0x2000
    2878:	13820c18 	orrne	r0, r2, #24, 24	; 0x1800
    287c:	64050000 	strvs	r0, [r5], #-0
    2880:	00980c02 	addseq	r0, r8, r2, lsl #24
    2884:	23020000 	movwcs	r0, #8192	; 0x2000
    2888:	128e0c1c 	addne	r0, lr, #28, 24	; 0x1c00
    288c:	65050000 	strvs	r0, [r5, #-0]
    2890:	00a41102 	adceq	r1, r4, r2, lsl #2
    2894:	23020000 	movwcs	r0, #8192	; 0x2000
    2898:	11f80c20 	mvnsne	r0, r0, lsr #24
    289c:	66050000 	strvs	r0, [r5], -r0
    28a0:	00a41102 	adceq	r1, r4, r2, lsl #2
    28a4:	23020000 	movwcs	r0, #8192	; 0x2000
    28a8:	12940c24 	addsne	r0, r4, #36, 24	; 0x2400
    28ac:	67050000 	strvs	r0, [r5, -r0]
    28b0:	00a41102 	adceq	r1, r4, r2, lsl #2
    28b4:	23020000 	movwcs	r0, #8192	; 0x2000
    28b8:	11fe0c28 	mvnsne	r0, r8, lsr #24
    28bc:	68050000 	stmdavs	r5, {}	; <UNPREDICTABLE>
    28c0:	00a41102 	adceq	r1, r4, r2, lsl #2
    28c4:	23020000 	movwcs	r0, #8192	; 0x2000
    28c8:	129a0c2c 	addsne	r0, sl, #44, 24	; 0x2c00
    28cc:	69050000 	stmdbvs	r5, {}	; <UNPREDICTABLE>
    28d0:	00a41102 	adceq	r1, r4, r2, lsl #2
    28d4:	23020000 	movwcs	r0, #8192	; 0x2000
    28d8:	12040c30 	andne	r0, r4, #48, 24	; 0x3000
    28dc:	6a050000 	bvs	1428e4 <_Min_Stack_Size+0x1424e4>
    28e0:	00a41102 	adceq	r1, r4, r2, lsl #2
    28e4:	23020000 	movwcs	r0, #8192	; 0x2000
    28e8:	12a00c34 	adcne	r0, r0, #52, 24	; 0x3400
    28ec:	6b050000 	blvs	1428f4 <_Min_Stack_Size+0x1424f4>
    28f0:	00a41102 	adceq	r1, r4, r2, lsl #2
    28f4:	23020000 	movwcs	r0, #8192	; 0x2000
    28f8:	120a0c38 	andne	r0, sl, #56, 24	; 0x3800
    28fc:	6c050000 	stcvs	0, cr0, [r5], {-0}
    2900:	00a41102 	adceq	r1, r4, r2, lsl #2
    2904:	23020000 	movwcs	r0, #8192	; 0x2000
    2908:	12a60c3c 	adcne	r0, r6, #60, 24	; 0x3c00
    290c:	6d050000 	stcvs	0, cr0, [r5, #-0]
    2910:	00a41102 	adceq	r1, r4, r2, lsl #2
    2914:	23020000 	movwcs	r0, #8192	; 0x2000
    2918:	12100c40 	andsne	r0, r0, #64, 24	; 0x4000
    291c:	6e050000 	cdpvs	0, 0, cr0, cr5, cr0, {0}
    2920:	00a41102 	adceq	r1, r4, r2, lsl #2
    2924:	23020000 	movwcs	r0, #8192	; 0x2000
    2928:	12ac0c44 	adcne	r0, ip, #68, 24	; 0x4400
    292c:	6f050000 	svcvs	0x00050000
    2930:	00a41102 	adceq	r1, r4, r2, lsl #2
    2934:	23020000 	movwcs	r0, #8192	; 0x2000
    2938:	127a0c48 	rsbsne	r0, sl, #72, 24	; 0x4800
    293c:	70050000 	andvc	r0, r5, r0
    2940:	00a41102 	adceq	r1, r4, r2, lsl #2
    2944:	23020000 	movwcs	r0, #8192	; 0x2000
    2948:	12b20c4c 	adcsne	r0, r2, #76, 24	; 0x4c00
    294c:	71050000 	mrsvc	r0, (UNDEF: 5)
    2950:	00a41102 	adceq	r1, r4, r2, lsl #2
    2954:	23020000 	movwcs	r0, #8192	; 0x2000
    2958:	12c00c50 	sbcne	r0, r0, #80, 24	; 0x5000
    295c:	72050000 	andvc	r0, r5, #0
    2960:	00a41102 	adceq	r1, r4, r2, lsl #2
    2964:	23020000 	movwcs	r0, #8192	; 0x2000
    2968:	052e0c54 	streq	r0, [lr, #-3156]!	; 0xfffff3ac
    296c:	73050000 	movwvc	r0, #20480	; 0x5000
    2970:	04dc0c02 	ldrbeq	r0, [ip], #3074	; 0xc02
    2974:	23020000 	movwcs	r0, #8192	; 0x2000
    2978:	52430b58 	subpl	r0, r3, #88, 22	; 0x16000
    297c:	74050035 	strvc	r0, [r5], #-53	; 0xffffffcb
    2980:	00a41102 	adceq	r1, r4, r2, lsl #2
    2984:	23030000 	movwcs	r0, #12288	; 0x3000
    2988:	08000180 	stmdaeq	r0, {r7, r8}
    298c:	00000098 	muleq	r0, r8, r0
    2990:	000004ec 	andeq	r0, r0, ip, ror #9
    2994:	00002909 	andeq	r2, r0, r9, lsl #18
    2998:	0d000900 	vstreq.16	s0, [r0, #-0]	; <UNPREDICTABLE>
    299c:	00001401 	andeq	r1, r0, r1, lsl #8
    29a0:	03027505 	movweq	r7, #9477	; 0x2505
    29a4:	00000350 	andeq	r0, r0, r0, asr r3
    29a8:	9005a00a 	andls	sl, r5, sl
    29ac:	078b0902 	streq	r0, [fp, r2, lsl #18]
    29b0:	430b0000 	movwmi	r0, #45056	; 0xb000
    29b4:	92050052 	andls	r0, r5, #82	; 0x52
    29b8:	00a41102 	adceq	r1, r4, r2, lsl #2
    29bc:	23020000 	movwcs	r0, #8192	; 0x2000
    29c0:	05140c00 	ldreq	r0, [r4, #-3072]	; 0xfffff400
    29c4:	93050000 	movwls	r0, #20480	; 0x5000
    29c8:	00a41102 	adceq	r1, r4, r2, lsl #2
    29cc:	23020000 	movwcs	r0, #8192	; 0x2000
    29d0:	041e0c04 	ldreq	r0, [lr], #-3076	; 0xfffff3fc
    29d4:	94050000 	strls	r0, [r5], #-0
    29d8:	00a41102 	adceq	r1, r4, r2, lsl #2
    29dc:	23020000 	movwcs	r0, #8192	; 0x2000
    29e0:	041b0c08 	ldreq	r0, [fp], #-3080	; 0xfffff3f8
    29e4:	95050000 	strls	r0, [r5, #-0]
    29e8:	00a41102 	adceq	r1, r4, r2, lsl #2
    29ec:	23020000 	movwcs	r0, #8192	; 0x2000
    29f0:	05240c0c 	streq	r0, [r4, #-3084]!	; 0xfffff3f4
    29f4:	96050000 	strls	r0, [r5], -r0
    29f8:	00981102 	addseq	r1, r8, r2, lsl #2
    29fc:	23020000 	movwcs	r0, #8192	; 0x2000
    2a00:	052e0c10 	streq	r0, [lr, #-3088]!	; 0xfffff3f0
    2a04:	97050000 	strls	r0, [r5, -r0]
    2a08:	00981102 	addseq	r1, r8, r2, lsl #2
    2a0c:	23020000 	movwcs	r0, #8192	; 0x2000
    2a10:	045d0c14 	ldrbeq	r0, [sp], #-3092	; 0xfffff3ec
    2a14:	98050000 	stmdals	r5, {}	; <UNPREDICTABLE>
    2a18:	00a41102 	adceq	r1, r4, r2, lsl #2
    2a1c:	23020000 	movwcs	r0, #8192	; 0x2000
    2a20:	05880c18 	streq	r0, [r8, #3096]	; 0xc18
    2a24:	99050000 	stmdbls	r5, {}	; <UNPREDICTABLE>
    2a28:	00a41102 	adceq	r1, r4, r2, lsl #2
    2a2c:	23020000 	movwcs	r0, #8192	; 0x2000
    2a30:	044f0c1c 	strbeq	r0, [pc], #-3100	; 2a38 <_Min_Stack_Size+0x2638>
    2a34:	9a050000 	bls	142a3c <_Min_Stack_Size+0x14263c>
    2a38:	00a41102 	adceq	r1, r4, r2, lsl #2
    2a3c:	23020000 	movwcs	r0, #8192	; 0x2000
    2a40:	05380c20 	ldreq	r0, [r8, #-3104]!	; 0xfffff3e0
    2a44:	9b050000 	blls	142a4c <_Min_Stack_Size+0x14264c>
    2a48:	00981102 	addseq	r1, r8, r2, lsl #2
    2a4c:	23020000 	movwcs	r0, #8192	; 0x2000
    2a50:	04540c24 	ldrbeq	r0, [r4], #-3108	; 0xfffff3dc
    2a54:	9c050000 	stcls	0, cr0, [r5], {-0}
    2a58:	00a41102 	adceq	r1, r4, r2, lsl #2
    2a5c:	23020000 	movwcs	r0, #8192	; 0x2000
    2a60:	04f20c28 	ldrbteq	r0, [r2], #3112	; 0xc28
    2a64:	9d050000 	stcls	0, cr0, [r5, #-0]
    2a68:	00a41102 	adceq	r1, r4, r2, lsl #2
    2a6c:	23020000 	movwcs	r0, #8192	; 0x2000
    2a70:	05cb0c2c 	strbeq	r0, [fp, #3116]	; 0xc2c
    2a74:	9e050000 	cdpls	0, 0, cr0, cr5, cr0, {0}
    2a78:	00a41102 	adceq	r1, r4, r2, lsl #2
    2a7c:	23020000 	movwcs	r0, #8192	; 0x2000
    2a80:	05420c30 	strbeq	r0, [r2, #-3120]	; 0xfffff3d0
    2a84:	9f050000 	svcls	0x00050000
    2a88:	00981102 	addseq	r1, r8, r2, lsl #2
    2a8c:	23020000 	movwcs	r0, #8192	; 0x2000
    2a90:	04230c34 	strteq	r0, [r3], #-3124	; 0xfffff3cc
    2a94:	a0050000 	andge	r0, r5, r0
    2a98:	00a41102 	adceq	r1, r4, r2, lsl #2
    2a9c:	23020000 	movwcs	r0, #8192	; 0x2000
    2aa0:	042d0c38 	strteq	r0, [sp], #-3128	; 0xfffff3c8
    2aa4:	a1050000 	mrsge	r0, (UNDEF: 5)
    2aa8:	00a41102 	adceq	r1, r4, r2, lsl #2
    2aac:	23020000 	movwcs	r0, #8192	; 0x2000
    2ab0:	04a30c3c 	strteq	r0, [r3], #3132	; 0xc3c
    2ab4:	a2050000 	andge	r0, r5, #0
    2ab8:	00a41102 	adceq	r1, r4, r2, lsl #2
    2abc:	23020000 	movwcs	r0, #8192	; 0x2000
    2ac0:	054c0c40 	strbeq	r0, [ip, #-3136]	; 0xfffff3c0
    2ac4:	a3050000 	movwge	r0, #20480	; 0x5000
    2ac8:	00981102 	addseq	r1, r8, r2, lsl #2
    2acc:	23020000 	movwcs	r0, #8192	; 0x2000
    2ad0:	058d0c44 	streq	r0, [sp, #3140]	; 0xc44
    2ad4:	a4050000 	strge	r0, [r5], #-0
    2ad8:	00a41102 	adceq	r1, r4, r2, lsl #2
    2adc:	23020000 	movwcs	r0, #8192	; 0x2000
    2ae0:	04370c48 	ldrteq	r0, [r7], #-3144	; 0xfffff3b8
    2ae4:	a5050000 	strge	r0, [r5, #-0]
    2ae8:	00a41102 	adceq	r1, r4, r2, lsl #2
    2aec:	23020000 	movwcs	r0, #8192	; 0x2000
    2af0:	04620c4c 	strbteq	r0, [r2], #-3148	; 0xfffff3b4
    2af4:	a6050000 	strge	r0, [r5], -r0
    2af8:	00a41102 	adceq	r1, r4, r2, lsl #2
    2afc:	23020000 	movwcs	r0, #8192	; 0x2000
    2b00:	05560c50 	ldrbeq	r0, [r6, #-3152]	; 0xfffff3b0
    2b04:	a7050000 	strge	r0, [r5, -r0]
    2b08:	00981102 	addseq	r1, r8, r2, lsl #2
    2b0c:	23020000 	movwcs	r0, #8192	; 0x2000
    2b10:	04fb0c54 	ldrbteq	r0, [fp], #3156	; 0xc54
    2b14:	a8050000 	stmdage	r5, {}	; <UNPREDICTABLE>
    2b18:	00a41102 	adceq	r1, r4, r2, lsl #2
    2b1c:	23020000 	movwcs	r0, #8192	; 0x2000
    2b20:	05040c58 	streq	r0, [r4, #-3160]	; 0xfffff3a8
    2b24:	a9050000 	stmdbge	r5, {}	; <UNPREDICTABLE>
    2b28:	00a41102 	adceq	r1, r4, r2, lsl #2
    2b2c:	23020000 	movwcs	r0, #8192	; 0x2000
    2b30:	04d40c5c 	ldrbeq	r0, [r4], #3164	; 0xc5c
    2b34:	aa050000 	bge	142b3c <_Min_Stack_Size+0x14273c>
    2b38:	00a41102 	adceq	r1, r4, r2, lsl #2
    2b3c:	23020000 	movwcs	r0, #8192	; 0x2000
    2b40:	05600c60 	strbeq	r0, [r0, #-3168]!	; 0xfffff3a0
    2b44:	ab050000 	blge	142b4c <_Min_Stack_Size+0x14274c>
    2b48:	00981102 	addseq	r1, r8, r2, lsl #2
    2b4c:	23020000 	movwcs	r0, #8192	; 0x2000
    2b50:	05c10c64 	strbeq	r0, [r1, #3172]	; 0xc64
    2b54:	ac050000 	stcge	0, cr0, [r5], {-0}
    2b58:	00a41102 	adceq	r1, r4, r2, lsl #2
    2b5c:	23020000 	movwcs	r0, #8192	; 0x2000
    2b60:	04990c68 	ldreq	r0, [r9], #3176	; 0xc68
    2b64:	ad050000 	stcge	0, cr0, [r5, #-0]
    2b68:	00a41102 	adceq	r1, r4, r2, lsl #2
    2b6c:	23020000 	movwcs	r0, #8192	; 0x2000
    2b70:	05b70c6c 	ldreq	r0, [r7, #3180]!	; 0xc6c
    2b74:	ae050000 	cdpge	0, 0, cr0, cr5, cr0, {0}
    2b78:	00a41102 	adceq	r1, r4, r2, lsl #2
    2b7c:	23020000 	movwcs	r0, #8192	; 0x2000
    2b80:	056a0c70 	strbeq	r0, [sl, #-3184]!	; 0xfffff390
    2b84:	af050000 	svcge	0x00050000
    2b88:	00981102 	addseq	r1, r8, r2, lsl #2
    2b8c:	23020000 	movwcs	r0, #8192	; 0x2000
    2b90:	04770c74 	ldrbteq	r0, [r7], #-3188	; 0xfffff38c
    2b94:	b0050000 	andlt	r0, r5, r0
    2b98:	00a41102 	adceq	r1, r4, r2, lsl #2
    2b9c:	23020000 	movwcs	r0, #8192	; 0x2000
    2ba0:	04820c78 	streq	r0, [r2], #3192	; 0xc78
    2ba4:	b1050000 	mrslt	r0, (UNDEF: 5)
    2ba8:	00a41102 	adceq	r1, r4, r2, lsl #2
    2bac:	23020000 	movwcs	r0, #8192	; 0x2000
    2bb0:	051a0c7c 	ldreq	r0, [sl, #-3196]	; 0xfffff384
    2bb4:	b2050000 	andlt	r0, r5, #0
    2bb8:	00a41102 	adceq	r1, r4, r2, lsl #2
    2bbc:	23030000 	movwcs	r0, #12288	; 0x3000
    2bc0:	740c0180 	strvc	r0, [ip], #-384	; 0xfffffe80
    2bc4:	05000005 	streq	r0, [r0, #-5]
    2bc8:	981102b3 	ldmdals	r1, {r0, r1, r4, r5, r7, r9}
    2bcc:	03000000 	movweq	r0, #0
    2bd0:	0c018423 	cfstrseq	mvf8, [r1], {35}	; 0x23
    2bd4:	00000449 	andeq	r0, r0, r9, asr #8
    2bd8:	1102b405 	tstne	r2, r5, lsl #8
    2bdc:	000000a4 	andeq	r0, r0, r4, lsr #1
    2be0:	01882303 	orreq	r2, r8, r3, lsl #6
    2be4:	00057e0c 	andeq	r7, r5, ip, lsl #28
    2be8:	02b50500 	adcseq	r0, r5, #0, 10
    2bec:	00009811 	andeq	r9, r0, r1, lsl r8
    2bf0:	8c230300 	stchi	3, cr0, [r3], #-0
    2bf4:	043f0c01 	ldrteq	r0, [pc], #-3073	; 2bfc <_Min_Stack_Size+0x27fc>
    2bf8:	b6050000 	strlt	r0, [r5], -r0
    2bfc:	00a41102 	adceq	r1, r4, r2, lsl #2
    2c00:	23030000 	movwcs	r0, #12288	; 0x3000
    2c04:	430b0190 	movwmi	r0, #45456	; 0xb190
    2c08:	05005253 	streq	r5, [r0, #-595]	; 0xfffffdad
    2c0c:	a41102b7 	ldrge	r0, [r1], #-695	; 0xfffffd49
    2c10:	03000000 	movweq	r0, #0
    2c14:	0c019423 	cfstrseq	mvf9, [r1], {35}	; 0x23
    2c18:	000004dc 	ldrdeq	r0, [r0], -ip
    2c1c:	1102b805 	tstne	r2, r5, lsl #16
    2c20:	000000a4 	andeq	r0, r0, r4, lsr #1
    2c24:	01982303 	orrseq	r2, r8, r3, lsl #6
    2c28:	00050d0c 	andeq	r0, r5, ip, lsl #26
    2c2c:	02b90500 	adcseq	r0, r9, #0, 10
    2c30:	0000a411 	andeq	sl, r0, r1, lsl r4
    2c34:	9c230300 	stcls	3, cr0, [r3], #-0
    2c38:	8d0d0001 	stchi	0, cr0, [sp, #-4]
    2c3c:	05000004 	streq	r0, [r0, #-4]
    2c40:	f90302ba 			; <UNDEFINED> instruction: 0xf90302ba
    2c44:	0e000004 	cdpeq	0, 0, cr0, cr0, cr4, {0}
    2c48:	00430107 	subeq	r0, r3, r7, lsl #2
    2c4c:	8a060000 	bhi	182c54 <_Min_Stack_Size+0x182854>
    2c50:	0007b301 	andeq	fp, r7, r1, lsl #6
    2c54:	04ce0f00 	strbeq	r0, [lr], #3840	; 0xf00
    2c58:	10000000 	andne	r0, r0, r0
    2c5c:	00544553 	subseq	r4, r4, r3, asr r5
    2c60:	ed030001 	stc	0, cr0, [r3, #-4]
    2c64:	06000011 			; <UNDEFINED> instruction: 0x06000011
    2c68:	0798038d 	ldreq	r0, [r8, sp, lsl #7]
    2c6c:	08020000 	stmdaeq	r2, {}	; <UNPREDICTABLE>
    2c70:	00017604 	andeq	r7, r1, r4, lsl #12
    2c74:	01070e00 	tsteq	r7, r0, lsl #28
    2c78:	00000043 	andeq	r0, r0, r3, asr #32
    2c7c:	ed012707 	stc	7, cr2, [r1, #-28]	; 0xffffffe4
    2c80:	0f000007 	svceq	0x00000007
    2c84:	00000277 	andeq	r0, r0, r7, ror r2
    2c88:	026d0f00 	rsbeq	r0, sp, #0, 30
    2c8c:	0f010000 	svceq	0x00010000
    2c90:	0000035a 	andeq	r0, r0, sl, asr r3
    2c94:	039b0f02 	orrseq	r0, fp, #2, 30
    2c98:	00030000 	andeq	r0, r3, r0
    2c9c:	000bf303 	andeq	pc, fp, r3, lsl #6
    2ca0:	032c0700 			; <UNDEFINED> instruction: 0x032c0700
    2ca4:	000007c6 	andeq	r0, r0, r6, asr #15
    2ca8:	2d081c11 	stccs	12, cr1, [r8, #-68]	; 0xffffffbc
    2cac:	00086c09 	andeq	r6, r8, r9, lsl #24
    2cb0:	03231200 			; <UNDEFINED> instruction: 0x03231200
    2cb4:	2f080000 	svccs	0x00080000
    2cb8:	0000980c 	andeq	r9, r0, ip, lsl #16
    2cbc:	00230200 	eoreq	r0, r3, r0, lsl #4
    2cc0:	00122d12 	andseq	r2, r2, r2, lsl sp
    2cc4:	0c320800 	ldceq	8, cr0, [r2], #-0
    2cc8:	00000098 	muleq	r0, r8, r0
    2ccc:	12042302 	andne	r2, r4, #134217728	; 0x8000000
    2cd0:	00000315 	andeq	r0, r0, r5, lsl r3
    2cd4:	980c3508 	stmdals	ip, {r3, r8, sl, ip, sp}
    2cd8:	02000000 	andeq	r0, r0, #0
    2cdc:	01120823 	tsteq	r2, r3, lsr #16
    2ce0:	08000003 	stmdaeq	r0, {r0, r1}
    2ce4:	00980c38 	addseq	r0, r8, r8, lsr ip
    2ce8:	23020000 	movwcs	r0, #8192	; 0x2000
    2cec:	0306120c 	movweq	r1, #25100	; 0x620c
    2cf0:	3b080000 	blcc	202cf8 <_Min_Stack_Size+0x2028f8>
    2cf4:	0000980c 	andeq	r9, r0, ip, lsl #16
    2cf8:	10230200 	eorne	r0, r3, r0, lsl #4
    2cfc:	00030b12 	andeq	r0, r3, r2, lsl fp
    2d00:	0c3e0800 	ldceq	8, cr0, [lr], #-0
    2d04:	00000098 	muleq	r0, r8, r0
    2d08:	12142302 	andsne	r2, r4, #134217728	; 0x8000000
    2d0c:	00000310 	andeq	r0, r0, r0, lsl r3
    2d10:	980c4108 	stmdals	ip, {r3, r8, lr}
    2d14:	02000000 	andeq	r0, r0, #0
    2d18:	03001823 	movweq	r1, #2083	; 0x823
    2d1c:	0000033e 	andeq	r0, r0, lr, lsr r3
    2d20:	f9024508 			; <UNDEFINED> instruction: 0xf9024508
    2d24:	11000007 	tstne	r0, r7
    2d28:	094a0838 	stmdbeq	sl, {r3, r4, r5, fp}^
    2d2c:	000008fa 	strdeq	r0, [r0], -sl
    2d30:	0003fe12 	andeq	pc, r3, r2, lsl lr	; <UNPREDICTABLE>
    2d34:	0c4c0800 	mcrreq	8, 0, r0, ip, cr0
    2d38:	00000098 	muleq	r0, r8, r0
    2d3c:	12002302 	andne	r2, r0, #134217728	; 0x8000000
    2d40:	0000031a 	andeq	r0, r0, sl, lsl r3
    2d44:	980c4f08 	stmdals	ip, {r3, r8, r9, sl, fp, lr}
    2d48:	02000000 	andeq	r0, r0, #0
    2d4c:	e8120423 	ldmda	r2, {r0, r1, r5, sl}
    2d50:	08000003 	stmdaeq	r0, {r0, r1}
    2d54:	00980c52 	addseq	r0, r8, r2, asr ip
    2d58:	23020000 	movwcs	r0, #8192	; 0x2000
    2d5c:	03511208 	cmpeq	r1, #8, 4	; 0x80000000
    2d60:	55080000 	strpl	r0, [r8, #-0]
    2d64:	0000980c 	andeq	r9, r0, ip, lsl #16
    2d68:	0c230200 	sfmeq	f0, 4, [r3], #-0
    2d6c:	00024612 	andeq	r4, r2, r2, lsl r6
    2d70:	0c580800 	mrrceq	8, 0, r0, r8, cr0
    2d74:	00000098 	muleq	r0, r8, r0
    2d78:	12102302 	andsne	r2, r0, #134217728	; 0x8000000
    2d7c:	000003b2 			; <UNDEFINED> instruction: 0x000003b2
    2d80:	980c5b08 	stmdals	ip, {r3, r8, r9, fp, ip, lr}
    2d84:	02000000 	andeq	r0, r0, #0
    2d88:	a7121423 	ldrge	r1, [r2, -r3, lsr #8]
    2d8c:	08000003 	stmdaeq	r0, {r0, r1}
    2d90:	00980c5e 	addseq	r0, r8, lr, asr ip
    2d94:	23020000 	movwcs	r0, #8192	; 0x2000
    2d98:	4c501318 	mrrcmi	3, 1, r1, r0, cr8
    2d9c:	6108004c 	tstvs	r8, ip, asr #32
    2da0:	00086c16 	andeq	r6, r8, r6, lsl ip
    2da4:	1c230200 	sfmne	f0, 4, [r3], #-0
    2da8:	03760300 	cmneq	r6, #0, 6
    2dac:	63080000 	movwvs	r0, #32768	; 0x8000
    2db0:	00087802 	andeq	r7, r8, r2, lsl #16
    2db4:	08141100 	ldmdaeq	r4, {r8, ip}
    2db8:	095b0968 	ldmdbeq	fp, {r3, r5, r6, r8, fp}^
    2dbc:	96120000 	ldrls	r0, [r2], -r0
    2dc0:	08000002 	stmdaeq	r0, {r1}
    2dc4:	00980c6a 	addseq	r0, r8, sl, ror #24
    2dc8:	23020000 	movwcs	r0, #8192	; 0x2000
    2dcc:	03f11200 	mvnseq	r1, #0, 4
    2dd0:	6d080000 	stcvs	0, cr0, [r8, #-0]
    2dd4:	0000980c 	andeq	r9, r0, ip, lsl #16
    2dd8:	04230200 	strteq	r0, [r3], #-512	; 0xfffffe00
    2ddc:	0002a012 	andeq	sl, r2, r2, lsl r0
    2de0:	0c700800 	ldcleq	8, cr0, [r0], #-0
    2de4:	00000098 	muleq	r0, r8, r0
    2de8:	12082302 	andne	r2, r8, #134217728	; 0x8000000
    2dec:	00000287 	andeq	r0, r0, r7, lsl #5
    2df0:	980c7308 	stmdals	ip, {r3, r8, r9, ip, sp, lr}
    2df4:	02000000 	andeq	r0, r0, #0
    2df8:	bf120c23 	svclt	0x00120c23
    2dfc:	08000002 	stmdaeq	r0, {r1}
    2e00:	00980c76 	addseq	r0, r8, r6, ror ip
    2e04:	23020000 	movwcs	r0, #8192	; 0x2000
    2e08:	5a030010 	bpl	c2e50 <_Min_Stack_Size+0xc2a50>
    2e0c:	08000002 	stmdaeq	r0, {r1}
    2e10:	09060279 	stmdbeq	r6, {r0, r3, r4, r5, r6, r9}
    2e14:	14110000 	ldrne	r0, [r1], #-0
    2e18:	bc092f09 	stclt	15, cr2, [r9], {9}
    2e1c:	13000009 	movwne	r0, #9
    2e20:	006e6950 	rsbeq	r6, lr, r0, asr r9
    2e24:	980c3109 	stmdals	ip, {r0, r3, r8, ip, sp}
    2e28:	02000000 	andeq	r0, r0, #0
    2e2c:	e0120023 	ands	r0, r2, r3, lsr #32
    2e30:	09000019 	stmdbeq	r0, {r0, r3, r4}
    2e34:	00980c34 	addseq	r0, r8, r4, lsr ip
    2e38:	23020000 	movwcs	r0, #8192	; 0x2000
    2e3c:	04441204 	strbeq	r1, [r4], #-516	; 0xfffffdfc
    2e40:	37090000 	strcc	r0, [r9, -r0]
    2e44:	0000980c 	andeq	r9, r0, ip, lsl #16
    2e48:	08230200 	stmdaeq	r3!, {r9}
    2e4c:	0005a012 	andeq	sl, r5, r2, lsl r0
    2e50:	0c3a0900 			; <UNDEFINED> instruction: 0x0c3a0900
    2e54:	00000098 	muleq	r0, r8, r0
    2e58:	120c2302 	andne	r2, ip, #134217728	; 0x8000000
    2e5c:	000005d4 	ldrdeq	r0, [r0], -r4
    2e60:	980c3d09 	stmdals	ip, {r0, r3, r8, sl, fp, ip, sp}
    2e64:	02000000 	andeq	r0, r0, #0
    2e68:	03001023 	movweq	r1, #35	; 0x23
    2e6c:	000005a6 	andeq	r0, r0, r6, lsr #11
    2e70:	67033f09 	strvs	r3, [r3, -r9, lsl #30]
    2e74:	14000009 	strne	r0, [r0], #-9
    2e78:	00000fcd 	andeq	r0, r0, sp, asr #31
    2e7c:	11023d0a 	tstne	r2, sl, lsl #26
    2e80:	00000098 	muleq	r0, r8, r0
    2e84:	16150101 	ldrne	r0, [r5], -r1, lsl #2
    2e88:	01000012 	tsteq	r0, r2, lsl r0
    2e8c:	01110550 	tsteq	r1, r0, asr r5
    2e90:	00000098 	muleq	r0, r8, r0
    2e94:	0800049c 	stmdaeq	r0, {r2, r3, r4, r7, sl}
    2e98:	080004f4 	stmdaeq	r0, {r2, r4, r5, r6, r7, sl}
    2e9c:	01007d02 	tsteq	r0, r2, lsl #26
    2ea0:	00000a5f 	andeq	r0, r0, pc, asr sl
    2ea4:	00074716 	andeq	r4, r7, r6, lsl r7
    2ea8:	05520100 	ldrbeq	r0, [r2, #-256]	; 0xffffff00
    2eac:	0000980c 	andeq	r9, r0, ip, lsl #16
    2eb0:	0004eb00 	andeq	lr, r4, r0, lsl #22
    2eb4:	0004e700 	andeq	lr, r4, r0, lsl #14
    2eb8:	07211600 	streq	r1, [r1, -r0, lsl #12]!
    2ebc:	52010000 	andpl	r0, r1, #0
    2ec0:	00981405 	addseq	r1, r8, r5, lsl #8
    2ec4:	050b0000 	streq	r0, [fp, #-0]
    2ec8:	05090000 	streq	r0, [r9, #-0]
    2ecc:	30160000 	andscc	r0, r6, r0
    2ed0:	01000007 	tsteq	r0, r7
    2ed4:	981f0552 	ldmdals	pc, {r1, r4, r6, r8, sl}	; <UNPREDICTABLE>
    2ed8:	20000000 	andcs	r0, r0, r0
    2edc:	1e000005 	cdpne	0, 0, cr0, cr0, cr5, {0}
    2ee0:	16000005 	strne	r0, [r0], -r5
    2ee4:	0000072b 	andeq	r0, r0, fp, lsr #14
    2ee8:	25055201 	strcs	r5, [r5, #-513]	; 0xfffffdff
    2eec:	00000098 	muleq	r0, r8, r0
    2ef0:	00000537 	andeq	r0, r0, r7, lsr r5
    2ef4:	00000533 	andeq	r0, r0, r3, lsr r5
    2ef8:	00131e16 	andseq	r1, r3, r6, lsl lr
    2efc:	05530100 	ldrbeq	r0, [r3, #-256]	; 0xffffff00
    2f00:	0000980c 	andeq	r9, r0, ip, lsl #16
    2f04:	00055900 	andeq	r5, r5, r0, lsl #18
    2f08:	00055500 	andeq	r5, r5, r0, lsl #10
    2f0c:	01170000 	tsteq	r7, r0
    2f10:	000011d0 	ldrdeq	r1, [r0], -r0
    2f14:	0d053801 	stceq	8, cr3, [r5, #-4]
    2f18:	00000001 	andeq	r0, r0, r1
    2f1c:	00000000 	andeq	r0, r0, r0
    2f20:	007d0200 	rsbseq	r0, sp, r0, lsl #4
    2f24:	80011801 	andhi	r1, r1, r1, lsl #16
    2f28:	01000014 	tsteq	r0, r4, lsl r0
    2f2c:	01060527 	tsteq	r6, r7, lsr #10
	...
    2f38:	00000582 	andeq	r0, r0, r2, lsl #11
    2f3c:	000a9c01 	andeq	r9, sl, r1, lsl #24
    2f40:	00001900 	andeq	r1, r0, r0, lsl #18
    2f44:	0a5f0000 	beq	17c2f4c <_Min_Stack_Size+0x17c2b4c>
    2f48:	17000000 	strne	r0, [r0, -r0]
    2f4c:	0012e801 	andseq	lr, r2, r1, lsl #16
    2f50:	051d0100 	ldreq	r0, [sp, #-256]	; 0xffffff00
    2f54:	00000106 	andeq	r0, r0, r6, lsl #2
    2f58:	00000000 	andeq	r0, r0, r0
    2f5c:	7d020000 	stcvc	0, cr0, [r2, #-0]
    2f60:	01170100 	tsteq	r7, r0, lsl #2
    2f64:	0000138b 	andeq	r1, r0, fp, lsl #7
    2f68:	06051201 	streq	r1, [r5], -r1, lsl #4
    2f6c:	00000001 	andeq	r0, r0, r1
    2f70:	00000000 	andeq	r0, r0, r0
    2f74:	007d0200 	rsbseq	r0, sp, r0, lsl #4
    2f78:	05011701 	streq	r1, [r1, #-1793]	; 0xfffff8ff
    2f7c:	01000013 	tsteq	r0, r3, lsl r0
    2f80:	01060504 	tsteq	r6, r4, lsl #10
	...
    2f8c:	01007d02 	tsteq	r0, r2, lsl #26
    2f90:	13ea011a 	mvnne	r0, #-2147483642	; 0x80000006
    2f94:	e1010000 	mrs	r0, (UNDEF: 1)
    2f98:	00010604 	andeq	r0, r1, r4, lsl #12
    2f9c:	00000000 	andeq	r0, r0, r0
    2fa0:	02000000 	andeq	r0, r0, #0
    2fa4:	1b01007d 	blne	431a0 <_Min_Stack_Size+0x42da0>
    2fa8:	1b00000b 	blne	2fdc <_Min_Stack_Size+0x2bdc>
    2fac:	00000227 	andeq	r0, r0, r7, lsr #4
    2fb0:	3204e101 	andcc	lr, r4, #1073741824	; 0x40000000
    2fb4:	00000b1b 	andeq	r0, r0, fp, lsl fp
    2fb8:	611b5001 	tstvs	fp, r1
    2fbc:	01000014 	tsteq	r0, r4, lsl r0
    2fc0:	214f04e1 	smlalttcs	r0, pc, r1, r4	; <UNPREDICTABLE>
    2fc4:	0100000b 	tsteq	r0, fp
    2fc8:	041c0051 	ldreq	r0, [ip], #-81	; 0xffffffaf
    2fcc:	0000095b 	andeq	r0, r0, fp, asr r9
    2fd0:	0098041c 	addseq	r0, r8, ip, lsl r4
    2fd4:	011a0000 	tsteq	sl, r0
    2fd8:	0000146b 	andeq	r1, r0, fp, ror #8
    2fdc:	06048301 	streq	r8, [r4], -r1, lsl #6
    2fe0:	00000001 	andeq	r0, r0, r1
    2fe4:	00000000 	andeq	r0, r0, r0
    2fe8:	007d0200 	rsbseq	r0, sp, r0, lsl #4
    2fec:	000b5201 	andeq	r5, fp, r1, lsl #4
    2ff0:	03891b00 	orreq	r1, r9, #0, 22
    2ff4:	83010000 	movwhi	r0, #4096	; 0x1000
    2ff8:	0b523004 	bleq	148f010 <_Min_Stack_Size+0x148ec10>
    2ffc:	50010000 	andpl	r0, r1, r0
    3000:	fa041c00 	blx	10a008 <_Min_Stack_Size+0x109c08>
    3004:	1d000008 	stcne	0, cr0, [r0, #-32]	; 0xffffffe0
    3008:	00136701 	andseq	r6, r3, r1, lsl #14
    300c:	04760100 	ldrbteq	r0, [r6], #-256	; 0xffffff00
    3010:	0098010a 	addseq	r0, r8, sl, lsl #2
	...
    301c:	05a20000 	streq	r0, [r2, #0]!
    3020:	82010000 	andhi	r0, r1, #0
    3024:	1900000b 	stmdbne	r0, {r0, r1, r3}
    3028:	00000000 	andeq	r0, r0, r0
    302c:	00000bac 	andeq	r0, r0, ip, lsr #23
    3030:	97011d00 	strls	r1, [r1, -r0, lsl #26]
    3034:	01000014 	tsteq	r0, r4, lsl r0
    3038:	010a046a 	tsteq	sl, sl, ror #8
    303c:	00000098 	muleq	r0, r8, r0
	...
    3048:	000005c2 	andeq	r0, r0, r2, asr #11
    304c:	000bac01 	andeq	sl, fp, r1, lsl #24
    3050:	00001900 	andeq	r1, r0, r0, lsl #18
    3054:	0bac0000 	bleq	feb0305c <BootRAM+0xccf37fd>
    3058:	1e000000 	cdpne	0, 0, cr0, cr0, cr0, {0}
    305c:	00141b01 	andseq	r1, r4, r1, lsl #22
    3060:	045f0100 	ldrbeq	r0, [pc], #-256	; 3068 <_Min_Stack_Size+0x2c68>
    3064:	0098010a 	addseq	r0, r8, sl, lsl #2
	...
    3070:	7d020000 	stcvc	0, cr0, [r2, #-0]
    3074:	011f0100 	tsteq	pc, r0, lsl #2
    3078:	000013b5 			; <UNDEFINED> instruction: 0x000013b5
    307c:	0a042801 	beq	10d088 <_Min_Stack_Size+0x10cc88>
    3080:	00009801 	andeq	r9, r0, r1, lsl #16
    3084:	0009dc00 	andeq	sp, r9, r0, lsl #24
    3088:	000a6408 	andeq	r6, sl, r8, lsl #8
    308c:	007d0208 	rsbseq	r0, sp, r8, lsl #4
    3090:	000c5001 	andeq	r5, ip, r1
    3094:	07471600 	strbeq	r1, [r7, -r0, lsl #12]
    3098:	2a010000 	bcs	430a0 <_Min_Stack_Size+0x42ca0>
    309c:	00980c04 	addseq	r0, r8, r4, lsl #24
    30a0:	05e60000 	strbeq	r0, [r6, #0]!
    30a4:	05e20000 	strbeq	r0, [r2, #0]!
    30a8:	21160000 	tstcs	r6, r0
    30ac:	01000007 	tsteq	r0, r7
    30b0:	9814042a 	ldmdals	r4, {r1, r3, r5, sl}
    30b4:	06000000 	streq	r0, [r0], -r0
    30b8:	04000006 	streq	r0, [r0], #-6
    30bc:	16000006 	strne	r0, [r0], -r6
    30c0:	00000730 	andeq	r0, r0, r0, lsr r7
    30c4:	1f042a01 	svcne	0x00042a01
    30c8:	00000098 	muleq	r0, r8, r0
    30cc:	0000061b 	andeq	r0, r0, fp, lsl r6
    30d0:	00000619 	andeq	r0, r0, r9, lsl r6
    30d4:	00072b16 	andeq	r2, r7, r6, lsl fp
    30d8:	042a0100 	strteq	r0, [sl], #-256	; 0xffffff00
    30dc:	00009825 	andeq	r9, r0, r5, lsr #16
    30e0:	00063200 	andeq	r3, r6, r0, lsl #4
    30e4:	00062e00 	andeq	r2, r6, r0, lsl #28
    30e8:	131e1600 	tstne	lr, #0, 12
    30ec:	2b010000 	blcs	430f4 <_Min_Stack_Size+0x42cf4>
    30f0:	00980c04 	addseq	r0, r8, r4, lsl #24
    30f4:	06540000 	ldrbeq	r0, [r4], -r0
    30f8:	06500000 	ldrbeq	r0, [r0], -r0
    30fc:	18000000 	stmdane	r0, {}	; <UNPREDICTABLE>
    3100:	00133f01 	andseq	r3, r3, r1, lsl #30
    3104:	03e30100 	mvneq	r0, #0, 2
    3108:	00000106 	andeq	r0, r0, r6, lsl #2
    310c:	00000000 	andeq	r0, r0, r0
    3110:	06730000 	ldrbteq	r0, [r3], -r0
    3114:	1b010000 	blne	4311c <_Min_Stack_Size+0x42d1c>
    3118:	2000000d 	andcs	r0, r0, sp
    311c:	00001458 	andeq	r1, r0, r8, asr r4
    3120:	2103e301 	tstcs	r3, r1, lsl #6
    3124:	00000098 	muleq	r0, r8, r0
    3128:	000006af 	andeq	r0, r0, pc, lsr #13
    312c:	000006ab 	andeq	r0, r0, fp, lsr #13
    3130:	0013dc20 	andseq	sp, r3, r0, lsr #24
    3134:	03e30100 	mvneq	r0, #0, 2
    3138:	00009834 	andeq	r9, r0, r4, lsr r8
    313c:	0006d600 	andeq	sp, r6, r0, lsl #12
    3140:	0006d000 	andeq	sp, r6, r0
    3144:	12dd2000 	sbcsne	r2, sp, #0
    3148:	e3010000 	movw	r0, #4096	; 0x1000
    314c:	00984c03 	addseq	r4, r8, r3, lsl #24
    3150:	07080000 	streq	r0, [r8, -r0]
    3154:	07020000 	streq	r0, [r2, -r0]
    3158:	a0210000 	eorge	r0, r1, r0
    315c:	01000013 	tsteq	r0, r3, lsl r0
    3160:	bc1403e5 	ldclt	3, cr0, [r4], {229}	; 0xe5
    3164:	02000009 	andeq	r0, r0, #9
    3168:	4f165c91 	svcmi	0x00165c91
    316c:	01000014 	tsteq	r0, r4, lsl r0
    3170:	980c03e6 	stmdals	ip, {r1, r2, r5, r6, r7, r8, r9}
    3174:	38000000 	stmdacc	r0, {}	; <UNPREDICTABLE>
    3178:	34000007 	strcc	r0, [r0], #-7
    317c:	16000007 	strne	r0, [r0], -r7
    3180:	00001358 	andeq	r1, r0, r8, asr r3
    3184:	0c03e701 	stceq	7, cr14, [r3], {1}
    3188:	00000098 	muleq	r0, r8, r0
    318c:	00000761 	andeq	r0, r0, r1, ror #14
    3190:	0000075d 	andeq	r0, r0, sp, asr r7
    3194:	0014ac16 	andseq	sl, r4, r6, lsl ip
    3198:	03e80100 	mvneq	r0, #0, 2
    319c:	000d1b12 	andeq	r1, sp, r2, lsl fp
    31a0:	00078b00 	andeq	r8, r7, r0, lsl #22
    31a4:	00078500 	andeq	r8, r7, r0, lsl #10
    31a8:	00002200 	andeq	r2, r0, r0, lsl #4
    31ac:	101d0000 	andsne	r0, sp, r0
    31b0:	01230000 			; <UNDEFINED> instruction: 0x01230000
    31b4:	01f30c50 	mvnseq	r0, r0, asr ip
    31b8:	24f00950 	ldrbtcs	r0, [r0], #2384	; 0x950
    31bc:	48808023 	stmmi	r0, {r0, r1, r5, pc}
    31c0:	0123243a 			; <UNDEFINED> instruction: 0x0123243a
    31c4:	5c910251 	lfmpl	f0, 4, [r1], {81}	; 0x51
    31c8:	041c0000 	ldreq	r0, [ip], #-0
    31cc:	00000343 	andeq	r0, r0, r3, asr #6
    31d0:	03c6011d 	biceq	r0, r6, #1073741831	; 0x40000007
    31d4:	ff010000 			; <UNDEFINED> instruction: 0xff010000
    31d8:	ed011302 	stc	3, cr1, [r1, #-8]
    31dc:	64000007 	strvs	r0, [r0], #-7
    31e0:	5c08000a 	stcpl	0, cr0, [r8], {10}
    31e4:	c408000c 	strgt	r0, [r8], #-12
    31e8:	01000007 	tsteq	r0, r7
    31ec:	00000df3 	strdeq	r0, [r0], -r3
    31f0:	00022720 	andeq	r2, r2, r0, lsr #14
    31f4:	02ff0100 	rscseq	r0, pc, #0, 2
    31f8:	000b1b3c 	andeq	r1, fp, ip, lsr fp
    31fc:	00081800 	andeq	r1, r8, r0, lsl #16
    3200:	0007fc00 	andeq	pc, r7, r0, lsl #24
    3204:	14622000 	strbtne	r2, [r2], #-0
    3208:	ff010000 			; <UNDEFINED> instruction: 0xff010000
    320c:	00985802 	addseq	r5, r8, r2, lsl #16
    3210:	08cb0000 	stmiaeq	fp, {}^	; <UNPREDICTABLE>
    3214:	08bd0000 	popeq	{}	; <UNPREDICTABLE>
    3218:	a8160000 	ldmdage	r6, {}	; <UNPREDICTABLE>
    321c:	0100000e 	tsteq	r0, lr
    3220:	980c0301 	stmdals	ip, {r0, r8, r9}
    3224:	28000000 	stmdacs	r0, {}	; <UNPREDICTABLE>
    3228:	20000009 	andcs	r0, r0, r9
    322c:	16000009 	strne	r0, [r0], -r9
    3230:	00001438 	andeq	r1, r0, r8, lsr r4
    3234:	0c030201 	sfmeq	f0, 4, [r3], {1}
    3238:	00000098 	muleq	r0, r8, r0
    323c:	00000962 	andeq	r0, r0, r2, ror #18
    3240:	0000095c 	andeq	r0, r0, ip, asr r9
    3244:	0014ba16 	andseq	fp, r4, r6, lsl sl
    3248:	03030100 	movweq	r0, #12544	; 0x3100
    324c:	0000980c 	andeq	r9, r0, ip, lsl #16
    3250:	00099d00 	andeq	r9, r9, r0, lsl #26
    3254:	00098b00 	andeq	r8, r9, r0, lsl #22
    3258:	0ab61900 	beq	fed89660 <BootRAM+0xcf79e01>
    325c:	0bc70800 	bleq	ff1c5264 <BootRAM+0xd3b5a05>
    3260:	de190000 	cdple	0, 1, cr0, cr9, cr0, {0}
    3264:	2c08000a 	stccs	0, cr0, [r8], {10}
    3268:	19000010 	stmdbne	r0, {r4}
    326c:	08000af4 	stmdaeq	r0, {r2, r4, r5, r6, r7, r9, fp}
    3270:	0000102c 	andeq	r1, r0, ip, lsr #32
    3274:	000b1419 	andeq	r1, fp, r9, lsl r4
    3278:	0009d708 	andeq	sp, r9, r8, lsl #14
    327c:	0bd61900 	bleq	ff589684 <BootRAM+0xd779e25>
    3280:	0bc70800 	bleq	ff1c5288 <BootRAM+0xd3b5a29>
    3284:	f4190000 			; <UNDEFINED> instruction: 0xf4190000
    3288:	3b08000b 	blcc	2032bc <_Min_Stack_Size+0x202ebc>
    328c:	19000010 	stmdbne	r0, {r4}
    3290:	08000c16 	stmdaeq	r0, {r1, r2, r4, sl, fp}
    3294:	0000102c 	andeq	r1, r0, ip, lsr #32
    3298:	000c2819 	andeq	r2, ip, r9, lsl r8
    329c:	00102c08 	andseq	r2, r0, r8, lsl #24
    32a0:	011d0000 	tsteq	sp, r0
    32a4:	0000032c 	andeq	r0, r0, ip, lsr #6
    32a8:	13013801 	movwne	r3, #6145	; 0x1801
    32ac:	0007ed01 	andeq	lr, r7, r1, lsl #26
    32b0:	0004f400 	andeq	pc, r4, r0, lsl #8
    32b4:	0009dc08 	andeq	sp, r9, r8, lsl #24
    32b8:	000a1008 	andeq	r1, sl, r8
    32bc:	0faa0100 	svceq	0x00aa0100
    32c0:	89200000 	stmdbhi	r0!, {}	; <UNPREDICTABLE>
    32c4:	01000003 	tsteq	r0, r3
    32c8:	523a0138 	eorspl	r0, sl, #56, 2
    32cc:	8c00000b 	stchi	0, cr0, [r0], {11}
    32d0:	6c00000a 	stcvs	0, cr0, [r0], {10}
    32d4:	1600000a 	strne	r0, [r0], -sl
    32d8:	00000ea8 	andeq	r0, r0, r8, lsr #29
    32dc:	0c013a01 			; <UNDEFINED> instruction: 0x0c013a01
    32e0:	00000098 	muleq	r0, r8, r0
    32e4:	00000b8a 	andeq	r0, r0, sl, lsl #23
    32e8:	00000b50 	andeq	r0, r0, r0, asr fp
    32ec:	00144016 	andseq	r4, r4, r6, lsl r0
    32f0:	013b0100 	teqeq	fp, r0, lsl #2
    32f4:	0000980c 	andeq	r9, r0, ip, lsl #16
    32f8:	000cd900 	andeq	sp, ip, r0, lsl #18
    32fc:	000cd100 	andeq	sp, ip, r0, lsl #2
    3300:	140d1600 	strne	r1, [sp], #-1536	; 0xfffffa00
    3304:	3c010000 	stccc	0, cr0, [r1], {-0}
    3308:	00980c01 	addseq	r0, r8, r1, lsl #24
    330c:	0d210000 	stceq	0, cr0, [r1, #-0]
    3310:	0d0d0000 	stceq	0, cr0, [sp, #-0]
    3314:	e0240000 	eor	r0, r4, r0
    3318:	da000001 	ble	3324 <_Min_Stack_Size+0x2f24>
    331c:	1600000e 	strne	r0, [r0], -lr
    3320:	00001237 	andeq	r1, r0, r7, lsr r2
    3324:	1601f101 	strne	pc, [r1], -r1, lsl #2
    3328:	000007b3 			; <UNDEFINED> instruction: 0x000007b3
    332c:	00000da3 	andeq	r0, r0, r3, lsr #27
    3330:	00000d97 	muleq	r0, r7, sp
    3334:	0006f225 	andeq	pc, r6, r5, lsr #4
    3338:	00070608 	andeq	r0, r7, r8, lsl #12
    333c:	000ea308 	andeq	sl, lr, r8, lsl #6
    3340:	04be2100 	ldrteq	r2, [lr], #256	; 0x100
    3344:	fa010000 	blx	4334c <_Min_Stack_Size+0x42f4c>
    3348:	00a40701 	adceq	r0, r4, r1, lsl #14
    334c:	91020000 	mrsls	r0, (UNDEF: 2)
    3350:	4019006c 	andsmi	r0, r9, ip, rrx
    3354:	2c080007 	stccs	0, cr0, [r8], {7}
    3358:	19000010 	stmdbne	r0, {r4}
    335c:	08000752 	stmdaeq	r0, {r1, r4, r6, r8, r9, sl}
    3360:	0000102c 	andeq	r1, r0, ip, lsr #32
    3364:	00077219 	andeq	r7, r7, r9, lsl r2
    3368:	00102c08 	andseq	r2, r0, r8, lsl #24
    336c:	07821900 	streq	r1, [r2, r0, lsl #18]
    3370:	102c0800 	eorne	r0, ip, r0, lsl #16
    3374:	c8190000 	ldmdagt	r9, {}	; <UNPREDICTABLE>
    3378:	2c080007 	stccs	0, cr0, [r8], {7}
    337c:	19000010 	stmdbne	r0, {r4}
    3380:	080007da 	stmdaeq	r0, {r1, r3, r4, r6, r7, r8, r9, sl}
    3384:	0000102c 	andeq	r1, r0, ip, lsr #32
    3388:	05481900 	strbeq	r1, [r8, #-2304]	; 0xfffff700
    338c:	102c0800 	eorne	r0, ip, r0, lsl #16
    3390:	58190000 	ldmdapl	r9, {}	; <UNPREDICTABLE>
    3394:	2c080005 	stccs	0, cr0, [r8], {5}
    3398:	19000010 	stmdbne	r0, {r4}
    339c:	080005aa 	stmdaeq	r0, {r1, r3, r5, r7, r8, sl}
    33a0:	0000102c 	andeq	r1, r0, ip, lsr #32
    33a4:	0005ba19 	andeq	fp, r5, r9, lsl sl
    33a8:	00102c08 	andseq	r2, r0, r8, lsl #24
    33ac:	05ee1900 	strbeq	r1, [lr, #2304]!	; 0x900
    33b0:	102c0800 	eorne	r0, ip, r0, lsl #16
    33b4:	fe190000 	cdp2	0, 1, cr0, cr9, cr0, {0}
    33b8:	2c080005 	stccs	0, cr0, [r8], {5}
    33bc:	19000010 	stmdbne	r0, {r4}
    33c0:	08000636 	stmdaeq	r0, {r1, r2, r4, r5, r9, sl}
    33c4:	0000103b 	andeq	r1, r0, fp, lsr r0
    33c8:	00065a19 	andeq	r5, r6, r9, lsl sl
    33cc:	00102c08 	andseq	r2, r0, r8, lsl #24
    33d0:	066c1900 	strbteq	r1, [ip], -r0, lsl #18
    33d4:	102c0800 	eorne	r0, ip, r0, lsl #16
    33d8:	96190000 	ldrls	r0, [r9], -r0
    33dc:	2c080006 	stccs	0, cr0, [r8], {6}
    33e0:	19000010 	stmdbne	r0, {r4}
    33e4:	080006a6 	stmdaeq	r0, {r1, r2, r5, r7, r9, sl}
    33e8:	0000102c 	andeq	r1, r0, ip, lsr #32
    33ec:	0006c219 	andeq	ip, r6, r9, lsl r2
    33f0:	00102c08 	andseq	r2, r0, r8, lsl #24
    33f4:	06d41900 	ldrbeq	r1, [r4], r0, lsl #18
    33f8:	102c0800 	eorne	r0, ip, r0, lsl #16
    33fc:	08190000 	ldmdaeq	r9, {}	; <UNPREDICTABLE>
    3400:	2c080008 	stccs	0, cr0, [r8], {8}
    3404:	19000010 	stmdbne	r0, {r4}
    3408:	0800081a 	stmdaeq	r0, {r1, r3, r4, fp}
    340c:	0000102c 	andeq	r1, r0, ip, lsr #32
    3410:	00084219 	andeq	r4, r8, r9, lsl r2
    3414:	00102c08 	andseq	r2, r0, r8, lsl #24
    3418:	08541900 	ldmdaeq	r4, {r8, fp, ip}^
    341c:	102c0800 	eorne	r0, ip, r0, lsl #16
    3420:	98190000 	ldmdals	r9, {}	; <UNPREDICTABLE>
    3424:	2c080008 	stccs	0, cr0, [r8], {8}
    3428:	19000010 	stmdbne	r0, {r4}
    342c:	080008a8 	stmdaeq	r0, {r3, r5, r7, fp}
    3430:	0000102c 	andeq	r1, r0, ip, lsr #32
    3434:	0008c019 	andeq	ip, r8, r9, lsl r0
    3438:	00102c08 	andseq	r2, r0, r8, lsl #24
    343c:	08d01900 	ldmeq	r0, {r8, fp, ip}^
    3440:	102c0800 	eorne	r0, ip, r0, lsl #16
    3444:	24190000 	ldrcs	r0, [r9], #-0
    3448:	2c080009 	stccs	0, cr0, [r8], {9}
    344c:	19000010 	stmdbne	r0, {r4}
    3450:	08000934 	stmdaeq	r0, {r2, r4, r5, r8, fp}
    3454:	0000102c 	andeq	r1, r0, ip, lsr #32
    3458:	cd012600 	stcgt	6, cr2, [r1, #-0]
    345c:	01000013 	tsteq	r0, r3, lsl r0
    3460:	ed0113db 	stc	3, cr1, [r1, #-876]	; 0xfffffc94
    3464:	00000007 	andeq	r0, r0, r7
    3468:	00000000 	andeq	r0, r0, r0
    346c:	f0000000 			; <UNDEFINED> instruction: 0xf0000000
    3470:	0100000d 	tsteq	r0, sp
    3474:	0000101d 	andeq	r1, r0, sp, lsl r0
    3478:	000ea827 	andeq	sl, lr, r7, lsr #16
    347c:	0cdd0100 	ldfeqe	f0, [sp], {0}
    3480:	00000098 	muleq	r0, r8, r0
    3484:	00000e20 	andeq	r0, r0, r0, lsr #28
    3488:	00000e10 	andeq	r0, r0, r0, lsl lr
    348c:	00000019 	andeq	r0, r0, r9, lsl r0
    3490:	00102c00 	andseq	r2, r0, r0, lsl #24
    3494:	00001900 	andeq	r1, r0, r0, lsl #18
    3498:	102c0000 	eorne	r0, ip, r0
    349c:	00190000 	andseq	r0, r9, r0
    34a0:	2c000000 	stccs	0, cr0, [r0], {-0}
    34a4:	19000010 	stmdbne	r0, {r4}
    34a8:	00000000 	andeq	r0, r0, r0
    34ac:	0000102c 	andeq	r1, r0, ip, lsr #32
    34b0:	00000019 	andeq	r0, r0, r9, lsl r0
    34b4:	00103b00 	andseq	r3, r0, r0, lsl #22
    34b8:	00001900 	andeq	r1, r0, r0, lsl #18
    34bc:	102c0000 	eorne	r0, ip, r0
    34c0:	00190000 	andseq	r0, r9, r0
    34c4:	2c000000 	stccs	0, cr0, [r0], {-0}
    34c8:	00000010 	andeq	r0, r0, r0, lsl r0
    34cc:	0d010128 	stfeqs	f0, [r1, #-160]	; 0xffffff60
    34d0:	0d000004 	stceq	0, cr0, [r0, #-16]
    34d4:	09000004 	stmdbeq	r0, {r2}
    34d8:	2813011d 	ldmdacs	r3, {r0, r2, r3, r4, r8}
    34dc:	0cab0101 	stfeqs	f0, [fp], #4
    34e0:	0cab0000 	stceq	0, cr0, [fp]
    34e4:	1a0a0000 	bne	2834ec <_Min_Stack_Size+0x2830ec>
    34e8:	01280a02 			; <UNDEFINED> instruction: 0x01280a02
    34ec:	000e0001 	andeq	r0, lr, r1
    34f0:	000e0000 	andeq	r0, lr, r0
    34f4:	020d0a00 	andeq	r0, sp, #0, 20
    34f8:	09290013 	stmdbeq	r9!, {r0, r1, r4}
    34fc:	00020000 	andeq	r0, r2, r0
    3500:	00000bfc 	strdeq	r0, [r0], -ip
    3504:	01820104 	orreq	r0, r2, r4, lsl #2
    3508:	590c0000 	stmdbpl	ip, {}	; <UNPREDICTABLE>
    350c:	44000015 	strmi	r0, [r0], #-21	; 0xffffffeb
    3510:	80000000 	andhi	r0, r0, r0
    3514:	00000002 	andeq	r0, r0, r2
    3518:	00000000 	andeq	r0, r0, r0
    351c:	76000000 	strvc	r0, [r0], -r0
    3520:	02000020 	andeq	r0, r0, #32
    3524:	009f0601 	addseq	r0, pc, r1, lsl #12
    3528:	01020000 	mrseq	r0, (UNDEF: 2)
    352c:	00009d08 	andeq	r9, r0, r8, lsl #26
    3530:	05020200 	streq	r0, [r2, #-512]	; 0xfffffe00
    3534:	00000163 	andeq	r0, r0, r3, ror #2
    3538:	0000bd03 	andeq	fp, r0, r3, lsl #26
    353c:	19390200 	ldmdbne	r9!, {r9}
    3540:	0000004a 	andeq	r0, r0, sl, asr #32
    3544:	27070202 	strcs	r0, [r7, -r2, lsl #4]
    3548:	02000000 	andeq	r0, r0, #0
    354c:	012f0504 			; <UNDEFINED> instruction: 0x012f0504
    3550:	dc030000 	stcle	0, cr0, [r3], {-0}
    3554:	02000000 	andeq	r0, r0, #0
    3558:	0064194f 	rsbeq	r1, r4, pc, asr #18
    355c:	04020000 	streq	r0, [r2], #-0
    3560:	00010907 	andeq	r0, r1, r7, lsl #18
    3564:	05080200 	streq	r0, [r8, #-512]	; 0xfffffe00
    3568:	0000012a 	andeq	r0, r0, sl, lsr #2
    356c:	04070802 	streq	r0, [r7], #-2050	; 0xfffff7fe
    3570:	04000001 	streq	r0, [r0], #-1
    3574:	6e690504 	cdpvs	5, 6, cr0, cr9, cr4, {0}
    3578:	04020074 	streq	r0, [r2], #-116	; 0xffffff8c
    357c:	00010e07 	andeq	r0, r1, r7, lsl #28
    3580:	00bf0300 	adcseq	r0, pc, r0, lsl #6
    3584:	24030000 	strcs	r0, [r3], #-0
    3588:	00003e14 	andeq	r3, r0, r4, lsl lr
    358c:	00de0300 	sbcseq	r0, lr, r0, lsl #6
    3590:	30030000 	andcc	r0, r3, r0
    3594:	00005814 	andeq	r5, r0, r4, lsl r8
    3598:	00930500 	addseq	r0, r3, r0, lsl #10
    359c:	9f060000 	svcls	0x00060000
    35a0:	b4000000 	strlt	r0, [r0], #-0
    35a4:	07000000 	streq	r0, [r0, -r0]
    35a8:	00000080 	andeq	r0, r0, r0, lsl #1
    35ac:	a4050001 	strge	r0, [r5], #-1
    35b0:	08000000 	stmdaeq	r0, {}	; <UNPREDICTABLE>
    35b4:	01aa0438 			; <UNDEFINED> instruction: 0x01aa0438
    35b8:	0001a409 	andeq	sl, r1, r9, lsl #8
    35bc:	159f0900 	ldrne	r0, [pc, #2304]	; 3ec4 <_Min_Stack_Size+0x3ac4>
    35c0:	ac040000 	stcge	0, cr0, [r4], {-0}
    35c4:	009f1101 	addseq	r1, pc, r1, lsl #2
    35c8:	23020000 	movwcs	r0, #8192	; 0x2000
    35cc:	15950900 	ldrne	r0, [r5, #2304]	; 0x900
    35d0:	ad040000 	stcge	0, cr0, [r4, #-0]
    35d4:	009f1101 	addseq	r1, pc, r1, lsl #2
    35d8:	23020000 	movwcs	r0, #8192	; 0x2000
    35dc:	15360904 	ldrne	r0, [r6, #-2308]!	; 0xfffff6fc
    35e0:	ae040000 	cdpge	0, 0, cr0, cr4, cr0, {0}
    35e4:	009f1101 	addseq	r1, pc, r1, lsl #2
    35e8:	23020000 	movwcs	r0, #8192	; 0x2000
    35ec:	15a90908 	strne	r0, [r9, #2312]!	; 0x908
    35f0:	af040000 	svcge	0x00040000
    35f4:	009f1101 	addseq	r1, pc, r1, lsl #2
    35f8:	23020000 	movwcs	r0, #8192	; 0x2000
    35fc:	14f7090c 	ldrbtne	r0, [r7], #2316	; 0x90c
    3600:	b0040000 	andlt	r0, r4, r0
    3604:	009f1101 	addseq	r1, pc, r1, lsl #2
    3608:	23020000 	movwcs	r0, #8192	; 0x2000
    360c:	52500a10 	subspl	r0, r0, #16, 20	; 0x10000
    3610:	b1040031 	tstlt	r4, r1, lsr r0
    3614:	009f1101 	addseq	r1, pc, r1, lsl #2
    3618:	23020000 	movwcs	r0, #8192	; 0x2000
    361c:	052e0914 	streq	r0, [lr, #-2324]!	; 0xfffff6ec
    3620:	b2040000 	andlt	r0, r4, #0
    3624:	00931101 	addseq	r1, r3, r1, lsl #2
    3628:	23020000 	movwcs	r0, #8192	; 0x2000
    362c:	05380918 	ldreq	r0, [r8, #-2328]!	; 0xfffff6e8
    3630:	b3040000 	movwlt	r0, #16384	; 0x4000
    3634:	00931101 	addseq	r1, r3, r1, lsl #2
    3638:	23020000 	movwcs	r0, #8192	; 0x2000
    363c:	15a4091c 	strne	r0, [r4, #2332]!	; 0x91c
    3640:	b4040000 	strlt	r0, [r4], #-0
    3644:	009f1101 	addseq	r1, pc, r1, lsl #2
    3648:	23020000 	movwcs	r0, #8192	; 0x2000
    364c:	159a0920 	ldrne	r0, [sl, #2336]	; 0x920
    3650:	b5040000 	strlt	r0, [r4, #-0]
    3654:	009f1101 	addseq	r1, pc, r1, lsl #2
    3658:	23020000 	movwcs	r0, #8192	; 0x2000
    365c:	15530924 	ldrbne	r0, [r3, #-2340]	; 0xfffff6dc
    3660:	b6040000 	strlt	r0, [r4], -r0
    3664:	009f1101 	addseq	r1, pc, r1, lsl #2
    3668:	23020000 	movwcs	r0, #8192	; 0x2000
    366c:	15cd0928 	strbne	r0, [sp, #2344]	; 0x928
    3670:	b7040000 	strlt	r0, [r4, -r0]
    3674:	009f1101 	addseq	r1, pc, r1, lsl #2
    3678:	23020000 	movwcs	r0, #8192	; 0x2000
    367c:	14fe092c 	ldrbtne	r0, [lr], #2348	; 0x92c
    3680:	b8040000 	stmdalt	r4, {}	; <UNPREDICTABLE>
    3684:	009f1101 	addseq	r1, pc, r1, lsl #2
    3688:	23020000 	movwcs	r0, #8192	; 0x2000
    368c:	52500a30 	subspl	r0, r0, #48, 20	; 0x30000
    3690:	b9040032 	stmdblt	r4, {r1, r4, r5}
    3694:	009f1101 	addseq	r1, pc, r1, lsl #2
    3698:	23020000 	movwcs	r0, #8192	; 0x2000
    369c:	050b0034 	streq	r0, [fp, #-52]	; 0xffffffcc
    36a0:	04000015 	streq	r0, [r0], #-21	; 0xffffffeb
    36a4:	b90301ba 	stmdblt	r3, {r1, r3, r4, r5, r7, r8}
    36a8:	08000000 	stmdaeq	r0, {}	; <UNPREDICTABLE>
    36ac:	020d042c 	andeq	r0, sp, #44, 8	; 0x2c000000
    36b0:	00025c09 	andeq	r5, r2, r9, lsl #24
    36b4:	00140900 	andseq	r0, r4, r0, lsl #18
    36b8:	0f040000 	svceq	0x00040000
    36bc:	009f1102 	addseq	r1, pc, r2, lsl #2
    36c0:	23020000 	movwcs	r0, #8192	; 0x2000
    36c4:	00960900 	addseq	r0, r6, r0, lsl #18
    36c8:	10040000 	andne	r0, r4, r0
    36cc:	009f1102 	addseq	r1, pc, r2, lsl #2
    36d0:	23020000 	movwcs	r0, #8192	; 0x2000
    36d4:	00ef0904 	rsceq	r0, pc, r4, lsl #18
    36d8:	11040000 	mrsne	r0, (UNDEF: 4)
    36dc:	009f1102 	addseq	r1, pc, r2, lsl #2
    36e0:	23020000 	movwcs	r0, #8192	; 0x2000
    36e4:	011b0908 	tsteq	fp, r8, lsl #18
    36e8:	12040000 	andne	r0, r4, #0
    36ec:	009f1102 	addseq	r1, pc, r2, lsl #2
    36f0:	23020000 	movwcs	r0, #8192	; 0x2000
    36f4:	44490a0c 	strbmi	r0, [r9], #-2572	; 0xfffff5f4
    36f8:	13040052 	movwne	r0, #16466	; 0x4052
    36fc:	009f1102 	addseq	r1, pc, r2, lsl #2
    3700:	23020000 	movwcs	r0, #8192	; 0x2000
    3704:	444f0a10 	strbmi	r0, [pc], #-2576	; 370c <_Min_Stack_Size+0x330c>
    3708:	14040052 	strne	r0, [r4], #-82	; 0xffffffae
    370c:	009f1102 	addseq	r1, pc, r2, lsl #2
    3710:	23020000 	movwcs	r0, #8192	; 0x2000
    3714:	00220914 	eoreq	r0, r2, r4, lsl r9
    3718:	15040000 	strne	r0, [r4, #-0]
    371c:	009f1102 	addseq	r1, pc, r2, lsl #2
    3720:	23020000 	movwcs	r0, #8192	; 0x2000
    3724:	000f0918 	andeq	r0, pc, r8, lsl r9	; <UNPREDICTABLE>
    3728:	16040000 	strne	r0, [r4], -r0
    372c:	009f1102 	addseq	r1, pc, r2, lsl #2
    3730:	23020000 	movwcs	r0, #8192	; 0x2000
    3734:	46410a1c 			; <UNDEFINED> instruction: 0x46410a1c
    3738:	17040052 	smlsdne	r4, r2, r0, r0
    373c:	00b41102 	adcseq	r1, r4, r2, lsl #2
    3740:	23020000 	movwcs	r0, #8192	; 0x2000
    3744:	52420a20 	subpl	r0, r2, #32, 20	; 0x20000
    3748:	18040052 	stmdane	r4, {r1, r4, r6}
    374c:	009f1102 	addseq	r1, pc, r2, lsl #2
    3750:	23020000 	movwcs	r0, #8192	; 0x2000
    3754:	f70b0028 			; <UNDEFINED> instruction: 0xf70b0028
    3758:	04000000 	streq	r0, [r0], #-0
    375c:	b1030219 	tstlt	r3, r9, lsl r2
    3760:	08000001 	stmdaeq	r0, {r0}
    3764:	029004a0 	addseq	r0, r0, #160, 8	; 0xa0000000
    3768:	0004fb09 	andeq	pc, r4, r9, lsl #22
    376c:	52430a00 	subpl	r0, r3, #0, 20
    3770:	02920400 	addseq	r0, r2, #0, 8
    3774:	00009f11 	andeq	r9, r0, r1, lsl pc
    3778:	00230200 	eoreq	r0, r3, r0, lsl #4
    377c:	00051409 	andeq	r1, r5, r9, lsl #8
    3780:	02930400 	addseq	r0, r3, #0, 8
    3784:	00009f11 	andeq	r9, r0, r1, lsl pc
    3788:	04230200 	strteq	r0, [r3], #-512	; 0xfffffe00
    378c:	00041e09 	andeq	r1, r4, r9, lsl #28
    3790:	02940400 	addseq	r0, r4, #0, 8
    3794:	00009f11 	andeq	r9, r0, r1, lsl pc
    3798:	08230200 	stmdaeq	r3!, {r9}
    379c:	00041b09 	andeq	r1, r4, r9, lsl #22
    37a0:	02950400 	addseq	r0, r5, #0, 8
    37a4:	00009f11 	andeq	r9, r0, r1, lsl pc
    37a8:	0c230200 	sfmeq	f0, 4, [r3], #-0
    37ac:	00052409 	andeq	r2, r5, r9, lsl #8
    37b0:	02960400 	addseq	r0, r6, #0, 8
    37b4:	00009311 	andeq	r9, r0, r1, lsl r3
    37b8:	10230200 	eorne	r0, r3, r0, lsl #4
    37bc:	00052e09 	andeq	r2, r5, r9, lsl #28
    37c0:	02970400 	addseq	r0, r7, #0, 8
    37c4:	00009311 	andeq	r9, r0, r1, lsl r3
    37c8:	14230200 	strtne	r0, [r3], #-512	; 0xfffffe00
    37cc:	00045d09 	andeq	r5, r4, r9, lsl #26
    37d0:	02980400 	addseq	r0, r8, #0, 8
    37d4:	00009f11 	andeq	r9, r0, r1, lsl pc
    37d8:	18230200 	stmdane	r3!, {r9}
    37dc:	00058809 	andeq	r8, r5, r9, lsl #16
    37e0:	02990400 	addseq	r0, r9, #0, 8
    37e4:	00009f11 	andeq	r9, r0, r1, lsl pc
    37e8:	1c230200 	sfmne	f0, 4, [r3], #-0
    37ec:	00044f09 	andeq	r4, r4, r9, lsl #30
    37f0:	029a0400 	addseq	r0, sl, #0, 8
    37f4:	00009f11 	andeq	r9, r0, r1, lsl pc
    37f8:	20230200 	eorcs	r0, r3, r0, lsl #4
    37fc:	00053809 	andeq	r3, r5, r9, lsl #16
    3800:	029b0400 	addseq	r0, fp, #0, 8
    3804:	00009311 	andeq	r9, r0, r1, lsl r3
    3808:	24230200 	strtcs	r0, [r3], #-512	; 0xfffffe00
    380c:	00045409 	andeq	r5, r4, r9, lsl #8
    3810:	029c0400 	addseq	r0, ip, #0, 8
    3814:	00009f11 	andeq	r9, r0, r1, lsl pc
    3818:	28230200 	stmdacs	r3!, {r9}
    381c:	0004f209 	andeq	pc, r4, r9, lsl #4
    3820:	029d0400 	addseq	r0, sp, #0, 8
    3824:	00009f11 	andeq	r9, r0, r1, lsl pc
    3828:	2c230200 	sfmcs	f0, 4, [r3], #-0
    382c:	0005cb09 	andeq	ip, r5, r9, lsl #22
    3830:	029e0400 	addseq	r0, lr, #0, 8
    3834:	00009f11 	andeq	r9, r0, r1, lsl pc
    3838:	30230200 	eorcc	r0, r3, r0, lsl #4
    383c:	00054209 	andeq	r4, r5, r9, lsl #4
    3840:	029f0400 	addseq	r0, pc, #0, 8
    3844:	00009311 	andeq	r9, r0, r1, lsl r3
    3848:	34230200 	strtcc	r0, [r3], #-512	; 0xfffffe00
    384c:	00042309 	andeq	r2, r4, r9, lsl #6
    3850:	02a00400 	adceq	r0, r0, #0, 8
    3854:	00009f11 	andeq	r9, r0, r1, lsl pc
    3858:	38230200 	stmdacc	r3!, {r9}
    385c:	00042d09 	andeq	r2, r4, r9, lsl #26
    3860:	02a10400 	adceq	r0, r1, #0, 8
    3864:	00009f11 	andeq	r9, r0, r1, lsl pc
    3868:	3c230200 	sfmcc	f0, 4, [r3], #-0
    386c:	0004a309 	andeq	sl, r4, r9, lsl #6
    3870:	02a20400 	adceq	r0, r2, #0, 8
    3874:	00009f11 	andeq	r9, r0, r1, lsl pc
    3878:	40230200 	eormi	r0, r3, r0, lsl #4
    387c:	00054c09 	andeq	r4, r5, r9, lsl #24
    3880:	02a30400 	adceq	r0, r3, #0, 8
    3884:	00009311 	andeq	r9, r0, r1, lsl r3
    3888:	44230200 	strtmi	r0, [r3], #-512	; 0xfffffe00
    388c:	00058d09 	andeq	r8, r5, r9, lsl #26
    3890:	02a40400 	adceq	r0, r4, #0, 8
    3894:	00009f11 	andeq	r9, r0, r1, lsl pc
    3898:	48230200 	stmdami	r3!, {r9}
    389c:	00043709 	andeq	r3, r4, r9, lsl #14
    38a0:	02a50400 	adceq	r0, r5, #0, 8
    38a4:	00009f11 	andeq	r9, r0, r1, lsl pc
    38a8:	4c230200 	sfmmi	f0, 4, [r3], #-0
    38ac:	00046209 	andeq	r6, r4, r9, lsl #4
    38b0:	02a60400 	adceq	r0, r6, #0, 8
    38b4:	00009f11 	andeq	r9, r0, r1, lsl pc
    38b8:	50230200 	eorpl	r0, r3, r0, lsl #4
    38bc:	00055609 	andeq	r5, r5, r9, lsl #12
    38c0:	02a70400 	adceq	r0, r7, #0, 8
    38c4:	00009311 	andeq	r9, r0, r1, lsl r3
    38c8:	54230200 	strtpl	r0, [r3], #-512	; 0xfffffe00
    38cc:	0004fb09 	andeq	pc, r4, r9, lsl #22
    38d0:	02a80400 	adceq	r0, r8, #0, 8
    38d4:	00009f11 	andeq	r9, r0, r1, lsl pc
    38d8:	58230200 	stmdapl	r3!, {r9}
    38dc:	00050409 	andeq	r0, r5, r9, lsl #8
    38e0:	02a90400 	adceq	r0, r9, #0, 8
    38e4:	00009f11 	andeq	r9, r0, r1, lsl pc
    38e8:	5c230200 	sfmpl	f0, 4, [r3], #-0
    38ec:	0004d409 	andeq	sp, r4, r9, lsl #8
    38f0:	02aa0400 	adceq	r0, sl, #0, 8
    38f4:	00009f11 	andeq	r9, r0, r1, lsl pc
    38f8:	60230200 	eorvs	r0, r3, r0, lsl #4
    38fc:	00056009 	andeq	r6, r5, r9
    3900:	02ab0400 	adceq	r0, fp, #0, 8
    3904:	00009311 	andeq	r9, r0, r1, lsl r3
    3908:	64230200 	strtvs	r0, [r3], #-512	; 0xfffffe00
    390c:	0005c109 	andeq	ip, r5, r9, lsl #2
    3910:	02ac0400 	adceq	r0, ip, #0, 8
    3914:	00009f11 	andeq	r9, r0, r1, lsl pc
    3918:	68230200 	stmdavs	r3!, {r9}
    391c:	00049909 	andeq	r9, r4, r9, lsl #18
    3920:	02ad0400 	adceq	r0, sp, #0, 8
    3924:	00009f11 	andeq	r9, r0, r1, lsl pc
    3928:	6c230200 	sfmvs	f0, 4, [r3], #-0
    392c:	0005b709 	andeq	fp, r5, r9, lsl #14
    3930:	02ae0400 	adceq	r0, lr, #0, 8
    3934:	00009f11 	andeq	r9, r0, r1, lsl pc
    3938:	70230200 	eorvc	r0, r3, r0, lsl #4
    393c:	00056a09 	andeq	r6, r5, r9, lsl #20
    3940:	02af0400 	adceq	r0, pc, #0, 8
    3944:	00009311 	andeq	r9, r0, r1, lsl r3
    3948:	74230200 	strtvc	r0, [r3], #-512	; 0xfffffe00
    394c:	00047709 	andeq	r7, r4, r9, lsl #14
    3950:	02b00400 	adcseq	r0, r0, #0, 8
    3954:	00009f11 	andeq	r9, r0, r1, lsl pc
    3958:	78230200 	stmdavc	r3!, {r9}
    395c:	00048209 	andeq	r8, r4, r9, lsl #4
    3960:	02b10400 	adcseq	r0, r1, #0, 8
    3964:	00009f11 	andeq	r9, r0, r1, lsl pc
    3968:	7c230200 	sfmvc	f0, 4, [r3], #-0
    396c:	00051a09 	andeq	r1, r5, r9, lsl #20
    3970:	02b20400 	adcseq	r0, r2, #0, 8
    3974:	00009f11 	andeq	r9, r0, r1, lsl pc
    3978:	80230300 	eorhi	r0, r3, r0, lsl #6
    397c:	05740901 	ldrbeq	r0, [r4, #-2305]!	; 0xfffff6ff
    3980:	b3040000 	movwlt	r0, #16384	; 0x4000
    3984:	00931102 	addseq	r1, r3, r2, lsl #2
    3988:	23030000 	movwcs	r0, #12288	; 0x3000
    398c:	49090184 	stmdbmi	r9, {r2, r7, r8}
    3990:	04000004 	streq	r0, [r0], #-4
    3994:	9f1102b4 	svcls	0x001102b4
    3998:	03000000 	movweq	r0, #0
    399c:	09018823 	stmdbeq	r1, {r0, r1, r5, fp, pc}
    39a0:	0000057e 	andeq	r0, r0, lr, ror r5
    39a4:	1102b504 	tstne	r2, r4, lsl #10
    39a8:	00000093 	muleq	r0, r3, r0
    39ac:	018c2303 	orreq	r2, ip, r3, lsl #6
    39b0:	00043f09 	andeq	r3, r4, r9, lsl #30
    39b4:	02b60400 	adcseq	r0, r6, #0, 8
    39b8:	00009f11 	andeq	r9, r0, r1, lsl pc
    39bc:	90230300 	eorls	r0, r3, r0, lsl #6
    39c0:	53430a01 	movtpl	r0, #14849	; 0x3a01
    39c4:	b7040052 	smlsdlt	r4, r2, r0, r0
    39c8:	009f1102 	addseq	r1, pc, r2, lsl #2
    39cc:	23030000 	movwcs	r0, #12288	; 0x3000
    39d0:	dc090194 	stfles	f0, [r9], {148}	; 0x94
    39d4:	04000004 	streq	r0, [r0], #-4
    39d8:	9f1102b8 	svcls	0x001102b8
    39dc:	03000000 	movweq	r0, #0
    39e0:	09019823 	stmdbeq	r1, {r0, r1, r5, fp, ip, pc}
    39e4:	0000050d 	andeq	r0, r0, sp, lsl #10
    39e8:	1102b904 	tstne	r2, r4, lsl #18
    39ec:	0000009f 	muleq	r0, pc, r0	; <UNPREDICTABLE>
    39f0:	019c2303 	orrseq	r2, ip, r3, lsl #6
    39f4:	048d0b00 	streq	r0, [sp], #2816	; 0xb00
    39f8:	ba040000 	blt	103a00 <_Min_Stack_Size+0x103600>
    39fc:	02690302 	rsbeq	r0, r9, #134217728	; 0x8000000
    3a00:	28080000 	stmdacs	r8, {}	; <UNPREDICTABLE>
    3a04:	09034604 	stmdbeq	r3, {r2, r9, sl, lr}
    3a08:	00000583 	andeq	r0, r0, r3, lsl #11
    3a0c:	00082e09 	andeq	r2, r8, r9, lsl #28
    3a10:	03480400 	movteq	r0, #33792	; 0x8400
    3a14:	00009f11 	andeq	r9, r0, r1, lsl pc
    3a18:	00230200 	eoreq	r0, r3, r0, lsl #4
    3a1c:	00113109 	andseq	r3, r1, r9, lsl #2
    3a20:	03490400 	movteq	r0, #37888	; 0x9400
    3a24:	00009f11 	andeq	r9, r0, r1, lsl pc
    3a28:	04230200 	strteq	r0, [r3], #-512	; 0xfffffe00
    3a2c:	0011c909 	andseq	ip, r1, r9, lsl #18
    3a30:	034a0400 	movteq	r0, #41984	; 0xa400
    3a34:	00059311 	andeq	r9, r5, r1, lsl r3
    3a38:	08230200 	stmdaeq	r3!, {r9}
    3a3c:	000aae09 	andeq	sl, sl, r9, lsl #28
    3a40:	034b0400 	movteq	r0, #46080	; 0xb400
    3a44:	00009f11 	andeq	r9, r0, r1, lsl pc
    3a48:	18230200 	stmdane	r3!, {r9}
    3a4c:	00113709 	andseq	r3, r1, r9, lsl #14
    3a50:	034c0400 	movteq	r0, #50176	; 0xc400
    3a54:	00009f11 	andeq	r9, r0, r1, lsl pc
    3a58:	1c230200 	sfmne	f0, 4, [r3], #-0
    3a5c:	000aa009 	andeq	sl, sl, r9
    3a60:	034d0400 	movteq	r0, #54272	; 0xd400
    3a64:	00009f11 	andeq	r9, r0, r1, lsl pc
    3a68:	20230200 	eorcs	r0, r3, r0, lsl #4
    3a6c:	524b530a 	subpl	r5, fp, #671088640	; 0x28000000
    3a70:	034e0400 	movteq	r0, #58368	; 0xe400
    3a74:	00009f11 	andeq	r9, r0, r1, lsl pc
    3a78:	24230200 	strtcs	r0, [r3], #-512	; 0xfffffe00
    3a7c:	009f0600 	addseq	r0, pc, r0, lsl #12
    3a80:	05930000 	ldreq	r0, [r3]
    3a84:	80070000 	andhi	r0, r7, r0
    3a88:	03000000 	movweq	r0, #0
    3a8c:	05830500 	streq	r0, [r3, #1280]	; 0x500
    3a90:	390b0000 	stmdbcc	fp, {}	; <UNPREDICTABLE>
    3a94:	0400000e 	streq	r0, [r0], #-14
    3a98:	0803034f 	stmdaeq	r3, {r0, r1, r2, r3, r6, r8, r9}
    3a9c:	02000005 	andeq	r0, r0, #5
    3aa0:	01760408 	cmneq	r6, r8, lsl #8
    3aa4:	070c0000 	streq	r0, [ip, -r0]
    3aa8:	00003001 	andeq	r3, r0, r1
    3aac:	01270500 			; <UNDEFINED> instruction: 0x01270500
    3ab0:	000005d3 	ldrdeq	r0, [r0], -r3
    3ab4:	0002770d 	andeq	r7, r2, sp, lsl #14
    3ab8:	6d0d0000 	stcvs	0, cr0, [sp, #-0]
    3abc:	01000002 	tsteq	r0, r2
    3ac0:	00035a0d 	andeq	r5, r3, sp, lsl #20
    3ac4:	9b0d0200 	blls	3442cc <_Min_Stack_Size+0x343ecc>
    3ac8:	03000003 	movweq	r0, #3
    3acc:	0bf30300 	bleq	ffcc46d4 <BootRAM+0xdeb4e75>
    3ad0:	2c050000 	stccs	0, cr0, [r5], {-0}
    3ad4:	0005ac03 	andeq	sl, r5, r3, lsl #24
    3ad8:	06140e00 	ldreq	r0, [r4], -r0, lsl #28
    3adc:	0634092f 	ldrteq	r0, [r4], -pc, lsr #18
    3ae0:	500f0000 	andpl	r0, pc, r0
    3ae4:	06006e69 	streq	r6, [r0], -r9, ror #28
    3ae8:	00930c31 	addseq	r0, r3, r1, lsr ip
    3aec:	23020000 	movwcs	r0, #8192	; 0x2000
    3af0:	19e01000 	stmibne	r0!, {ip}^
    3af4:	34060000 	strcc	r0, [r6], #-0
    3af8:	0000930c 	andeq	r9, r0, ip, lsl #6
    3afc:	04230200 	strteq	r0, [r3], #-512	; 0xfffffe00
    3b00:	00044410 	andeq	r4, r4, r0, lsl r4
    3b04:	0c370600 	ldceq	6, cr0, [r7], #-0
    3b08:	00000093 	muleq	r0, r3, r0
    3b0c:	10082302 	andne	r2, r8, r2, lsl #6
    3b10:	000005a0 	andeq	r0, r0, r0, lsr #11
    3b14:	930c3a06 	movwls	r3, #51718	; 0xca06
    3b18:	02000000 	andeq	r0, r0, #0
    3b1c:	d4100c23 	ldrle	r0, [r0], #-3107	; 0xfffff3dd
    3b20:	06000005 	streq	r0, [r0], -r5
    3b24:	00930c3d 	addseq	r0, r3, sp, lsr ip
    3b28:	23020000 	movwcs	r0, #8192	; 0x2000
    3b2c:	a6030010 			; <UNDEFINED> instruction: 0xa6030010
    3b30:	06000005 	streq	r0, [r0], -r5
    3b34:	05df033f 	ldrbeq	r0, [pc, #831]	; 3e7b <_Min_Stack_Size+0x3a7b>
    3b38:	070c0000 	streq	r0, [ip, -r0]
    3b3c:	00003001 	andeq	r3, r0, r1
    3b40:	01450600 	cmpeq	r5, r0, lsl #12
    3b44:	0000065b 	andeq	r0, r0, fp, asr r6
    3b48:	0004c50d 	andeq	ip, r4, sp, lsl #10
    3b4c:	6a0d0000 	bvs	343b54 <_Min_Stack_Size+0x343754>
    3b50:	01000004 	tsteq	r0, r4
    3b54:	15bf0300 	ldrne	r0, [pc, #768]!	; 3e5c <_Min_Stack_Size+0x3a5c>
    3b58:	48060000 	stmdami	r6, {}	; <UNPREDICTABLE>
    3b5c:	00064003 	andeq	r4, r6, r3
    3b60:	3c011100 	stfccs	f1, [r1], {-0}
    3b64:	01000015 	tsteq	r0, r5, lsl r0
    3b68:	010d01f9 	strdeq	r0, [sp, -r9]
	...
    3b74:	01007d02 	tsteq	r0, r2, lsl #26
    3b78:	00000692 	muleq	r0, r2, r6
    3b7c:	0014bf12 	andseq	fp, r4, r2, lsl pc
    3b80:	01f90100 	mvnseq	r0, r0, lsl #2
    3b84:	0000872d 	andeq	r8, r0, sp, lsr #14
    3b88:	00500100 	subseq	r0, r0, r0, lsl #2
    3b8c:	14de0113 	ldrbne	r0, [lr], #275	; 0x113
    3b90:	ea010000 	b	43b98 <_Min_Stack_Size+0x43798>
    3b94:	00010601 	andeq	r0, r1, r1, lsl #12
    3b98:	00000000 	andeq	r0, r0, r0
    3b9c:	80000000 	andhi	r0, r0, r0
    3ba0:	0100000e 	tsteq	r0, lr
    3ba4:	000006cd 	andeq	r0, r0, sp, asr #13
    3ba8:	0014bf14 	andseq	fp, r4, r4, lsl pc
    3bac:	01ea0100 	mvneq	r0, r0, lsl #2
    3bb0:	00008728 	andeq	r8, r0, r8, lsr #14
    3bb4:	000ea800 	andeq	sl, lr, r0, lsl #16
    3bb8:	000ea000 	andeq	sl, lr, r0
    3bbc:	00001500 	andeq	r1, r0, r0, lsl #10
    3bc0:	06670000 	strbteq	r0, [r7], -r0
    3bc4:	16000000 	strne	r0, [r0], -r0
    3bc8:	0014c801 	andseq	ip, r4, r1, lsl #16
    3bcc:	01c70100 	biceq	r0, r7, r0, lsl #2
    3bd0:	05d30113 	ldrbeq	r0, [r3, #275]	; 0x113
	...
    3bdc:	0ee20000 	cdpeq	0, 14, cr0, cr2, cr0, {0}
    3be0:	22010000 	andcs	r0, r1, #0
    3be4:	14000007 	strne	r0, [r0], #-7
    3be8:	0000158f 	andeq	r1, r0, pc, lsl #11
    3bec:	3201c701 	andcc	ip, r1, #262144	; 0x40000
    3bf0:	00000722 	andeq	r0, r0, r2, lsr #14
    3bf4:	00000f22 	andeq	r0, r0, r2, lsr #30
    3bf8:	00000f1a 	andeq	r0, r0, sl, lsl pc
    3bfc:	0014bf12 	andseq	fp, r4, r2, lsl pc
    3c00:	01c70100 	biceq	r0, r7, r0, lsl #2
    3c04:	00008742 	andeq	r8, r0, r2, asr #14
    3c08:	17510100 	ldrbne	r0, [r1, -r0, lsl #2]
    3c0c:	00706d74 	rsbseq	r6, r0, r4, ror sp
    3c10:	1101c901 	tstne	r1, r1, lsl #18
    3c14:	0000009f 	muleq	r0, pc, r0	; <UNPREDICTABLE>
    3c18:	007c9102 	rsbseq	r9, ip, r2, lsl #2
    3c1c:	025c0418 	subseq	r0, ip, #24, 8	; 0x18000000
    3c20:	01110000 	tsteq	r1, r0
    3c24:	00000150 	andeq	r0, r0, r0, asr r1
    3c28:	0601ae01 	streq	sl, [r1], -r1, lsl #28
    3c2c:	000e3a01 	andeq	r3, lr, r1, lsl #20
    3c30:	000e4c08 	andeq	r4, lr, r8, lsl #24
    3c34:	007d0208 	rsbseq	r0, sp, r8, lsl #4
    3c38:	00077d01 	andeq	r7, r7, r1, lsl #26
    3c3c:	158f1200 	strne	r1, [pc, #512]	; 3e44 <_Min_Stack_Size+0x3a44>
    3c40:	ae010000 	cdpge	0, 0, cr0, cr1, cr0, {0}
    3c44:	07222701 	streq	r2, [r2, -r1, lsl #14]!
    3c48:	50010000 	andpl	r0, r1, r0
    3c4c:	0014bf14 	andseq	fp, r4, r4, lsl pc
    3c50:	01ae0100 			; <UNDEFINED> instruction: 0x01ae0100
    3c54:	00008737 	andeq	r8, r0, r7, lsr r7
    3c58:	000f6000 	andeq	r6, pc, r0
    3c5c:	000f5c00 	andeq	r5, pc, r0, lsl #24
    3c60:	646f1900 	strbtvs	r1, [pc], #-2304	; 3c68 <_Min_Stack_Size+0x3868>
    3c64:	b0010072 	andlt	r0, r1, r2, ror r0
    3c68:	00930c01 	addseq	r0, r3, r1, lsl #24
    3c6c:	0f830000 	svceq	0x00830000
    3c70:	0f810000 	svceq	0x00810000
    3c74:	11000000 	mrsne	r0, (UNDEF: 0)
    3c78:	0004ac01 	andeq	sl, r4, r1, lsl #24
    3c7c:	01970100 	orrseq	r0, r7, r0, lsl #2
    3c80:	0e300106 	rsfeqs	f0, f0, f6
    3c84:	0e3a0800 	cdpeq	8, 3, cr0, cr10, cr0, {0}
    3c88:	7d020800 	stcvc	8, cr0, [r2, #-0]
    3c8c:	07c60100 	strbeq	r0, [r6, r0, lsl #2]
    3c90:	8f120000 	svchi	0x00120000
    3c94:	01000015 	tsteq	r0, r5, lsl r0
    3c98:	22260197 	eorcs	r0, r6, #-1073741787	; 0xc0000025
    3c9c:	01000007 	tsteq	r0, r7
    3ca0:	14bf1250 	ldrtne	r1, [pc], #592	; 3ca8 <_Min_Stack_Size+0x38a8>
    3ca4:	97010000 	strls	r0, [r1, -r0]
    3ca8:	00873601 	addeq	r3, r7, r1, lsl #12
    3cac:	51010000 	mrspl	r0, (UNDEF: 1)
    3cb0:	0015c412 	andseq	ip, r5, r2, lsl r4
    3cb4:	01970100 	orrseq	r0, r7, r0, lsl #2
    3cb8:	00065b4e 	andeq	r5, r6, lr, asr #22
    3cbc:	00520100 	subseq	r0, r2, r0, lsl #2
    3cc0:	1512011a 	ldrne	r0, [r2, #-282]	; 0xfffffee6
    3cc4:	75010000 	strvc	r0, [r1, #-0]
    3cc8:	5b010f01 	blpl	478d4 <_Min_Stack_Size+0x474d4>
    3ccc:	00000006 	andeq	r0, r0, r6
    3cd0:	00000000 	andeq	r0, r0, r0
    3cd4:	02000000 	andeq	r0, r0, #0
    3cd8:	1f01007d 	svcne	0x0001007d
    3cdc:	14000008 	strne	r0, [r0], #-8
    3ce0:	0000158f 	andeq	r1, r0, pc, lsl #11
    3ce4:	2e017501 	cfsh32cs	mvfx7, mvfx1, #1
    3ce8:	00000722 	andeq	r0, r0, r2, lsr #14
    3cec:	00000f9e 	muleq	r0, lr, pc	; <UNPREDICTABLE>
    3cf0:	00000f96 	muleq	r0, r6, pc	; <UNPREDICTABLE>
    3cf4:	0014bf12 	andseq	fp, r4, r2, lsl pc
    3cf8:	01750100 	cmneq	r5, r0, lsl #2
    3cfc:	0000873e 	andeq	r8, r0, lr, lsr r7
    3d00:	1b510100 	blne	1444108 <_Min_Stack_Size+0x1443d08>
    3d04:	00001523 	andeq	r1, r0, r3, lsr #10
    3d08:	11017701 	tstne	r1, r1, lsl #14
    3d0c:	0000065b 	andeq	r0, r0, fp, asr r6
    3d10:	00000fda 	ldrdeq	r0, [r0], -sl
    3d14:	00000fd8 	ldrdeq	r0, [r0], -r8
    3d18:	af011300 	svcge	0x00011300
    3d1c:	01000015 	tsteq	r0, r5, lsl r0
    3d20:	01060124 	tsteq	r6, r4, lsr #2
	...
    3d2c:	00000fed 	andeq	r0, r0, sp, ror #31
    3d30:	00089901 	andeq	r9, r8, r1, lsl #18
    3d34:	158f1200 	strne	r1, [pc, #512]	; 3f3c <_Min_Stack_Size+0x3b3c>
    3d38:	24010000 	strcs	r0, [r1], #-0
    3d3c:	07222501 	streq	r2, [r2, -r1, lsl #10]!
    3d40:	50010000 	andpl	r0, r1, r0
    3d44:	0014bf12 	andseq	fp, r4, r2, lsl pc
    3d48:	01240100 			; <UNDEFINED> instruction: 0x01240100
    3d4c:	00009335 	andeq	r9, r0, r5, lsr r3
    3d50:	1b510100 	blne	1444158 <_Min_Stack_Size+0x1443d58>
    3d54:	0000152d 	andeq	r1, r0, sp, lsr #10
    3d58:	0c012601 	stceq	6, cr2, [r1], {1}
    3d5c:	00000093 	muleq	r0, r3, r0
    3d60:	0000101d 	andeq	r1, r0, sp, lsl r0
    3d64:	00001019 	andeq	r1, r0, r9, lsl r0
    3d68:	0015d31b 	andseq	sp, r5, fp, lsl r3
    3d6c:	01270100 			; <UNDEFINED> instruction: 0x01270100
    3d70:	0000930c 	andeq	r9, r0, ip, lsl #6
    3d74:	00104c00 	andseq	r4, r0, r0, lsl #24
    3d78:	00103c00 	andseq	r3, r0, r0, lsl #24
    3d7c:	6d741900 			; <UNDEFINED> instruction: 0x6d741900
    3d80:	28010070 	stmdacs	r1, {r4, r5, r6}
    3d84:	00930c01 	addseq	r0, r3, r1, lsl #24
    3d88:	10d60000 	sbcsne	r0, r6, r0
    3d8c:	10d00000 	sbcsne	r0, r0, r0
    3d90:	1c000000 	stcne	0, cr0, [r0], {-0}
    3d94:	00040d01 	andeq	r0, r4, r1, lsl #26
    3d98:	06a20100 	strteq	r0, [r2], r0, lsl #2
    3d9c:	000c5c01 	andeq	r5, ip, r1, lsl #24
    3da0:	000e3008 	andeq	r3, lr, r8
    3da4:	0010ff08 	andseq	pc, r0, r8, lsl #30
    3da8:	09260100 	stmdbeq	r6!, {r8}
    3dac:	8f1d0000 	svchi	0x001d0000
    3db0:	01000015 	tsteq	r0, r5, lsl r0
    3db4:	072223a2 	streq	r2, [r2, -r2, lsr #7]!
    3db8:	50010000 	andpl	r0, r1, r0
    3dbc:	0004111d 	andeq	r1, r4, sp, lsl r1
    3dc0:	3ca20100 	stfccs	f0, [r2]
    3dc4:	00000926 	andeq	r0, r0, r6, lsr #18
    3dc8:	2d1e5101 	ldfcss	f5, [lr, #-4]
    3dcc:	01000015 	tsteq	r0, r5, lsl r0
    3dd0:	00930ca4 	addseq	r0, r3, r4, lsr #25
    3dd4:	113b0000 	teqne	fp, r0
    3dd8:	11370000 	teqne	r7, r0
    3ddc:	d31e0000 	tstle	lr, #0
    3de0:	01000015 	tsteq	r0, r5, lsl r0
    3de4:	00930ca5 	addseq	r0, r3, r5, lsr #25
    3de8:	11600000 	cmnne	r0, r0
    3dec:	115a0000 	cmpne	sl, r0
    3df0:	d91e0000 	ldmdble	lr, {}	; <UNPREDICTABLE>
    3df4:	01000014 	tsteq	r0, r4, lsl r0
    3df8:	00930ca6 	addseq	r0, r3, r6, lsr #25
    3dfc:	11c20000 	bicne	r0, r2, r0
    3e00:	118e0000 	orrne	r0, lr, r0
    3e04:	a41f0000 	ldrge	r0, [pc], #-0	; 3e0c <_Min_Stack_Size+0x3a0c>
    3e08:	b808000d 	stmdalt	r8, {r0, r2, r3}
    3e0c:	2008000d 	andcs	r0, r8, sp
    3e10:	000004be 			; <UNDEFINED> instruction: 0x000004be
    3e14:	9f09ee01 	svcls	0x0009ee01
    3e18:	02000000 	andeq	r0, r0, #0
    3e1c:	00006491 	muleq	r0, r1, r4
    3e20:	06340418 			; <UNDEFINED> instruction: 0x06340418
    3e24:	1c000000 	stcne	0, cr0, [r0], {-0}
    3e28:	0200000b 	andeq	r0, r0, #11
    3e2c:	000e1e00 	andeq	r1, lr, r0, lsl #28
    3e30:	82010400 	andhi	r0, r1, #0, 8
    3e34:	0c000001 	stceq	0, cr0, [r0], {1}
    3e38:	0000171e 	andeq	r1, r0, lr, lsl r7
    3e3c:	00000044 	andeq	r0, r0, r4, asr #32
    3e40:	000002c8 	andeq	r0, r0, r8, asr #5
	...
    3e4c:	000026ee 	andeq	r2, r0, lr, ror #13
    3e50:	9f060102 	svcls	0x00060102
    3e54:	03000000 	movweq	r0, #0
    3e58:	00000704 	andeq	r0, r0, r4, lsl #14
    3e5c:	3c182b02 			; <UNDEFINED> instruction: 0x3c182b02
    3e60:	02000000 	andeq	r0, r0, #0
    3e64:	009d0801 	addseq	r0, sp, r1, lsl #16
    3e68:	02020000 	andeq	r0, r2, #0
    3e6c:	00016305 	andeq	r6, r1, r5, lsl #6
    3e70:	07020200 	streq	r0, [r2, -r0, lsl #4]
    3e74:	00000027 	andeq	r0, r0, r7, lsr #32
    3e78:	2f050402 	svccs	0x00050402
    3e7c:	03000001 	movweq	r0, #1
    3e80:	000000dc 	ldrdeq	r0, [r0], -ip
    3e84:	64194f02 	ldrvs	r4, [r9], #-3842	; 0xfffff0fe
    3e88:	02000000 	andeq	r0, r0, #0
    3e8c:	01090704 	tsteq	r9, r4, lsl #14
    3e90:	08020000 	stmdaeq	r2, {}	; <UNPREDICTABLE>
    3e94:	00012a05 	andeq	r2, r1, r5, lsl #20
    3e98:	07080200 	streq	r0, [r8, -r0, lsl #4]
    3e9c:	00000104 	andeq	r0, r0, r4, lsl #2
    3ea0:	69050404 	stmdbvs	r5, {r2, sl}
    3ea4:	0200746e 	andeq	r7, r0, #1845493760	; 0x6e000000
    3ea8:	010e0704 	tsteq	lr, r4, lsl #14
    3eac:	06030000 	streq	r0, [r3], -r0
    3eb0:	03000007 	movweq	r0, #7
    3eb4:	00301318 	eorseq	r1, r0, r8, lsl r3
    3eb8:	87050000 	strhi	r0, [r5, -r0]
    3ebc:	03000000 	movweq	r0, #0
    3ec0:	000000de 	ldrdeq	r0, [r0], -lr
    3ec4:	58143003 	ldmdapl	r4, {r0, r1, ip, sp}
    3ec8:	05000000 	streq	r0, [r0, #-0]
    3ecc:	00000098 	muleq	r0, r8, r0
    3ed0:	0000a406 	andeq	sl, r0, r6, lsl #8
    3ed4:	048c0700 	streq	r0, [ip], #1792	; 0x700
    3ed8:	0a0901b8 	beq	2445c0 <_Min_Stack_Size+0x2441c0>
    3edc:	08000002 	stmdaeq	r0, {r1}
    3ee0:	000006d2 	ldrdeq	r0, [r0], -r2
    3ee4:	1201ba04 	andne	fp, r1, #4, 20	; 0x4000
    3ee8:	000000a9 	andeq	r0, r0, r9, lsr #1
    3eec:	08002302 	stmdaeq	r0, {r1, r8, r9, sp}
    3ef0:	000006fa 	strdeq	r0, [r0], -sl
    3ef4:	1201bb04 	andne	fp, r1, #4, 22	; 0x1000
    3ef8:	000000a4 	andeq	r0, r0, r4, lsr #1
    3efc:	08042302 	stmdaeq	r4, {r1, r8, r9, sp}
    3f00:	0000074e 	andeq	r0, r0, lr, asr #14
    3f04:	1201bc04 	andne	fp, r1, #4, 24	; 0x400
    3f08:	000000a4 	andeq	r0, r0, r4, lsr #1
    3f0c:	08082302 	stmdaeq	r8, {r1, r8, r9, sp}
    3f10:	00000735 	andeq	r0, r0, r5, lsr r7
    3f14:	1201bd04 	andne	fp, r1, #4, 26	; 0x100
    3f18:	000000a4 	andeq	r0, r0, r4, lsr #1
    3f1c:	090c2302 	stmdbeq	ip, {r1, r8, r9, sp}
    3f20:	00524353 	subseq	r4, r2, r3, asr r3
    3f24:	1201be04 	andne	fp, r1, #4, 28	; 0x40
    3f28:	000000a4 	andeq	r0, r0, r4, lsr #1
    3f2c:	09102302 	ldmdbeq	r0, {r1, r8, r9, sp}
    3f30:	00524343 	subseq	r4, r2, r3, asr #6
    3f34:	1201bf04 	andne	fp, r1, #4, 30
    3f38:	000000a4 	andeq	r0, r0, r4, lsr #1
    3f3c:	09142302 	ldmdbeq	r4, {r1, r8, r9, sp}
    3f40:	00504853 	subseq	r4, r0, r3, asr r8
    3f44:	1201c004 	andne	ip, r1, #4
    3f48:	0000021a 	andeq	r0, r0, sl, lsl r2
    3f4c:	08182302 	ldmdaeq	r8, {r1, r8, r9, sp}
    3f50:	0000073b 	andeq	r0, r0, fp, lsr r7
    3f54:	1201c104 	andne	ip, r1, #4, 2
    3f58:	000000a4 	andeq	r0, r0, r4, lsr #1
    3f5c:	08242302 	stmdaeq	r4!, {r1, r8, r9, sp}
    3f60:	0000070e 	andeq	r0, r0, lr, lsl #14
    3f64:	1201c204 	andne	ip, r1, #4, 4	; 0x40000000
    3f68:	000000a4 	andeq	r0, r0, r4, lsr #1
    3f6c:	08282302 	stmdaeq	r8!, {r1, r8, r9, sp}
    3f70:	00000783 	andeq	r0, r0, r3, lsl #15
    3f74:	1201c304 	andne	ip, r1, #4, 6	; 0x10000000
    3f78:	000000a4 	andeq	r0, r0, r4, lsr #1
    3f7c:	082c2302 	stmdaeq	ip!, {r1, r8, r9, sp}
    3f80:	0000076e 	andeq	r0, r0, lr, ror #14
    3f84:	1201c404 	andne	ip, r1, #4, 8	; 0x4000000
    3f88:	000000a4 	andeq	r0, r0, r4, lsr #1
    3f8c:	08302302 	ldmdaeq	r0!, {r1, r8, r9, sp}
    3f90:	00000741 	andeq	r0, r0, r1, asr #14
    3f94:	1201c504 	andne	ip, r1, #4, 10	; 0x1000000
    3f98:	000000a4 	andeq	r0, r0, r4, lsr #1
    3f9c:	08342302 	ldmdaeq	r4!, {r1, r8, r9, sp}
    3fa0:	000006ff 	strdeq	r0, [r0], -pc	; <UNPREDICTABLE>
    3fa4:	1201c604 	andne	ip, r1, #4, 12	; 0x400000
    3fa8:	000000a4 	andeq	r0, r0, r4, lsr #1
    3fac:	08382302 	ldmdaeq	r8!, {r1, r8, r9, sp}
    3fb0:	000007a4 	andeq	r0, r0, r4, lsr #15
    3fb4:	1201c704 	andne	ip, r1, #4, 14	; 0x100000
    3fb8:	000000a4 	andeq	r0, r0, r4, lsr #1
    3fbc:	093c2302 	ldmdbeq	ip!, {r1, r8, r9, sp}
    3fc0:	00524650 	subseq	r4, r2, r0, asr r6
    3fc4:	1201c804 	andne	ip, r1, #4, 16	; 0x40000
    3fc8:	00000234 	andeq	r0, r0, r4, lsr r2
    3fcc:	09402302 	stmdbeq	r0, {r1, r8, r9, sp}^
    3fd0:	00524644 	subseq	r4, r2, r4, asr #12
    3fd4:	1201c904 	andne	ip, r1, #4, 18	; 0x10000
    3fd8:	000000a9 	andeq	r0, r0, r9, lsr #1
    3fdc:	09482302 	stmdbeq	r8, {r1, r8, r9, sp}^
    3fe0:	00524441 	subseq	r4, r2, r1, asr #8
    3fe4:	1201ca04 	andne	ip, r1, #4, 20	; 0x4000
    3fe8:	000000a9 	andeq	r0, r0, r9, lsr #1
    3fec:	084c2302 	stmdaeq	ip, {r1, r8, r9, sp}^
    3ff0:	0000079f 	muleq	r0, pc, r7	; <UNPREDICTABLE>
    3ff4:	1201cb04 	andne	ip, r1, #4, 22	; 0x1000
    3ff8:	0000024e 	andeq	r0, r0, lr, asr #4
    3ffc:	08502302 	ldmdaeq	r0, {r1, r8, r9, sp}^
    4000:	00000769 	andeq	r0, r0, r9, ror #14
    4004:	1201cc04 	andne	ip, r1, #4, 24	; 0x400
    4008:	00000268 	andeq	r0, r0, r8, ror #4
    400c:	08602302 	stmdaeq	r0!, {r1, r8, r9, sp}^
    4010:	00000524 	andeq	r0, r0, r4, lsr #10
    4014:	1201cd04 	andne	ip, r1, #4, 26	; 0x100
    4018:	0000026d 	andeq	r0, r0, sp, ror #4
    401c:	08742302 	ldmdaeq	r4!, {r1, r8, r9, sp}^
    4020:	000007a9 	andeq	r0, r0, r9, lsr #15
    4024:	1201ce04 	andne	ip, r1, #4, 28	; 0x40
    4028:	000000a4 	andeq	r0, r0, r4, lsr #1
    402c:	01882303 	orreq	r2, r8, r3, lsl #6
    4030:	00930a00 	addseq	r0, r3, r0, lsl #20
    4034:	021a0000 	andseq	r0, sl, #0
    4038:	800b0000 	andhi	r0, fp, r0
    403c:	0b000000 	bleq	4044 <_Min_Stack_Size+0x3c44>
    4040:	020a0500 	andeq	r0, sl, #0, 10
    4044:	a90a0000 	stmdbge	sl, {}	; <UNPREDICTABLE>
    4048:	2f000000 	svccs	0x00000000
    404c:	0b000002 	bleq	405c <_Min_Stack_Size+0x3c5c>
    4050:	00000080 	andeq	r0, r0, r0, lsl #1
    4054:	1f060001 	svcne	0x00060001
    4058:	05000002 	streq	r0, [r0, #-2]
    405c:	0000022f 	andeq	r0, r0, pc, lsr #4
    4060:	0000a90a 	andeq	sl, r0, sl, lsl #18
    4064:	00024900 	andeq	r4, r2, r0, lsl #18
    4068:	00800b00 	addeq	r0, r0, r0, lsl #22
    406c:	00030000 	andeq	r0, r3, r0
    4070:	00023906 	andeq	r3, r2, r6, lsl #18
    4074:	02490500 	subeq	r0, r9, #0, 10
    4078:	a90a0000 	stmdbge	sl, {}	; <UNPREDICTABLE>
    407c:	63000000 	movwvs	r0, #0
    4080:	0b000002 	bleq	4090 <_Min_Stack_Size+0x3c90>
    4084:	00000080 	andeq	r0, r0, r0, lsl #1
    4088:	53060004 	movwpl	r0, #24580	; 0x6004
    408c:	05000002 	streq	r0, [r0, #-2]
    4090:	00000263 	andeq	r0, r0, r3, ror #4
    4094:	0000980a 	andeq	r9, r0, sl, lsl #16
    4098:	00027d00 	andeq	r7, r2, r0, lsl #26
    409c:	00800b00 	addeq	r0, r0, r0, lsl #22
    40a0:	00040000 	andeq	r0, r4, r0
    40a4:	0006e30c 	andeq	lr, r6, ip, lsl #6
    40a8:	01cf0400 	biceq	r0, pc, r0, lsl #8
    40ac:	0000ae03 	andeq	sl, r0, r3, lsl #28
    40b0:	07730d00 	ldrbeq	r0, [r3, -r0, lsl #26]!
    40b4:	39080000 	stmdbcc	r8, {}	; <UNPREDICTABLE>
    40b8:	00009811 	andeq	r9, r0, r1, lsl r8
    40bc:	07010100 	streq	r0, [r1, -r0, lsl #2]
    40c0:	01aa0538 			; <UNDEFINED> instruction: 0x01aa0538
    40c4:	00038309 	andeq	r8, r3, r9, lsl #6
    40c8:	159f0800 	ldrne	r0, [pc, #2048]	; 48d0 <_Min_Stack_Size+0x44d0>
    40cc:	ac050000 	stcge	0, cr0, [r5], {-0}
    40d0:	00a41101 	adceq	r1, r4, r1, lsl #2
    40d4:	23020000 	movwcs	r0, #8192	; 0x2000
    40d8:	15950800 	ldrne	r0, [r5, #2048]	; 0x800
    40dc:	ad050000 	stcge	0, cr0, [r5, #-0]
    40e0:	00a41101 	adceq	r1, r4, r1, lsl #2
    40e4:	23020000 	movwcs	r0, #8192	; 0x2000
    40e8:	15360804 	ldrne	r0, [r6, #-2052]!	; 0xfffff7fc
    40ec:	ae050000 	cdpge	0, 0, cr0, cr5, cr0, {0}
    40f0:	00a41101 	adceq	r1, r4, r1, lsl #2
    40f4:	23020000 	movwcs	r0, #8192	; 0x2000
    40f8:	15a90808 	strne	r0, [r9, #2056]!	; 0x808
    40fc:	af050000 	svcge	0x00050000
    4100:	00a41101 	adceq	r1, r4, r1, lsl #2
    4104:	23020000 	movwcs	r0, #8192	; 0x2000
    4108:	14f7080c 	ldrbtne	r0, [r7], #2060	; 0x80c
    410c:	b0050000 	andlt	r0, r5, r0
    4110:	00a41101 	adceq	r1, r4, r1, lsl #2
    4114:	23020000 	movwcs	r0, #8192	; 0x2000
    4118:	52500910 	subspl	r0, r0, #16, 18	; 0x40000
    411c:	b1050031 	tstlt	r5, r1, lsr r0
    4120:	00a41101 	adceq	r1, r4, r1, lsl #2
    4124:	23020000 	movwcs	r0, #8192	; 0x2000
    4128:	052e0814 	streq	r0, [lr, #-2068]!	; 0xfffff7ec
    412c:	b2050000 	andlt	r0, r5, #0
    4130:	00981101 	addseq	r1, r8, r1, lsl #2
    4134:	23020000 	movwcs	r0, #8192	; 0x2000
    4138:	05380818 	ldreq	r0, [r8, #-2072]!	; 0xfffff7e8
    413c:	b3050000 	movwlt	r0, #20480	; 0x5000
    4140:	00981101 	addseq	r1, r8, r1, lsl #2
    4144:	23020000 	movwcs	r0, #8192	; 0x2000
    4148:	15a4081c 	strne	r0, [r4, #2076]!	; 0x81c
    414c:	b4050000 	strlt	r0, [r5], #-0
    4150:	00a41101 	adceq	r1, r4, r1, lsl #2
    4154:	23020000 	movwcs	r0, #8192	; 0x2000
    4158:	159a0820 	ldrne	r0, [sl, #2080]	; 0x820
    415c:	b5050000 	strlt	r0, [r5, #-0]
    4160:	00a41101 	adceq	r1, r4, r1, lsl #2
    4164:	23020000 	movwcs	r0, #8192	; 0x2000
    4168:	15530824 	ldrbne	r0, [r3, #-2084]	; 0xfffff7dc
    416c:	b6050000 	strlt	r0, [r5], -r0
    4170:	00a41101 	adceq	r1, r4, r1, lsl #2
    4174:	23020000 	movwcs	r0, #8192	; 0x2000
    4178:	15cd0828 	strbne	r0, [sp, #2088]	; 0x828
    417c:	b7050000 	strlt	r0, [r5, -r0]
    4180:	00a41101 	adceq	r1, r4, r1, lsl #2
    4184:	23020000 	movwcs	r0, #8192	; 0x2000
    4188:	14fe082c 	ldrbtne	r0, [lr], #2092	; 0x82c
    418c:	b8050000 	stmdalt	r5, {}	; <UNPREDICTABLE>
    4190:	00a41101 	adceq	r1, r4, r1, lsl #2
    4194:	23020000 	movwcs	r0, #8192	; 0x2000
    4198:	52500930 	subspl	r0, r0, #48, 18	; 0xc0000
    419c:	b9050032 	stmdblt	r5, {r1, r4, r5}
    41a0:	00a41101 	adceq	r1, r4, r1, lsl #2
    41a4:	23020000 	movwcs	r0, #8192	; 0x2000
    41a8:	050c0034 	streq	r0, [ip, #-52]	; 0xffffffcc
    41ac:	05000015 	streq	r0, [r0, #-21]	; 0xffffffeb
    41b0:	980301ba 	stmdals	r3, {r1, r3, r4, r5, r7, r8}
    41b4:	07000002 	streq	r0, [r0, -r2]
    41b8:	025b0584 	subseq	r0, fp, #132, 10	; 0x21000000
    41bc:	00051c09 	andeq	r1, r5, r9, lsl #24
    41c0:	52430900 	subpl	r0, r3, #0, 18
    41c4:	5d050031 	stcpl	0, cr0, [r5, #-196]	; 0xffffff3c
    41c8:	00a41102 	adceq	r1, r4, r2, lsl #2
    41cc:	23020000 	movwcs	r0, #8192	; 0x2000
    41d0:	52430900 	subpl	r0, r3, #0, 18
    41d4:	5e050032 	mcrpl	0, 0, r0, cr5, cr2, {1}
    41d8:	00a41102 	adceq	r1, r4, r2, lsl #2
    41dc:	23020000 	movwcs	r0, #8192	; 0x2000
    41e0:	52430904 	subpl	r0, r3, #4, 18	; 0x10000
    41e4:	5f050033 	svcpl	0x00050033
    41e8:	00a41102 	adceq	r1, r4, r2, lsl #2
    41ec:	23020000 	movwcs	r0, #8192	; 0x2000
    41f0:	52430908 	subpl	r0, r3, #8, 18	; 0x20000
    41f4:	60050034 	andvs	r0, r5, r4, lsr r0
    41f8:	00a41102 	adceq	r1, r4, r2, lsl #2
    41fc:	23020000 	movwcs	r0, #8192	; 0x2000
    4200:	5253090c 	subspl	r0, r3, #12, 18	; 0x30000
    4204:	61050031 	tstvs	r5, r1, lsr r0
    4208:	00a41102 	adceq	r1, r4, r2, lsl #2
    420c:	23020000 	movwcs	r0, #8192	; 0x2000
    4210:	52530910 	subspl	r0, r3, #16, 18	; 0x40000
    4214:	62050032 	andvs	r0, r5, #50	; 0x32
    4218:	00a41102 	adceq	r1, r4, r2, lsl #2
    421c:	23020000 	movwcs	r0, #8192	; 0x2000
    4220:	43530914 	cmpmi	r3, #20, 18	; 0x50000
    4224:	63050052 	movwvs	r0, #20562	; 0x5052
    4228:	00a41102 	adceq	r1, r4, r2, lsl #2
    422c:	23020000 	movwcs	r0, #8192	; 0x2000
    4230:	13820818 	orrne	r0, r2, #24, 16	; 0x180000
    4234:	64050000 	strvs	r0, [r5], #-0
    4238:	00980c02 	addseq	r0, r8, r2, lsl #24
    423c:	23020000 	movwcs	r0, #8192	; 0x2000
    4240:	128e081c 	addne	r0, lr, #28, 16	; 0x1c0000
    4244:	65050000 	strvs	r0, [r5, #-0]
    4248:	00a41102 	adceq	r1, r4, r2, lsl #2
    424c:	23020000 	movwcs	r0, #8192	; 0x2000
    4250:	11f80820 	mvnsne	r0, r0, lsr #16
    4254:	66050000 	strvs	r0, [r5], -r0
    4258:	00a41102 	adceq	r1, r4, r2, lsl #2
    425c:	23020000 	movwcs	r0, #8192	; 0x2000
    4260:	12940824 	addsne	r0, r4, #36, 16	; 0x240000
    4264:	67050000 	strvs	r0, [r5, -r0]
    4268:	00a41102 	adceq	r1, r4, r2, lsl #2
    426c:	23020000 	movwcs	r0, #8192	; 0x2000
    4270:	11fe0828 	mvnsne	r0, r8, lsr #16
    4274:	68050000 	stmdavs	r5, {}	; <UNPREDICTABLE>
    4278:	00a41102 	adceq	r1, r4, r2, lsl #2
    427c:	23020000 	movwcs	r0, #8192	; 0x2000
    4280:	129a082c 	addsne	r0, sl, #44, 16	; 0x2c0000
    4284:	69050000 	stmdbvs	r5, {}	; <UNPREDICTABLE>
    4288:	00a41102 	adceq	r1, r4, r2, lsl #2
    428c:	23020000 	movwcs	r0, #8192	; 0x2000
    4290:	12040830 	andne	r0, r4, #48, 16	; 0x300000
    4294:	6a050000 	bvs	14429c <_Min_Stack_Size+0x143e9c>
    4298:	00a41102 	adceq	r1, r4, r2, lsl #2
    429c:	23020000 	movwcs	r0, #8192	; 0x2000
    42a0:	12a00834 	adcne	r0, r0, #52, 16	; 0x340000
    42a4:	6b050000 	blvs	1442ac <_Min_Stack_Size+0x143eac>
    42a8:	00a41102 	adceq	r1, r4, r2, lsl #2
    42ac:	23020000 	movwcs	r0, #8192	; 0x2000
    42b0:	120a0838 	andne	r0, sl, #56, 16	; 0x380000
    42b4:	6c050000 	stcvs	0, cr0, [r5], {-0}
    42b8:	00a41102 	adceq	r1, r4, r2, lsl #2
    42bc:	23020000 	movwcs	r0, #8192	; 0x2000
    42c0:	12a6083c 	adcne	r0, r6, #60, 16	; 0x3c0000
    42c4:	6d050000 	stcvs	0, cr0, [r5, #-0]
    42c8:	00a41102 	adceq	r1, r4, r2, lsl #2
    42cc:	23020000 	movwcs	r0, #8192	; 0x2000
    42d0:	12100840 	andsne	r0, r0, #64, 16	; 0x400000
    42d4:	6e050000 	cdpvs	0, 0, cr0, cr5, cr0, {0}
    42d8:	00a41102 	adceq	r1, r4, r2, lsl #2
    42dc:	23020000 	movwcs	r0, #8192	; 0x2000
    42e0:	12ac0844 	adcne	r0, ip, #68, 16	; 0x440000
    42e4:	6f050000 	svcvs	0x00050000
    42e8:	00a41102 	adceq	r1, r4, r2, lsl #2
    42ec:	23020000 	movwcs	r0, #8192	; 0x2000
    42f0:	127a0848 	rsbsne	r0, sl, #72, 16	; 0x480000
    42f4:	70050000 	andvc	r0, r5, r0
    42f8:	00a41102 	adceq	r1, r4, r2, lsl #2
    42fc:	23020000 	movwcs	r0, #8192	; 0x2000
    4300:	12b2084c 	adcsne	r0, r2, #76, 16	; 0x4c0000
    4304:	71050000 	mrsvc	r0, (UNDEF: 5)
    4308:	00a41102 	adceq	r1, r4, r2, lsl #2
    430c:	23020000 	movwcs	r0, #8192	; 0x2000
    4310:	12c00850 	sbcne	r0, r0, #80, 16	; 0x500000
    4314:	72050000 	andvc	r0, r5, #0
    4318:	00a41102 	adceq	r1, r4, r2, lsl #2
    431c:	23020000 	movwcs	r0, #8192	; 0x2000
    4320:	052e0854 	streq	r0, [lr, #-2132]!	; 0xfffff7ac
    4324:	73050000 	movwvc	r0, #20480	; 0x5000
    4328:	051c0c02 	ldreq	r0, [ip, #-3074]	; 0xfffff3fe
    432c:	23020000 	movwcs	r0, #8192	; 0x2000
    4330:	52430958 	subpl	r0, r3, #88, 18	; 0x160000
    4334:	74050035 	strvc	r0, [r5], #-53	; 0xffffffcb
    4338:	00a41102 	adceq	r1, r4, r2, lsl #2
    433c:	23030000 	movwcs	r0, #12288	; 0x3000
    4340:	0a000180 	beq	4948 <_Min_Stack_Size+0x4548>
    4344:	00000098 	muleq	r0, r8, r0
    4348:	0000052c 	andeq	r0, r0, ip, lsr #10
    434c:	0000800b 	andeq	r8, r0, fp
    4350:	0c000900 			; <UNDEFINED> instruction: 0x0c000900
    4354:	00001401 	andeq	r1, r0, r1, lsl #8
    4358:	03027505 	movweq	r7, #9477	; 0x2505
    435c:	00000390 	muleq	r0, r0, r3
    4360:	76040802 	strvc	r0, [r4], -r2, lsl #16
    4364:	0e000001 	cdpeq	0, 0, cr0, cr0, cr1, {0}
    4368:	003c0107 	eorseq	r0, ip, r7, lsl #2
    436c:	27060000 	strcs	r0, [r6, -r0]
    4370:	00056701 	andeq	r6, r5, r1, lsl #14
    4374:	02770f00 	rsbseq	r0, r7, #0, 30
    4378:	0f000000 	svceq	0x00000000
    437c:	0000026d 	andeq	r0, r0, sp, ror #4
    4380:	035a0f01 	cmpeq	sl, #1, 30
    4384:	0f020000 	svceq	0x00020000
    4388:	0000039b 	muleq	r0, fp, r3
    438c:	f3030003 	vhadd.u8	d0, d3, d3
    4390:	0600000b 	streq	r0, [r0], -fp
    4394:	0540032c 	strbeq	r0, [r0, #-812]	; 0xfffffcd4
    4398:	08100000 	ldmdaeq	r0, {}	; <UNPREDICTABLE>
    439c:	9b093107 	blls	2507c0 <_Min_Stack_Size+0x2503c0>
    43a0:	11000005 	tstne	r0, r5
    43a4:	000017f0 	strdeq	r1, [r0], -r0
    43a8:	980c3307 	stmdals	ip, {r0, r1, r2, r8, r9, ip, sp}
    43ac:	02000000 	andeq	r0, r0, #0
    43b0:	e0110023 	ands	r0, r1, r3, lsr #32
    43b4:	07000019 	smladeq	r0, r9, r0, r0
    43b8:	00980c35 	addseq	r0, r8, r5, lsr ip
    43bc:	23020000 	movwcs	r0, #8192	; 0x2000
    43c0:	75030004 	strvc	r0, [r3, #-4]
    43c4:	07000019 	smladeq	r0, r9, r0, r0
    43c8:	05730237 	ldrbeq	r0, [r3, #-567]!	; 0xfffffdc9
    43cc:	01120000 	tsteq	r2, r0
    43d0:	000006b1 			; <UNDEFINED> instruction: 0x000006b1
    43d4:	06048501 	streq	r8, [r4], -r1, lsl #10
    43d8:	000f5801 	andeq	r5, pc, r1, lsl #16
    43dc:	000f6808 	andeq	r6, pc, r8, lsl #16
    43e0:	007d0208 	rsbseq	r0, sp, r8, lsl #4
    43e4:	7c011201 	sfmvc	f1, 4, [r1], {1}
    43e8:	01000017 	tsteq	r0, r7, lsl r0
    43ec:	01060475 	tsteq	r6, r5, ror r4
	...
    43f8:	01007d02 	tsteq	r0, r2, lsl #26
    43fc:	19840112 	stmibne	r4, {r1, r4, r8}
    4400:	67010000 	strvs	r0, [r1, -r0]
    4404:	00010604 	andeq	r0, r1, r4, lsl #12
    4408:	00000000 	andeq	r0, r0, r0
    440c:	02000000 	andeq	r0, r0, #0
    4410:	1201007d 	andne	r0, r1, #125	; 0x7d
    4414:	00188801 	andseq	r8, r8, r1, lsl #16
    4418:	045b0100 	ldrbeq	r0, [fp], #-256	; 0xffffff00
    441c:	00000106 	andeq	r0, r0, r6, lsl #2
    4420:	00000000 	andeq	r0, r0, r0
    4424:	7d020000 	stcvc	0, cr0, [r2, #-0]
    4428:	01120100 	tsteq	r2, r0, lsl #2
    442c:	000018a8 	andeq	r1, r0, r8, lsr #17
    4430:	0d044f01 	stceq	15, cr4, [r4, #-4]
    4434:	00000001 	andeq	r0, r0, r1
    4438:	00000000 	andeq	r0, r0, r0
    443c:	007d0200 	rsbseq	r0, sp, r0, lsl #4
    4440:	18011201 	stmdane	r1, {r0, r9, ip}
    4444:	01000018 	tsteq	r0, r8, lsl r0
    4448:	010d0444 	tsteq	sp, r4, asr #8
	...
    4454:	01007d02 	tsteq	r0, r2, lsl #26
    4458:	17070112 	smladne	r7, r2, r1, r0
    445c:	38010000 	stmdacc	r1, {}	; <UNPREDICTABLE>
    4460:	00010d04 	andeq	r0, r1, r4, lsl #26
    4464:	00000000 	andeq	r0, r0, r0
    4468:	02000000 	andeq	r0, r0, #0
    446c:	1201007d 	andne	r0, r1, #125	; 0x7d
    4470:	00168a01 	andseq	r8, r6, r1, lsl #20
    4474:	042b0100 	strteq	r0, [fp], #-256	; 0xffffff00
    4478:	0000010d 	andeq	r0, r0, sp, lsl #2
    447c:	00000000 	andeq	r0, r0, r0
    4480:	7d020000 	stcvc	0, cr0, [r2, #-0]
    4484:	01130100 	tsteq	r3, r0, lsl #2
    4488:	000019a5 	andeq	r1, r0, r5, lsr #19
    448c:	0603f301 	streq	pc, [r3], -r1, lsl #6
    4490:	00000001 	andeq	r0, r0, r1
    4494:	00000000 	andeq	r0, r0, r0
    4498:	0012ef00 	andseq	lr, r2, r0, lsl #30
    449c:	06a90100 	strteq	r0, [r9], r0, lsl #2
    44a0:	00140000 	andseq	r0, r4, r0
    44a4:	10000000 	andne	r0, r0, r0
    44a8:	1400000b 	strne	r0, [r0], #-11
    44ac:	00000000 	andeq	r0, r0, r0
    44b0:	00000648 	andeq	r0, r0, r8, asr #12
    44b4:	00000014 	andeq	r0, r0, r4, lsl r0
    44b8:	00063100 	andeq	r3, r6, r0, lsl #2
    44bc:	00001400 	andeq	r1, r0, r0, lsl #8
    44c0:	061a0000 	ldreq	r0, [sl], -r0
    44c4:	00140000 	andseq	r0, r4, r0
    44c8:	03000000 	movweq	r0, #0
    44cc:	00000006 	andeq	r0, r0, r6
    44d0:	183f0112 	ldmdane	pc!, {r1, r4, r8}	; <UNPREDICTABLE>
    44d4:	da010000 	ble	444dc <_Min_Stack_Size+0x440dc>
    44d8:	00010603 	andeq	r0, r1, r3, lsl #12
    44dc:	00000000 	andeq	r0, r0, r0
    44e0:	02000000 	andeq	r0, r0, #0
    44e4:	1501007d 	strne	r0, [r1, #-125]	; 0xffffff83
    44e8:	00186f01 	andseq	r6, r8, r1, lsl #30
    44ec:	03b10100 			; <UNDEFINED> instruction: 0x03b10100
    44f0:	00000106 	andeq	r0, r0, r6, lsl #2
    44f4:	00000000 	andeq	r0, r0, r0
    44f8:	7d020000 	stcvc	0, cr0, [r2, #-0]
    44fc:	06eb0100 	strbteq	r0, [fp], r0, lsl #2
    4500:	c2160000 	andsgt	r0, r6, #0
    4504:	01000019 	tsteq	r0, r9, lsl r0
    4508:	872703b1 			; <UNDEFINED> instruction: 0x872703b1
    450c:	01000000 	mrseq	r0, (UNDEF: 0)
    4510:	01150050 	tsteq	r5, r0, asr r0
    4514:	000019cc 	andeq	r1, r0, ip, asr #19
    4518:	06037e01 	streq	r7, [r3], -r1, lsl #28
    451c:	00000001 	andeq	r0, r0, r1
    4520:	00000000 	andeq	r0, r0, r0
    4524:	007d0200 	rsbseq	r0, sp, r0, lsl #4
    4528:	00071601 	andeq	r1, r7, r1, lsl #12
    452c:	19c21600 	stmibne	r2, {r9, sl, ip}^
    4530:	7e010000 	cdpvc	0, 0, cr0, cr1, cr0, {0}
    4534:	00872703 	addeq	r2, r7, r3, lsl #14
    4538:	50010000 	andpl	r0, r1, r0
    453c:	04011700 	streq	r1, [r1], #-1792	; 0xfffff900
    4540:	01000019 	tsteq	r0, r9, lsl r0
    4544:	01130352 	tsteq	r3, r2, asr r3
    4548:	00000567 	andeq	r0, r0, r7, ror #10
	...
    4554:	01007d02 	tsteq	r0, r2, lsl #26
    4558:	0000074b 	andeq	r0, r0, fp, asr #14
    455c:	00182f18 	andseq	r2, r8, r8, lsl pc
    4560:	03540100 	cmpeq	r4, #0, 2
    4564:	0000980c 	andeq	r9, r0, ip, lsl #16
    4568:	00131100 	andseq	r1, r3, r0, lsl #2
    456c:	00130f00 	andseq	r0, r3, r0, lsl #30
    4570:	01120000 	tsteq	r2, r0
    4574:	0000160b 	andeq	r1, r0, fp, lsl #12
    4578:	06034301 	streq	r4, [r3], -r1, lsl #6
    457c:	00000001 	andeq	r0, r0, r1
    4580:	00000000 	andeq	r0, r0, r0
    4584:	007d0200 	rsbseq	r0, sp, r0, lsl #4
    4588:	3b011701 	blcc	4a194 <_Min_Stack_Size+0x49d94>
    458c:	01000019 	tsteq	r0, r9, lsl r0
    4590:	011302a2 	tsteq	r3, r2, lsr #5
    4594:	00000567 	andeq	r0, r0, r7, ror #10
	...
    45a0:	01007d02 	tsteq	r0, r2, lsl #26
    45a4:	000007ac 	andeq	r0, r0, ip, lsr #15
    45a8:	00196a19 	andseq	r6, r9, r9, lsl sl
    45ac:	02a20100 	adceq	r0, r2, #0, 2
    45b0:	0007ac37 	andeq	sl, r7, r7, lsr ip
    45b4:	00134c00 	andseq	r4, r3, r0, lsl #24
    45b8:	00132400 	andseq	r2, r3, r0, lsl #8
    45bc:	15261800 	strne	r1, [r6, #-2048]!	; 0xfffff800
    45c0:	a4010000 	strge	r0, [r1], #-0
    45c4:	05671502 	strbeq	r1, [r7, #-1282]!	; 0xfffffafe
    45c8:	14520000 	ldrbne	r0, [r2], #-0
    45cc:	144e0000 	strbne	r0, [lr], #-0
    45d0:	1a000000 	bne	45d8 <_Min_Stack_Size+0x41d8>
    45d4:	00059b04 	andeq	r9, r5, r4, lsl #22
    45d8:	74011200 	strvc	r1, [r1], #-512	; 0xfffffe00
    45dc:	01000016 	tsteq	r0, r6, lsl r0
    45e0:	0106028e 	smlabbeq	r6, lr, r2, r0
	...
    45ec:	01007d02 	tsteq	r0, r2, lsl #26
    45f0:	17db0112 	bfine	r0, r2, #2, #26
    45f4:	85010000 	strhi	r0, [r1, #-0]
    45f8:	00010602 	andeq	r0, r1, r2, lsl #12
    45fc:	00000000 	andeq	r0, r0, r0
    4600:	02000000 	andeq	r0, r0, #0
    4604:	1201007d 	andne	r0, r1, #125	; 0x7d
    4608:	00165e01 	andseq	r5, r6, r1, lsl #28
    460c:	027b0100 	rsbseq	r0, fp, #0, 2
    4610:	00000106 	andeq	r0, r0, r6, lsl #2
    4614:	00000000 	andeq	r0, r0, r0
    4618:	7d020000 	stcvc	0, cr0, [r2, #-0]
    461c:	01120100 	tsteq	r2, r0, lsl #2
    4620:	000017c6 	andeq	r1, r0, r6, asr #15
    4624:	06027201 	streq	r7, [r2], -r1, lsl #4
    4628:	00000001 	andeq	r0, r0, r1
    462c:	00000000 	andeq	r0, r0, r0
    4630:	007d0200 	rsbseq	r0, sp, r0, lsl #4
    4634:	25011201 	strcs	r1, [r1, #-513]	; 0xfffffdff
    4638:	01000019 	tsteq	r0, r9, lsl r0
    463c:	01060267 	tsteq	r6, r7, ror #4
	...
    4648:	01007d02 	tsteq	r0, r2, lsl #26
    464c:	17b10112 			; <UNDEFINED> instruction: 0x17b10112
    4650:	5e010000 	cdppl	0, 0, cr0, cr1, cr0, {0}
    4654:	00010602 	andeq	r0, r1, r2, lsl #12
    4658:	00000000 	andeq	r0, r0, r0
    465c:	02000000 	andeq	r0, r0, #0
    4660:	1201007d 	andne	r0, r1, #125	; 0x7d
    4664:	00164801 	andseq	r4, r6, r1, lsl #16
    4668:	02520100 	subseq	r0, r2, #0, 2
    466c:	00000106 	andeq	r0, r0, r6, lsl #2
    4670:	00000000 	andeq	r0, r0, r0
    4674:	7d020000 	stcvc	0, cr0, [r2, #-0]
    4678:	01120100 	tsteq	r2, r0, lsl #2
    467c:	0000179c 	muleq	r0, ip, r7
    4680:	06024901 	streq	r4, [r2], -r1, lsl #18
    4684:	00000001 	andeq	r0, r0, r1
    4688:	00000000 	andeq	r0, r0, r0
    468c:	007d0200 	rsbseq	r0, sp, r0, lsl #4
    4690:	bf011201 	svclt	0x00011201
    4694:	01000018 	tsteq	r0, r8, lsl r0
    4698:	0106023c 	tsteq	r6, ip, lsr r2
	...
    46a4:	01007d02 	tsteq	r0, r2, lsl #26
    46a8:	17560112 	smmlane	r6, r2, r1, r0
    46ac:	30010000 	andcc	r0, r1, r0
    46b0:	00010602 	andeq	r0, r1, r2, lsl #12
    46b4:	00000000 	andeq	r0, r0, r0
    46b8:	02000000 	andeq	r0, r0, #0
    46bc:	1201007d 	andne	r0, r1, #125	; 0x7d
    46c0:	0016e101 	andseq	lr, r6, r1, lsl #2
    46c4:	02230100 	eoreq	r0, r3, #0, 2
    46c8:	00000106 	andeq	r0, r0, r6, lsl #2
    46cc:	00000000 	andeq	r0, r0, r0
    46d0:	7d020000 	stcvc	0, cr0, [r2, #-0]
    46d4:	01120100 	tsteq	r2, r0, lsl #2
    46d8:	00001a32 	andeq	r1, r0, r2, lsr sl
    46dc:	06021701 	streq	r1, [r2], -r1, lsl #14
    46e0:	00000001 	andeq	r0, r0, r1
    46e4:	00000000 	andeq	r0, r0, r0
    46e8:	007d0200 	rsbseq	r0, sp, r0, lsl #4
    46ec:	e6011701 	str	r1, [r1], -r1, lsl #14
    46f0:	01000018 	tsteq	r0, r8, lsl r0
    46f4:	011301e5 	tsteq	r3, r5, ror #3
    46f8:	00000567 	andeq	r0, r0, r7, ror #10
	...
    4704:	01007d02 	tsteq	r0, r2, lsl #26
    4708:	00000925 	andeq	r0, r0, r5, lsr #18
    470c:	001a5719 	andseq	r5, sl, r9, lsl r7
    4710:	01e50100 	mvneq	r0, r0, lsl #2
    4714:	0000983a 	andeq	r9, r0, sl, lsr r8
    4718:	00149100 	andseq	r9, r4, r0, lsl #2
    471c:	00147100 	andseq	r7, r4, r0, lsl #2
    4720:	15dd1900 	ldrbne	r1, [sp, #2304]	; 0x900
    4724:	e5010000 	str	r0, [r1, #-0]
    4728:	00984901 	addseq	r4, r8, r1, lsl #18
    472c:	157f0000 	ldrbne	r0, [pc, #-0]!	; 4734 <_Min_Stack_Size+0x4334>
    4730:	15610000 	strbne	r0, [r1, #-0]!
    4734:	26180000 	ldrcs	r0, [r8], -r0
    4738:	01000015 	tsteq	r0, r5, lsl r0
    473c:	671501e7 	ldrvs	r0, [r5, -r7, ror #3]
    4740:	45000005 	strmi	r0, [r0, #-5]
    4744:	41000016 	tstmi	r0, r6, lsl r0
    4748:	00000016 	andeq	r0, r0, r6, lsl r0
    474c:	162b0117 			; <UNDEFINED> instruction: 0x162b0117
    4750:	a8010000 	stmdage	r1, {}	; <UNPREDICTABLE>
    4754:	67011301 	strvs	r1, [r1, -r1, lsl #6]
    4758:	00000005 	andeq	r0, r0, r5
    475c:	00000000 	andeq	r0, r0, r0
    4760:	02000000 	andeq	r0, r0, #0
    4764:	8401007d 	strhi	r0, [r1], #-125	; 0xffffff83
    4768:	19000009 	stmdbne	r0, {r0, r3}
    476c:	00001a57 	andeq	r1, r0, r7, asr sl
    4770:	3901a801 	stmdbcc	r1, {r0, fp, sp, pc}
    4774:	00000098 	muleq	r0, r8, r0
    4778:	00001684 	andeq	r1, r0, r4, lsl #13
    477c:	00001664 	andeq	r1, r0, r4, ror #12
    4780:	0015dd19 	andseq	sp, r5, r9, lsl sp
    4784:	01a80100 			; <UNDEFINED> instruction: 0x01a80100
    4788:	00009848 	andeq	r9, r0, r8, asr #16
    478c:	00177200 	andseq	r7, r7, r0, lsl #4
    4790:	00175400 	andseq	r5, r7, r0, lsl #8
    4794:	15261800 	strne	r1, [r6, #-2048]!	; 0xfffff800
    4798:	aa010000 	bge	447a0 <_Min_Stack_Size+0x443a0>
    479c:	05671501 	strbeq	r1, [r7, #-1281]!	; 0xfffffaff
    47a0:	18380000 	ldmdane	r8!, {}	; <UNPREDICTABLE>
    47a4:	18340000 	ldmdane	r4!, {}	; <UNPREDICTABLE>
    47a8:	17000000 	strne	r0, [r0, -r0]
    47ac:	0016c501 	andseq	ip, r6, r1, lsl #10
    47b0:	016b0100 	cmneq	fp, r0, lsl #2
    47b4:	05670113 	strbeq	r0, [r7, #-275]!	; 0xfffffeed
	...
    47c0:	7d020000 	stcvc	0, cr0, [r2, #-0]
    47c4:	09e30100 	stmibeq	r3!, {r8}^
    47c8:	57190000 	ldrpl	r0, [r9, -r0]
    47cc:	0100001a 	tsteq	r0, sl, lsl r0
    47d0:	9838016b 	ldmdals	r8!, {r0, r1, r3, r5, r6, r8}
    47d4:	77000000 	strvc	r0, [r0, -r0]
    47d8:	57000018 	smladpl	r0, r8, r0, r0
    47dc:	19000018 	stmdbne	r0, {r3, r4}
    47e0:	000015dd 	ldrdeq	r1, [r0], -sp
    47e4:	47016b01 	strmi	r6, [r1, -r1, lsl #22]
    47e8:	00000098 	muleq	r0, r8, r0
    47ec:	00001965 	andeq	r1, r0, r5, ror #18
    47f0:	00001947 	andeq	r1, r0, r7, asr #18
    47f4:	00152618 	andseq	r2, r5, r8, lsl r6
    47f8:	016d0100 	cmneq	sp, r0, lsl #2
    47fc:	00056715 	andeq	r6, r5, r5, lsl r7
    4800:	001a2b00 	andseq	r2, sl, r0, lsl #22
    4804:	001a2700 	andseq	r2, sl, r0, lsl #14
    4808:	01170000 	tsteq	r7, r0
    480c:	0000194f 	andeq	r1, r0, pc, asr #18
    4810:	13012e01 	movwne	r2, #7681	; 0x1e01
    4814:	00056701 	andeq	r6, r5, r1, lsl #14
	...
    4820:	007d0200 	rsbseq	r0, sp, r0, lsl #4
    4824:	000a4201 	andeq	r4, sl, r1, lsl #4
    4828:	1a571900 	bne	15cac30 <_Min_Stack_Size+0x15ca830>
    482c:	2e010000 	cdpcs	0, 0, cr0, cr1, cr0, {0}
    4830:	00983701 	addseq	r3, r8, r1, lsl #14
    4834:	1a6a0000 	bne	1a8483c <_Min_Stack_Size+0x1a8443c>
    4838:	1a4a0000 	bne	1284840 <_Min_Stack_Size+0x1284440>
    483c:	dd190000 	ldcle	0, cr0, [r9, #-0]
    4840:	01000015 	tsteq	r0, r5, lsl r0
    4844:	9846012e 	stmdals	r6, {r1, r2, r3, r5, r8}^
    4848:	58000000 	stmdapl	r0, {}	; <UNPREDICTABLE>
    484c:	3a00001b 	bcc	48c0 <_Min_Stack_Size+0x44c0>
    4850:	1800001b 	stmdane	r0, {r0, r1, r3, r4}
    4854:	00001526 	andeq	r1, r0, r6, lsr #10
    4858:	15013001 	strne	r3, [r1, #-1]
    485c:	00000567 	andeq	r0, r0, r7, ror #10
    4860:	00001c1e 	andeq	r1, r0, lr, lsl ip
    4864:	00001c1a 	andeq	r1, r0, sl, lsl ip
    4868:	a1011200 	mrsge	r1, R9_usr
    486c:	01000016 	tsteq	r0, r6, lsl r0
    4870:	01060112 	tsteq	r6, r2, lsl r1
	...
    487c:	01007d02 	tsteq	r0, r2, lsl #26
    4880:	15e80112 	strbne	r0, [r8, #274]!	; 0x112
    4884:	08010000 	stmdaeq	r1, {}	; <UNPREDICTABLE>
    4888:	00010601 	andeq	r0, r1, r1, lsl #12
    488c:	00000000 	andeq	r0, r0, r0
    4890:	02000000 	andeq	r0, r0, #0
    4894:	1b01007d 	blne	44a90 <_Min_Stack_Size+0x44690>
    4898:	0019e501 	andseq	lr, r9, r1, lsl #10
    489c:	06fe0100 	ldrbteq	r0, [lr], r0, lsl #2
    48a0:	00000001 	andeq	r0, r0, r1
    48a4:	00000000 	andeq	r0, r0, r0
    48a8:	007d0200 	rsbseq	r0, sp, r0, lsl #4
    48ac:	f8011c01 			; <UNDEFINED> instruction: 0xf8011c01
    48b0:	01000017 	tsteq	r0, r7, lsl r0
    48b4:	000106ee 	andeq	r0, r1, lr, ror #13
    48b8:	00000000 	andeq	r0, r0, r0
    48bc:	02000000 	andeq	r0, r0, #0
    48c0:	af01007d 	svcge	0x0001007d
    48c4:	1d00000a 	stcne	0, cr0, [r0, #-40]	; 0xffffffd8
    48c8:	00001a20 	andeq	r1, r0, r0, lsr #20
    48cc:	982fee01 	stmdals	pc!, {r0, r9, sl, fp, sp, lr, pc}	; <UNPREDICTABLE>
    48d0:	01000000 	mrseq	r0, (UNDEF: 0)
    48d4:	011e0050 	tsteq	lr, r0, asr r0
    48d8:	000002ce 	andeq	r0, r0, lr, asr #5
    48dc:	01139901 	tsteq	r3, r1, lsl #18
    48e0:	00000567 	andeq	r0, r0, r7, ror #10
    48e4:	08000e4c 	stmdaeq	r0, {r2, r3, r6, r9, sl, fp}
    48e8:	08000f58 	stmdaeq	r0, {r3, r4, r6, r8, r9, sl, fp}
    48ec:	01007d02 	tsteq	r0, r2, lsl #26
    48f0:	00000af6 	strdeq	r0, [r0], -r6
    48f4:	0002df1f 	andeq	sp, r2, pc, lsl pc
    48f8:	3c990100 	ldfccs	f0, [r9], {0}
    48fc:	00000098 	muleq	r0, r8, r0
    4900:	00001c59 	andeq	r1, r0, r9, asr ip
    4904:	00001c3d 	andeq	r1, r0, sp, lsr ip
    4908:	00182f20 	andseq	r2, r8, r0, lsr #30
    490c:	0c9b0100 	ldfeqs	f0, [fp], {0}
    4910:	00000098 	muleq	r0, r8, r0
    4914:	00001d14 	andeq	r1, r0, r4, lsl sp
    4918:	00001d10 	andeq	r1, r0, r0, lsl sp
    491c:	06012100 	streq	r2, [r1], -r0, lsl #2
    4920:	0100001a 	tsteq	r0, sl, lsl r0
    4924:	98010a6d 	stmdals	r1, {r0, r2, r3, r5, r6, r9, fp}
	...
    4930:	02000000 	andeq	r0, r0, #0
    4934:	2201007d 	andcs	r0, r1, #125	; 0x7d
    4938:	185b0101 	ldmdane	fp, {r0, r8}^
    493c:	185b0000 	ldmdane	fp, {}^	; <UNPREDICTABLE>
    4940:	82090000 	andhi	r0, r9, #0
    4944:	a3000601 	movwge	r0, #1537	; 0x601
    4948:	02000011 	andeq	r0, r0, #17
    494c:	00108200 	andseq	r8, r0, r0, lsl #4
    4950:	82010400 	andhi	r0, r1, #0, 8
    4954:	0c000001 	stceq	0, cr0, [r0], {1}
    4958:	00001d66 	andeq	r1, r0, r6, ror #26
    495c:	00000044 	andeq	r0, r0, r4, asr #32
    4960:	00000458 	andeq	r0, r0, r8, asr r4
	...
    496c:	00003159 	andeq	r3, r0, r9, asr r1
    4970:	9c010502 	cfstr32ls	mvfx0, [r1], {2}
    4974:	04000002 	streq	r0, [r0], #-2
    4978:	029c0142 	addseq	r0, ip, #-2147483632	; 0x80000010
    497c:	10030000 	andne	r0, r3, r0
    4980:	72000010 	andvc	r0, r0, #16
    4984:	000ba403 	andeq	sl, fp, r3, lsl #8
    4988:	c6037300 	strgt	r7, [r3], -r0, lsl #6
    498c:	7400000d 	strvc	r0, [r0], #-13
    4990:	000a7803 	andeq	r7, sl, r3, lsl #16
    4994:	98037500 	stmdals	r3, {r8, sl, ip, sp, lr}
    4998:	7600000f 	strvc	r0, [r0], -pc
    499c:	000cb703 	andeq	fp, ip, r3, lsl #14
    49a0:	88037b00 	stmdahi	r3, {r8, r9, fp, ip, sp, lr}
    49a4:	7c000010 	stcvc	0, cr0, [r0], {16}
    49a8:	0009d903 	andeq	sp, r9, r3, lsl #18
    49ac:	48037e00 	stmdami	r3, {r9, sl, fp, ip, sp, lr}
    49b0:	7f00000c 	svcvc	0x0000000c
    49b4:	0008ad04 	andeq	sl, r8, r4, lsl #26
    49b8:	13040000 	movwne	r0, #16384	; 0x4000
    49bc:	0100000b 	tsteq	r0, fp
    49c0:	000feb04 	andeq	lr, pc, r4, lsl #22
    49c4:	78040200 	stmdavc	r4, {r9}
    49c8:	03000008 	movweq	r0, #8
    49cc:	000f4004 	andeq	r4, pc, r4
    49d0:	3d040400 	cfstrscc	mvf0, [r4, #-0]
    49d4:	05000011 	streq	r0, [r0, #-17]	; 0xffffffef
    49d8:	0010df04 	andseq	sp, r0, r4, lsl #30
    49dc:	5a040600 	bpl	1061e4 <_Min_Stack_Size+0x105de4>
    49e0:	07000011 	smladeq	r0, r1, r0, r0
    49e4:	000f0704 	andeq	r0, pc, r4, lsl #14
    49e8:	1d040800 	stcne	8, cr0, [r4, #-0]
    49ec:	09000011 	stmdbeq	r0, {r0, r4}
    49f0:	000e7304 	andeq	r7, lr, r4, lsl #6
    49f4:	b3040a00 	movwlt	r0, #18944	; 0x4a00
    49f8:	0b00000d 	bleq	4a34 <_Min_Stack_Size+0x4634>
    49fc:	000c7804 	andeq	r7, ip, r4, lsl #16
    4a00:	bf040c00 	svclt	0x00040c00
    4a04:	0d00000e 	stceq	0, cr0, [r0, #-56]	; 0xffffffc8
    4a08:	000c2b04 	andeq	r2, ip, r4, lsl #22
    4a0c:	53040e00 	movwpl	r0, #19968	; 0x4e00
    4a10:	0f00000b 	svceq	0x0000000b
    4a14:	00104d04 	andseq	r4, r0, r4, lsl #26
    4a18:	18041000 	stmdane	r4, {ip}
    4a1c:	1100000c 	tstne	r0, ip
    4a20:	00099904 	andeq	r9, r9, r4, lsl #18
    4a24:	86041200 	strhi	r1, [r4], -r0, lsl #4
    4a28:	1300000a 	movwne	r0, #10
    4a2c:	00106d04 	andseq	r6, r0, r4, lsl #26
    4a30:	f1041400 			; <UNDEFINED> instruction: 0xf1041400
    4a34:	15000008 	strne	r0, [r0, #-8]
    4a38:	000a4904 	andeq	r4, sl, r4, lsl #18
    4a3c:	d9041600 	stmdble	r4, {r9, sl, ip}
    4a40:	17000007 	strne	r0, [r0, -r7]
    4a44:	00114604 	andseq	r4, r1, r4, lsl #12
    4a48:	4b041800 	blmi	10aa50 <_Min_Stack_Size+0x10a650>
    4a4c:	1900000f 	stmdbne	r0, {r0, r1, r2, r3}
    4a50:	0007c104 	andeq	ip, r7, r4, lsl #2
    4a54:	55041a00 	strpl	r1, [r4, #-2560]	; 0xfffff600
    4a58:	1b00000c 	blne	4a90 <_Min_Stack_Size+0x4690>
    4a5c:	0010c804 	andseq	ip, r0, r4, lsl #16
    4a60:	bf041c00 	svclt	0x00041c00
    4a64:	1d000011 	stcne	0, cr0, [r0, #-68]	; 0xffffffbc
    4a68:	00086e04 	andeq	r6, r8, r4, lsl #28
    4a6c:	f3041e00 	vcge.f32	d1, d4, d0
    4a70:	1f000007 	svcne	0x00000007
    4a74:	00119e04 	andseq	r9, r1, r4, lsl #28
    4a78:	af042000 	svcge	0x00042000
    4a7c:	21000010 	tstcs	r0, r0, lsl r0
    4a80:	00086104 	andeq	r6, r8, r4, lsl #2
    4a84:	c9042200 	stmdbgt	r4, {r9, sp}
    4a88:	2300000b 	movwcs	r0, #11
    4a8c:	000d1104 	andeq	r1, sp, r4, lsl #2
    4a90:	0c042400 	cfstrseq	mvf2, [r4], {-0}
    4a94:	25000011 	strcs	r0, [r0, #-17]	; 0xffffffef
    4a98:	000f8c04 	andeq	r8, pc, r4, lsl #24
    4a9c:	bc042600 	stclt	6, cr2, [r4], {-0}
    4aa0:	27000010 	smladcs	r0, r0, r0, r0
    4aa4:	000bb304 	andeq	fp, fp, r4, lsl #6
    4aa8:	52042800 	andpl	r2, r4, #0, 16
    4aac:	29000008 	stmdbcs	r0, {r3}
    4ab0:	00107904 	andseq	r7, r0, r4, lsl #18
    4ab4:	8b042a00 	blhi	10f2bc <_Min_Stack_Size+0x10eebc>
    4ab8:	2b00000c 	blcs	4af0 <_Min_Stack_Size+0x46f0>
    4abc:	0010d204 	andseq	sp, r0, r4, lsl #4
    4ac0:	7a042c00 	bvc	10fac8 <_Min_Stack_Size+0x10f6c8>
    4ac4:	2d00000f 	stccs	0, cr0, [r0, #-60]	; 0xffffffc4
    4ac8:	0008b704 	andeq	fp, r8, r4, lsl #14
    4acc:	35042e00 	strcc	r2, [r4, #-3584]	; 0xfffff200
    4ad0:	2f000009 	svccs	0x00000009
    4ad4:	000ed204 	andeq	sp, lr, r4, lsl #4
    4ad8:	e9043000 	stmdb	r4, {ip, sp}
    4adc:	3100000a 	tstcc	r0, sl
    4ae0:	000d0704 	andeq	r0, sp, r4, lsl #14
    4ae4:	ab043200 	blge	1112ec <_Min_Stack_Size+0x110eec>
    4ae8:	33000011 	movwcc	r0, #17
    4aec:	000b4804 	andeq	r4, fp, r4, lsl #16
    4af0:	1b043400 	blne	111af8 <_Min_Stack_Size+0x1116f8>
    4af4:	3500000d 	strcc	r0, [r0, #-13]
    4af8:	0009a504 	andeq	sl, r9, r4, lsl #10
    4afc:	be043600 	cfmadd32lt	mvax0, mvfx3, mvfx4, mvfx0
    4b00:	37000009 	strcc	r0, [r0, -r9]
    4b04:	00083f04 	andeq	r3, r8, r4, lsl #30
    4b08:	e1043800 	tst	r4, r0, lsl #16
    4b0c:	3900000c 	stmdbcc	r0, {r2, r3}
    4b10:	000e2604 	andeq	r2, lr, r4, lsl #12
    4b14:	d8043a00 	stmdale	r4, {r9, fp, ip, sp}
    4b18:	3b00000f 	blcc	4b5c <_Min_Stack_Size+0x475c>
    4b1c:	000cf404 	andeq	pc, ip, r4, lsl #8
    4b20:	20043c00 	andcs	r3, r4, r0, lsl #24
    4b24:	3d00000b 	stccc	0, cr0, [r0, #-44]	; 0xffffffd4
    4b28:	000c3e04 	andeq	r3, ip, r4, lsl #28
    4b2c:	93043e00 	movwls	r3, #19968	; 0x4e00
    4b30:	3f000011 	svccc	0x00000011
    4b34:	000edb04 	andeq	sp, lr, r4, lsl #22
    4b38:	69044000 	stmdbvs	r4, {lr}
    4b3c:	4100000c 	tstmi	r0, ip
    4b40:	00082304 	andeq	r2, r8, r4, lsl #6
    4b44:	0d044200 	sfmeq	f4, 4, [r4, #-0]
    4b48:	4b00000e 	blmi	4b88 <_Min_Stack_Size+0x4788>
    4b4c:	000b3e04 	andeq	r3, fp, r4, lsl #28
    4b50:	16044c00 	strne	r4, [r4], -r0, lsl #24
    4b54:	4d000009 	stcmi	0, cr0, [r0, #-36]	; 0xffffffdc
    4b58:	000e4804 	andeq	r4, lr, r4, lsl #16
    4b5c:	b3044e00 	movwlt	r4, #19968	; 0x4e00
    4b60:	4f00000a 	svcmi	0x0000000a
    4b64:	000a9204 	andeq	r9, sl, r4, lsl #4
    4b68:	72045000 	andvc	r5, r4, #0
    4b6c:	51000011 	tstpl	r0, r1, lsl r0
    4b70:	000c9904 	andeq	r9, ip, r4, lsl #18
    4b74:	c4045200 	strgt	r5, [r4], #-512	; 0xfffffe00
    4b78:	53000008 	movwpl	r0, #8
    4b7c:	00083504 	andeq	r3, r8, r4, lsl #10
    4b80:	06045400 	streq	r5, [r4], -r0, lsl #8
    4b84:	56000009 	strpl	r0, [r0], -r9
    4b88:	000e1604 	andeq	r1, lr, r4, lsl #12
    4b8c:	3f045700 	svccc	0x00045700
    4b90:	58000009 	stmdapl	r0, {r0, r3}
    4b94:	000ad904 	andeq	sp, sl, r4, lsl #18
    4b98:	7e045900 	vmlavc.f16	s10, s8, s0	; <UNPREDICTABLE>
    4b9c:	5a00000e 	bpl	4bdc <_Min_Stack_Size+0x47dc>
    4ba0:	000eb204 	andeq	fp, lr, r4, lsl #4
    4ba4:	31045b00 	tstcc	r4, r0, lsl #22
    4ba8:	5c00000b 	stcpl	0, cr0, [r0], {11}
    4bac:	0009cc04 	andeq	ip, r9, r4, lsl #24
    4bb0:	9f045d00 	svcls	0x00045d00
    4bb4:	5e000010 	mcrpl	0, 0, r0, cr0, cr0, {0}
    4bb8:	000b9704 	andeq	r9, fp, r4, lsl #14
    4bbc:	00045f00 	andeq	r5, r4, r0, lsl #30
    4bc0:	60000008 	andvs	r0, r0, r8
    4bc4:	000ac604 	andeq	ip, sl, r4, lsl #12
    4bc8:	e0046100 	and	r6, r4, r0, lsl #2
    4bcc:	6200000b 	andvs	r0, r0, #11
    4bd0:	0009e504 	andeq	lr, r9, r4, lsl #10
    4bd4:	68046300 	stmdavs	r4, {r8, r9, sp, lr}
    4bd8:	64000009 	strvs	r0, [r0], #-9
    4bdc:	0011b504 	andseq	fp, r1, r4, lsl #10
    4be0:	05006500 	streq	r6, [r0, #-1280]	; 0xfffffb00
    4be4:	009f0601 	addseq	r0, pc, r1, lsl #12
    4be8:	da060000 	ble	184bf0 <_Min_Stack_Size+0x1847f0>
    4bec:	0400001d 	streq	r0, [r0], #-29	; 0xffffffe3
    4bf0:	002903ab 	eoreq	r0, r9, fp, lsr #7
    4bf4:	04060000 	streq	r0, [r6], #-0
    4bf8:	05000007 	streq	r0, [r0, #-7]
    4bfc:	02bb182b 	adcseq	r1, fp, #2818048	; 0x2b0000
    4c00:	01050000 	mrseq	r0, (UNDEF: 5)
    4c04:	00009d08 	andeq	r9, r0, r8, lsl #26
    4c08:	05020500 	streq	r0, [r2, #-1280]	; 0xfffffb00
    4c0c:	00000163 	andeq	r0, r0, r3, ror #2
    4c10:	27070205 	strcs	r0, [r7, -r5, lsl #4]
    4c14:	06000000 	streq	r0, [r0], -r0
    4c18:	00001de4 	andeq	r1, r0, r4, ror #27
    4c1c:	dc184d05 	ldcle	13, cr4, [r8], {5}
    4c20:	05000002 	streq	r0, [r0, #-2]
    4c24:	012f0504 			; <UNDEFINED> instruction: 0x012f0504
    4c28:	dc060000 	stcle	0, cr0, [r6], {-0}
    4c2c:	05000000 	streq	r0, [r0, #-0]
    4c30:	02ef194f 	rsceq	r1, pc, #1294336	; 0x13c000
    4c34:	04050000 	streq	r0, [r5], #-0
    4c38:	00010907 	andeq	r0, r1, r7, lsl #18
    4c3c:	05080500 	streq	r0, [r8, #-1280]	; 0xfffffb00
    4c40:	0000012a 	andeq	r0, r0, sl, lsr #2
    4c44:	04070805 	streq	r0, [r7], #-2053	; 0xfffff7fb
    4c48:	07000001 	streq	r0, [r0, -r1]
    4c4c:	6e690504 	cdpvs	5, 6, cr0, cr9, cr4, {0}
    4c50:	04050074 	streq	r0, [r5], #-116	; 0xffffff8c
    4c54:	00010e07 	andeq	r0, r1, r7, lsl #28
    4c58:	07060600 	streq	r0, [r6, -r0, lsl #12]
    4c5c:	18060000 	stmdane	r6, {}	; <UNPREDICTABLE>
    4c60:	0002af13 	andeq	sl, r2, r3, lsl pc
    4c64:	03120800 	tsteq	r2, #0, 16
    4c68:	e6060000 	str	r0, [r6], -r0
    4c6c:	0600001d 			; <UNDEFINED> instruction: 0x0600001d
    4c70:	02d0132c 	sbcseq	r1, r0, #44, 6	; 0xb0000000
    4c74:	de060000 	cdple	0, 0, cr0, cr6, cr0, {0}
    4c78:	06000000 	streq	r0, [r0], -r0
    4c7c:	02e31430 	rsceq	r1, r3, #48, 8	; 0x30000000
    4c80:	2f080000 	svccs	0x00080000
    4c84:	09000003 	stmdbeq	r0, {r0, r1}
    4c88:	0000033b 	andeq	r0, r0, fp, lsr r3
    4c8c:	020e040a 	andeq	r0, lr, #167772160	; 0xa000000
    4c90:	2b090196 	blcs	2452f0 <_Min_Stack_Size+0x244ef0>
    4c94:	0b000004 	bleq	4cac <_Min_Stack_Size+0x48ac>
    4c98:	00001d57 	andeq	r1, r0, r7, asr sp
    4c9c:	12019802 	andne	r9, r1, #131072	; 0x20000
    4ca0:	0000043b 	andeq	r0, r0, fp, lsr r4
    4ca4:	0b002302 	bleq	d8b4 <_Min_Stack_Size+0xd4b4>
    4ca8:	00000524 	andeq	r0, r0, r4, lsr #10
    4cac:	12019902 	andne	r9, r1, #32768	; 0x8000
    4cb0:	00000440 	andeq	r0, r0, r0, asr #8
    4cb4:	0b202302 	bleq	80d8c4 <_Min_Stack_Size+0x80d4c4>
    4cb8:	00001d02 	andeq	r1, r0, r2, lsl #26
    4cbc:	12019a02 	andne	r9, r1, #8192	; 0x2000
    4cc0:	0000043b 	andeq	r0, r0, fp, lsr r4
    4cc4:	01802303 	orreq	r2, r0, r3, lsl #6
    4cc8:	00052e0b 	andeq	r2, r5, fp, lsl #28
    4ccc:	019b0200 	orrseq	r0, fp, r0, lsl #4
    4cd0:	00044012 	andeq	r4, r4, r2, lsl r0
    4cd4:	a0230300 	eorge	r0, r3, r0, lsl #6
    4cd8:	1aa60b01 	bne	fe9878e4 <BootRAM+0xcb78085>
    4cdc:	9c020000 	stcls	0, cr0, [r2], {-0}
    4ce0:	043b1201 	ldrteq	r1, [fp], #-513	; 0xfffffdff
    4ce4:	23030000 	movwcs	r0, #12288	; 0x3000
    4ce8:	380b0280 	stmdacc	fp, {r7, r9}
    4cec:	02000005 	andeq	r0, r0, #5
    4cf0:	4012019d 	mulsmi	r2, sp, r1
    4cf4:	03000004 	movweq	r0, #4
    4cf8:	0b02a023 	bleq	acd8c <_Min_Stack_Size+0xac98c>
    4cfc:	00001a5c 	andeq	r1, r0, ip, asr sl
    4d00:	12019e02 	andne	r9, r1, #2, 28
    4d04:	0000043b 	andeq	r0, r0, fp, lsr r4
    4d08:	03802303 	orreq	r2, r0, #201326592	; 0xc000000
    4d0c:	0005420b 	andeq	r4, r5, fp, lsl #4
    4d10:	019f0200 	orrseq	r0, pc, r0, lsl #4
    4d14:	00044012 	andeq	r4, r4, r2, lsl r0
    4d18:	a0230300 	eorge	r0, r3, r0, lsl #6
    4d1c:	1cbb0b03 	fldmiaxne	fp!, {d0}	;@ Deprecated
    4d20:	a0020000 	andge	r0, r2, r0
    4d24:	043b1201 	ldrteq	r1, [fp], #-513	; 0xfffffdff
    4d28:	23030000 	movwcs	r0, #12288	; 0x3000
    4d2c:	4c0b0480 	cfstrsmi	mvf0, [fp], {128}	; 0x80
    4d30:	02000005 	andeq	r0, r0, #5
    4d34:	501201a1 	andspl	r0, r2, r1, lsr #3
    4d38:	03000004 	movweq	r0, #4
    4d3c:	0c04a023 	stceq	0, cr10, [r4], {35}	; 0x23
    4d40:	02005049 	andeq	r5, r0, #73	; 0x49
    4d44:	701201a2 	andsvc	r0, r2, r2, lsr #3
    4d48:	03000004 	movweq	r0, #4
    4d4c:	0b068023 	bleq	1a4de0 <_Min_Stack_Size+0x1a49e0>
    4d50:	00000556 	andeq	r0, r0, r6, asr r5
    4d54:	1201a302 	andne	sl, r1, #134217728	; 0x8000000
    4d58:	00000475 	andeq	r0, r0, r5, ror r4
    4d5c:	07f02303 	ldrbeq	r2, [r0, r3, lsl #6]!
    4d60:	001e870b 	andseq	r8, lr, fp, lsl #14
    4d64:	01a40200 			; <UNDEFINED> instruction: 0x01a40200
    4d68:	00033b12 	andeq	r3, r3, r2, lsl fp
    4d6c:	80230300 	eorhi	r0, r3, r0, lsl #6
    4d70:	3b0d001c 	blcc	344de8 <_Min_Stack_Size+0x3449e8>
    4d74:	3b000003 	blcc	4d88 <_Min_Stack_Size+0x4988>
    4d78:	0e000004 	cdpeq	0, 0, cr0, cr0, cr4, {0}
    4d7c:	0000030b 	andeq	r0, r0, fp, lsl #6
    4d80:	2b080007 	blcs	204da4 <_Min_Stack_Size+0x2049a4>
    4d84:	0d000004 	stceq	0, cr0, [r0, #-16]
    4d88:	0000032f 	andeq	r0, r0, pc, lsr #6
    4d8c:	00000450 	andeq	r0, r0, r0, asr r4
    4d90:	00030b0e 	andeq	r0, r3, lr, lsl #22
    4d94:	0d001700 	stceq	7, cr1, [r0, #-0]
    4d98:	0000032f 	andeq	r0, r0, pc, lsr #6
    4d9c:	00000460 	andeq	r0, r0, r0, ror #8
    4da0:	00030b0e 	andeq	r0, r3, lr, lsl #22
    4da4:	0d003700 	stceq	7, cr3, [r0, #-0]
    4da8:	0000031e 	andeq	r0, r0, lr, lsl r3
    4dac:	00000470 	andeq	r0, r0, r0, ror r4
    4db0:	00030b0e 	andeq	r0, r3, lr, lsl #22
    4db4:	0800ef00 	stmdaeq	r0, {r8, r9, sl, fp, sp, lr, pc}
    4db8:	00000460 	andeq	r0, r0, r0, ror #8
    4dbc:	00032f0d 	andeq	r2, r3, sp, lsl #30
    4dc0:	00048600 	andeq	r8, r4, r0, lsl #12
    4dc4:	030b0f00 	movweq	r0, #48896	; 0xbf00
    4dc8:	02830000 	addeq	r0, r3, #0
    4dcc:	1d5c1000 	ldclne	0, cr1, [ip, #-0]
    4dd0:	a5020000 	strge	r0, [r2, #-0]
    4dd4:	03450401 	movteq	r0, #21505	; 0x5401
    4dd8:	8c110000 	ldchi	0, cr0, [r1], {-0}
    4ddc:	0901b802 	stmdbeq	r1, {r1, fp, ip, sp, pc}
    4de0:	000005ef 	andeq	r0, r0, pc, ror #11
    4de4:	0006d20b 	andeq	sp, r6, fp, lsl #4
    4de8:	01ba0200 			; <UNDEFINED> instruction: 0x01ba0200
    4dec:	00034012 	andeq	r4, r3, r2, lsl r0
    4df0:	00230200 	eoreq	r0, r3, r0, lsl #4
    4df4:	0006fa0b 	andeq	pc, r6, fp, lsl #20
    4df8:	01bb0200 			; <UNDEFINED> instruction: 0x01bb0200
    4dfc:	00033b12 	andeq	r3, r3, r2, lsl fp
    4e00:	04230200 	strteq	r0, [r3], #-512	; 0xfffffe00
    4e04:	00074e0b 	andeq	r4, r7, fp, lsl #28
    4e08:	01bc0200 			; <UNDEFINED> instruction: 0x01bc0200
    4e0c:	00033b12 	andeq	r3, r3, r2, lsl fp
    4e10:	08230200 	stmdaeq	r3!, {r9}
    4e14:	0007350b 	andeq	r3, r7, fp, lsl #10
    4e18:	01bd0200 			; <UNDEFINED> instruction: 0x01bd0200
    4e1c:	00033b12 	andeq	r3, r3, r2, lsl fp
    4e20:	0c230200 	sfmeq	f0, 4, [r3], #-0
    4e24:	5243530c 	subpl	r5, r3, #12, 6	; 0x30000000
    4e28:	01be0200 			; <UNDEFINED> instruction: 0x01be0200
    4e2c:	00033b12 	andeq	r3, r3, r2, lsl fp
    4e30:	10230200 	eorne	r0, r3, r0, lsl #4
    4e34:	5243430c 	subpl	r4, r3, #12, 6	; 0x30000000
    4e38:	01bf0200 			; <UNDEFINED> instruction: 0x01bf0200
    4e3c:	00033b12 	andeq	r3, r3, r2, lsl fp
    4e40:	14230200 	strtne	r0, [r3], #-512	; 0xfffffe00
    4e44:	5048530c 	subpl	r5, r8, ip, lsl #6
    4e48:	01c00200 	biceq	r0, r0, r0, lsl #4
    4e4c:	0005ff12 	andeq	pc, r5, r2, lsl pc	; <UNPREDICTABLE>
    4e50:	18230200 	stmdane	r3!, {r9}
    4e54:	00073b0b 	andeq	r3, r7, fp, lsl #22
    4e58:	01c10200 	biceq	r0, r1, r0, lsl #4
    4e5c:	00033b12 	andeq	r3, r3, r2, lsl fp
    4e60:	24230200 	strtcs	r0, [r3], #-512	; 0xfffffe00
    4e64:	00070e0b 	andeq	r0, r7, fp, lsl #28
    4e68:	01c20200 	biceq	r0, r2, r0, lsl #4
    4e6c:	00033b12 	andeq	r3, r3, r2, lsl fp
    4e70:	28230200 	stmdacs	r3!, {r9}
    4e74:	0007830b 	andeq	r8, r7, fp, lsl #6
    4e78:	01c30200 	biceq	r0, r3, r0, lsl #4
    4e7c:	00033b12 	andeq	r3, r3, r2, lsl fp
    4e80:	2c230200 	sfmcs	f0, 4, [r3], #-0
    4e84:	00076e0b 	andeq	r6, r7, fp, lsl #28
    4e88:	01c40200 	biceq	r0, r4, r0, lsl #4
    4e8c:	00033b12 	andeq	r3, r3, r2, lsl fp
    4e90:	30230200 	eorcc	r0, r3, r0, lsl #4
    4e94:	0007410b 	andeq	r4, r7, fp, lsl #2
    4e98:	01c50200 	biceq	r0, r5, r0, lsl #4
    4e9c:	00033b12 	andeq	r3, r3, r2, lsl fp
    4ea0:	34230200 	strtcc	r0, [r3], #-512	; 0xfffffe00
    4ea4:	0006ff0b 	andeq	pc, r6, fp, lsl #30
    4ea8:	01c60200 	biceq	r0, r6, r0, lsl #4
    4eac:	00033b12 	andeq	r3, r3, r2, lsl fp
    4eb0:	38230200 	stmdacc	r3!, {r9}
    4eb4:	0007a40b 	andeq	sl, r7, fp, lsl #8
    4eb8:	01c70200 	biceq	r0, r7, r0, lsl #4
    4ebc:	00033b12 	andeq	r3, r3, r2, lsl fp
    4ec0:	3c230200 	sfmcc	f0, 4, [r3], #-0
    4ec4:	5246500c 	subpl	r5, r6, #12
    4ec8:	01c80200 	biceq	r0, r8, r0, lsl #4
    4ecc:	00061912 	andeq	r1, r6, r2, lsl r9
    4ed0:	40230200 	eormi	r0, r3, r0, lsl #4
    4ed4:	5246440c 	subpl	r4, r6, #12, 8	; 0xc000000
    4ed8:	01c90200 	biceq	r0, r9, r0, lsl #4
    4edc:	00034012 	andeq	r4, r3, r2, lsl r0
    4ee0:	48230200 	stmdami	r3!, {r9}
    4ee4:	5244410c 	subpl	r4, r4, #12, 2
    4ee8:	01ca0200 	biceq	r0, sl, r0, lsl #4
    4eec:	00034012 	andeq	r4, r3, r2, lsl r0
    4ef0:	4c230200 	sfmmi	f0, 4, [r3], #-0
    4ef4:	00079f0b 	andeq	r9, r7, fp, lsl #30
    4ef8:	01cb0200 	biceq	r0, fp, r0, lsl #4
    4efc:	00063312 	andeq	r3, r6, r2, lsl r3
    4f00:	50230200 	eorpl	r0, r3, r0, lsl #4
    4f04:	0007690b 	andeq	r6, r7, fp, lsl #18
    4f08:	01cc0200 	biceq	r0, ip, r0, lsl #4
    4f0c:	00064d12 	andeq	r4, r6, r2, lsl sp
    4f10:	60230200 	eorvs	r0, r3, r0, lsl #4
    4f14:	0005240b 	andeq	r2, r5, fp, lsl #8
    4f18:	01cd0200 	biceq	r0, sp, r0, lsl #4
    4f1c:	00065212 	andeq	r5, r6, r2, lsl r2
    4f20:	74230200 	strtvc	r0, [r3], #-512	; 0xfffffe00
    4f24:	0007a90b 	andeq	sl, r7, fp, lsl #18
    4f28:	01ce0200 	biceq	r0, lr, r0, lsl #4
    4f2c:	00033b12 	andeq	r3, r3, r2, lsl fp
    4f30:	88230300 	stmdahi	r3!, {r8, r9}
    4f34:	1e0d0001 	cdpne	0, 0, cr0, cr13, cr1, {0}
    4f38:	ff000003 			; <UNDEFINED> instruction: 0xff000003
    4f3c:	0e000005 	cdpeq	0, 0, cr0, cr0, cr5, {0}
    4f40:	0000030b 	andeq	r0, r0, fp, lsl #6
    4f44:	ef08000b 	svc	0x0008000b
    4f48:	0d000005 	stceq	0, cr0, [r0, #-20]	; 0xffffffec
    4f4c:	00000340 	andeq	r0, r0, r0, asr #6
    4f50:	00000614 	andeq	r0, r0, r4, lsl r6
    4f54:	00030b0e 	andeq	r0, r3, lr, lsl #22
    4f58:	09000100 	stmdbeq	r0, {r8}
    4f5c:	00000604 	andeq	r0, r0, r4, lsl #12
    4f60:	00061408 	andeq	r1, r6, r8, lsl #8
    4f64:	03400d00 	movteq	r0, #3328	; 0xd00
    4f68:	062e0000 	strteq	r0, [lr], -r0
    4f6c:	0b0e0000 	bleq	384f74 <_Min_Stack_Size+0x384b74>
    4f70:	03000003 	movweq	r0, #3
    4f74:	061e0900 	ldreq	r0, [lr], -r0, lsl #18
    4f78:	2e080000 	cdpcs	0, 0, cr0, cr8, cr0, {0}
    4f7c:	0d000006 	stceq	0, cr0, [r0, #-24]	; 0xffffffe8
    4f80:	00000340 	andeq	r0, r0, r0, asr #6
    4f84:	00000648 	andeq	r0, r0, r8, asr #12
    4f88:	00030b0e 	andeq	r0, r3, lr, lsl #22
    4f8c:	09000400 	stmdbeq	r0, {sl}
    4f90:	00000638 	andeq	r0, r0, r8, lsr r6
    4f94:	00064808 	andeq	r4, r6, r8, lsl #16
    4f98:	032f0d00 			; <UNDEFINED> instruction: 0x032f0d00
    4f9c:	06620000 	strbteq	r0, [r2], -r0
    4fa0:	0b0e0000 	bleq	384fa8 <_Min_Stack_Size+0x384ba8>
    4fa4:	04000003 	streq	r0, [r0], #-3
    4fa8:	06e31000 	strbteq	r1, [r3], r0
    4fac:	cf020000 	svcgt	0x00020000
    4fb0:	04930301 	ldreq	r0, [r3], #769	; 0x301
    4fb4:	10110000 	andsne	r0, r1, r0
    4fb8:	0902f702 	stmdbeq	r2, {r1, r8, r9, sl, ip, sp, lr, pc}
    4fbc:	000006ba 			; <UNDEFINED> instruction: 0x000006ba
    4fc0:	00109a0b 	andseq	r9, r0, fp, lsl #20
    4fc4:	02f90200 	rscseq	r0, r9, #0, 4
    4fc8:	00033b12 	andeq	r3, r3, r2, lsl fp
    4fcc:	00230200 	eoreq	r0, r3, r0, lsl #4
    4fd0:	000ca60b 	andeq	sl, ip, fp, lsl #12
    4fd4:	02fa0200 	rscseq	r0, sl, #0, 4
    4fd8:	00033b12 	andeq	r3, r3, r2, lsl fp
    4fdc:	04230200 	strteq	r0, [r3], #-512	; 0xfffffe00
    4fe0:	4c41560c 	mcrrmi	6, 0, r5, r1, cr12
    4fe4:	02fb0200 	rscseq	r0, fp, #0, 4
    4fe8:	00033b12 	andeq	r3, r3, r2, lsl fp
    4fec:	08230200 	stmdaeq	r3!, {r9}
    4ff0:	000b660b 	andeq	r6, fp, fp, lsl #12
    4ff4:	02fc0200 	rscseq	r0, ip, #0, 4
    4ff8:	00034012 	andeq	r4, r3, r2, lsl r0
    4ffc:	0c230200 	sfmeq	f0, 4, [r3], #-0
    5000:	0bd31000 	bleq	ff4c9008 <BootRAM+0xd6b97a9>
    5004:	fd020000 	stc2	0, cr0, [r2, #-0]
    5008:	066f0302 	strbteq	r0, [pc], -r2, lsl #6
    500c:	2c110000 	ldccs	0, cr0, [r1], {-0}
    5010:	0904b802 	stmdbeq	r4, {r1, fp, ip, sp, pc}
    5014:	00000782 	andeq	r0, r0, r2, lsl #15
    5018:	001e190b 	andseq	r1, lr, fp, lsl #18
    501c:	04ba0200 	ldrteq	r0, [sl], #512	; 0x200
    5020:	00034012 	andeq	r4, r3, r2, lsl r0
    5024:	00230200 	eoreq	r0, r3, r0, lsl #4
    5028:	00109a0b 	andseq	r9, r0, fp, lsl #20
    502c:	04bb0200 	ldrteq	r0, [fp], #512	; 0x200
    5030:	00033b12 	andeq	r3, r3, r2, lsl fp
    5034:	04230200 	strteq	r0, [r3], #-512	; 0xfffffe00
    5038:	524e520c 	subpl	r5, lr, #12, 4	; 0xc0000000
    503c:	04bc0200 	ldrteq	r0, [ip], #512	; 0x200
    5040:	00033b12 	andeq	r3, r3, r2, lsl fp
    5044:	08230200 	stmdaeq	r3!, {r9}
    5048:	001db30b 	andseq	fp, sp, fp, lsl #6
    504c:	04bd0200 	ldrteq	r0, [sp], #512	; 0x200
    5050:	00033b12 	andeq	r3, r3, r2, lsl fp
    5054:	0c230200 	sfmeq	f0, 4, [r3], #-0
    5058:	001df80b 	andseq	pc, sp, fp, lsl #16
    505c:	04be0200 	ldrteq	r0, [lr], #512	; 0x200
    5060:	00033b12 	andeq	r3, r3, r2, lsl fp
    5064:	10230200 	eorne	r0, r3, r0, lsl #4
    5068:	001b840b 	andseq	r8, fp, fp, lsl #8
    506c:	04bf0200 	ldrteq	r0, [pc], #512	; 5074 <_Min_Stack_Size+0x4c74>
    5070:	00033b12 	andeq	r3, r3, r2, lsl fp
    5074:	14230200 	strtne	r0, [r3], #-512	; 0xfffffe00
    5078:	001b1b0b 	andseq	r1, fp, fp, lsl #22
    507c:	04c00200 	strbeq	r0, [r0], #512	; 0x200
    5080:	00033b12 	andeq	r3, r3, r2, lsl fp
    5084:	18230200 	stmdane	r3!, {r9}
    5088:	001b8c0b 	andseq	r8, fp, fp, lsl #24
    508c:	04c10200 	strbeq	r0, [r1], #512	; 0x200
    5090:	00033b12 	andeq	r3, r3, r2, lsl fp
    5094:	1c230200 	sfmne	f0, 4, [r3], #-0
    5098:	001b230b 	andseq	r2, fp, fp, lsl #6
    509c:	04c20200 	strbeq	r0, [r2], #512	; 0x200
    50a0:	00033b12 	andeq	r3, r3, r2, lsl fp
    50a4:	20230200 	eorcs	r0, r3, r0, lsl #4
    50a8:	001b940b 	andseq	r9, fp, fp, lsl #8
    50ac:	04c30200 	strbeq	r0, [r3], #512	; 0x200
    50b0:	00033b12 	andeq	r3, r3, r2, lsl fp
    50b4:	24230200 	strtcs	r0, [r3], #-512	; 0xfffffe00
    50b8:	001a9e0b 	andseq	r9, sl, fp, lsl #28
    50bc:	04c40200 	strbeq	r0, [r4], #512	; 0x200
    50c0:	00033b12 	andeq	r3, r3, r2, lsl fp
    50c4:	28230200 	stmdacs	r3!, {r9}
    50c8:	1c0f1000 	stcne	0, cr1, [pc], {-0}
    50cc:	c5020000 	strgt	r0, [r2, #-0]
    50d0:	06c70304 	strbeq	r0, [r7], r4, lsl #6
    50d4:	08050000 	stmdaeq	r5, {}	; <UNPREDICTABLE>
    50d8:	00017604 	andeq	r7, r1, r4, lsl #12
    50dc:	07101200 	ldreq	r1, [r0, -r0, lsl #4]
    50e0:	08450930 	stmdaeq	r5, {r4, r5, r8, fp}^
    50e4:	65130000 	ldrvs	r0, [r3, #-0]
    50e8:	0700001e 	smladeq	r0, lr, r0, r0
    50ec:	03121a32 	tsteq	r2, #204800	; 0x32000
    50f0:	23020000 	movwcs	r0, #8192	; 0x2000
    50f4:	15e11300 	strbne	r1, [r1, #768]!	; 0x300
    50f8:	34070000 	strcc	r0, [r7], #-0
    50fc:	0003121a 	andeq	r1, r3, sl, lsl r2
    5100:	01230200 			; <UNDEFINED> instruction: 0x01230200
    5104:	001a6e13 	andseq	r6, sl, r3, lsl lr
    5108:	1a360700 	bne	d86d10 <_Min_Stack_Size+0xd86910>
    510c:	0000032f 	andeq	r0, r0, pc, lsr #6
    5110:	13042302 	movwne	r2, #17154	; 0x4302
    5114:	00001d4c 	andeq	r1, r0, ip, asr #26
    5118:	121a3707 	andsne	r3, sl, #1835008	; 0x1c0000
    511c:	02000003 	andeq	r0, r0, #3
    5120:	a7130823 	ldrge	r0, [r3, -r3, lsr #16]
    5124:	0700001e 	smladeq	r0, lr, r0, r0
    5128:	03121a39 	tsteq	r2, #233472	; 0x39000
    512c:	23020000 	movwcs	r0, #8192	; 0x2000
    5130:	1a611309 	bne	1849d5c <_Min_Stack_Size+0x184995c>
    5134:	3b070000 	blcc	1c513c <_Min_Stack_Size+0x1c4d3c>
    5138:	0003121a 	andeq	r1, r3, sl, lsl r2
    513c:	0a230200 	beq	8c5944 <_Min_Stack_Size+0x8c5544>
    5140:	001c2c13 	andseq	r2, ip, r3, lsl ip
    5144:	1a3d0700 	bne	f46d4c <_Min_Stack_Size+0xf4694c>
    5148:	00000312 	andeq	r0, r0, r2, lsl r3
    514c:	130b2302 	movwne	r2, #45826	; 0xb302
    5150:	00001d40 	andeq	r1, r0, r0, asr #26
    5154:	121a3f07 	andsne	r3, sl, #7, 30
    5158:	02000003 	andeq	r0, r0, #3
    515c:	8c130c23 	ldchi	12, cr0, [r3], {35}	; 0x23
    5160:	0700001e 	smladeq	r0, lr, r0, r0
    5164:	03121a41 	tsteq	r2, #266240	; 0x41000
    5168:	23020000 	movwcs	r0, #8192	; 0x2000
    516c:	1bd0130d 	blne	ff409da8 <BootRAM+0xd5fa549>
    5170:	43070000 	movwmi	r0, #28672	; 0x7000
    5174:	0003121a 	andeq	r1, r3, sl, lsl r2
    5178:	0e230200 	cdpeq	2, 2, cr0, cr3, cr0, {0}
    517c:	001aab13 	andseq	sl, sl, r3, lsl fp
    5180:	1a450700 	bne	1146d88 <_Min_Stack_Size+0x1146988>
    5184:	00000312 	andeq	r0, r0, r2, lsl r3
    5188:	000f2302 	andeq	r2, pc, r2, lsl #6
    518c:	001bb906 	andseq	fp, fp, r6, lsl #18
    5190:	02470700 	subeq	r0, r7, #0, 14
    5194:	00000796 	muleq	r0, r6, r7
    5198:	1e2b0114 	mcrne	1, 1, r0, cr11, cr4, {0}
    519c:	cd010000 	stcgt	0, cr0, [r1, #-0]
    51a0:	00010601 	andeq	r0, r1, r1, lsl #12
    51a4:	00000000 	andeq	r0, r0, r0
    51a8:	02000000 	andeq	r0, r0, #0
    51ac:	7c01007d 	stcvc	0, cr0, [r1], {125}	; 0x7d
    51b0:	15000008 	strne	r0, [r0, #-8]
    51b4:	00001b9c 	muleq	r0, ip, fp
    51b8:	3301cd01 	movwcc	ip, #7425	; 0x1d01
    51bc:	0000087c 	andeq	r0, r0, ip, ror r8
    51c0:	16005001 	strne	r5, [r0], -r1
    51c4:	00084504 	andeq	r4, r8, r4, lsl #10
    51c8:	0b011400 	bleq	4a1d0 <_Min_Stack_Size+0x49dd0>
    51cc:	0100001b 	tsteq	r0, fp, lsl r0
    51d0:	010601bd 			; <UNDEFINED> instruction: 0x010601bd
	...
    51dc:	01007d02 	tsteq	r0, r2, lsl #26
    51e0:	000008b4 			; <UNDEFINED> instruction: 0x000008b4
    51e4:	00118517 	andseq	r8, r1, r7, lsl r5
    51e8:	00000000 	andeq	r0, r0, r0
    51ec:	00000200 	andeq	r0, r0, r0, lsl #4
    51f0:	00000000 	andeq	r0, r0, r0
    51f4:	c0010000 	andgt	r0, r1, r0
    51f8:	14000301 	strne	r0, [r0], #-769	; 0xfffffcff
    51fc:	001e5d01 	andseq	r5, lr, r1, lsl #26
    5200:	01ae0100 			; <UNDEFINED> instruction: 0x01ae0100
    5204:	00000106 	andeq	r0, r0, r6, lsl #2
    5208:	00000000 	andeq	r0, r0, r0
    520c:	7d020000 	stcvc	0, cr0, [r2, #-0]
    5210:	09110100 	ldmdbeq	r1, {r8}
    5214:	2b180000 	blcs	60521c <_Min_Stack_Size+0x604e1c>
    5218:	0100001b 	tsteq	r0, fp, lsl r0
    521c:	2f1e01ae 	svccs	0x001e01ae
    5220:	36000003 	strcc	r0, [r0], -r3
    5224:	3200001d 	andcc	r0, r0, #29
    5228:	1700001d 	smladne	r0, sp, r0, r0
    522c:	00001190 	muleq	r0, r0, r1
    5230:	00000000 	andeq	r0, r0, r0
    5234:	00000001 	andeq	r0, r0, r1
    5238:	00000000 	andeq	r0, r0, r0
    523c:	01b40100 			; <UNDEFINED> instruction: 0x01b40100
    5240:	119b1703 	orrsne	r1, fp, r3, lsl #14
    5244:	00000000 	andeq	r0, r0, r0
    5248:	00010000 	andeq	r0, r1, r0
    524c:	00000000 	andeq	r0, r0, r0
    5250:	01000000 	mrseq	r0, (UNDEF: 0)
    5254:	000301b5 			; <UNDEFINED> instruction: 0x000301b5
    5258:	1d2b0119 	stfnes	f0, [fp, #-100]!	; 0xffffff9c
    525c:	9b010000 	blls	45264 <_Min_Stack_Size+0x44e64>
    5260:	00010d01 	andeq	r0, r1, r1, lsl #26
    5264:	00000000 	andeq	r0, r0, r0
    5268:	02000000 	andeq	r0, r0, #0
    526c:	1a01007d 	bne	45468 <_Min_Stack_Size+0x45068>
    5270:	001ac601 	andseq	ip, sl, r1, lsl #12
    5274:	01920100 	orrseq	r0, r2, r0, lsl #2
    5278:	00000106 	andeq	r0, r0, r6, lsl #2
    527c:	00000000 	andeq	r0, r0, r0
    5280:	1d570000 	ldclne	0, cr0, [r7, #-0]
    5284:	4e010000 	cdpmi	0, 0, cr0, cr1, cr0, {0}
    5288:	1b000009 	blne	52b4 <_Min_Stack_Size+0x4eb4>
    528c:	00000000 	andeq	r0, r0, r0
    5290:	00000911 	andeq	r0, r0, r1, lsl r9
    5294:	fd011400 	stc2	4, cr1, [r1, #-0]
    5298:	0100001d 	tsteq	r0, sp, lsl r0
    529c:	01060180 	smlabbeq	r6, r0, r1, r0
	...
    52a8:	01007d02 	tsteq	r0, r2, lsl #26
    52ac:	00000979 	andeq	r0, r0, r9, ror r9
    52b0:	0003f415 	andeq	pc, r3, r5, lsl r4	; <UNPREDICTABLE>
    52b4:	01800100 	orreq	r0, r0, r0, lsl #2
    52b8:	00032f2b 	andeq	r2, r3, fp, lsr #30
    52bc:	00500100 	subseq	r0, r0, r0, lsl #2
    52c0:	1c78011c 	ldfnee	f0, [r8], #-112	; 0xffffff90
    52c4:	72010000 	andvc	r0, r1, #0
    52c8:	2f010a01 	svccs	0x00010a01
    52cc:	00000003 	andeq	r0, r0, r3
    52d0:	00000000 	andeq	r0, r0, r0
    52d4:	02000000 	andeq	r0, r0, #0
    52d8:	d201007d 	andle	r0, r1, #125	; 0x7d
    52dc:	18000009 	stmdane	r0, {r0, r3}
    52e0:	00000bbd 			; <UNDEFINED> instruction: 0x00000bbd
    52e4:	27017201 	strcs	r7, [r1, -r1, lsl #4]
    52e8:	000002a3 	andeq	r0, r0, r3, lsr #5
    52ec:	00001d7b 	andeq	r1, r0, fp, ror sp
    52f0:	00001d77 	andeq	r1, r0, r7, ror sp
    52f4:	0010891d 	andseq	r8, r0, sp, lsl r9
    52f8:	00000000 	andeq	r0, r0, r0
    52fc:	00000200 	andeq	r0, r0, r0, lsl #4
    5300:	00000000 	andeq	r0, r0, r0
    5304:	75010000 	strvc	r0, [r1, #-0]
    5308:	9c1e0a01 			; <UNDEFINED> instruction: 0x9c1e0a01
    530c:	a0000010 	andge	r0, r0, r0, lsl r0
    5310:	9c00001d 	stcls	0, cr0, [r0], {29}
    5314:	0000001d 	andeq	r0, r0, sp, lsl r0
    5318:	f2011400 	vshl.s8	d1, d0, d1
    531c:	0100001a 	tsteq	r0, sl, lsl r0
    5320:	01060161 	tsteq	r6, r1, ror #2
	...
    532c:	01007d02 	tsteq	r0, r2, lsl #26
    5330:	00000a27 	andeq	r0, r0, r7, lsr #20
    5334:	000bbd18 	andeq	fp, fp, r8, lsl sp
    5338:	01610100 	cmneq	r1, r0, lsl #2
    533c:	0002a329 	andeq	sl, r2, r9, lsr #6
    5340:	001dc500 	andseq	ip, sp, r0, lsl #10
    5344:	001dc100 	andseq	ip, sp, r0, lsl #2
    5348:	10aa1d00 	adcne	r1, sl, r0, lsl #26
    534c:	00000000 	andeq	r0, r0, r0
    5350:	00030000 	andeq	r0, r3, r0
    5354:	00000000 	andeq	r0, r0, r0
    5358:	01000000 	mrseq	r0, (UNDEF: 0)
    535c:	1e030167 	adfnesz	f0, f3, f7
    5360:	000010b9 	strheq	r1, [r0], -r9
    5364:	00001dea 	andeq	r1, r0, sl, ror #27
    5368:	00001de6 	andeq	r1, r0, r6, ror #27
    536c:	011c0000 	tsteq	ip, r0
    5370:	00001bee 	andeq	r1, r0, lr, ror #23
    5374:	0a015101 	beq	59780 <_Min_Stack_Size+0x59380>
    5378:	00032f01 	andeq	r2, r3, r1, lsl #30
	...
    5384:	007d0200 	rsbseq	r0, sp, r0, lsl #4
    5388:	000a8001 	andeq	r8, sl, r1
    538c:	0bbd1800 	bleq	fef4b394 <BootRAM+0xd13bb35>
    5390:	51010000 	mrspl	r0, (UNDEF: 1)
    5394:	02a32b01 	adceq	r2, r3, #1024	; 0x400
    5398:	1e0f0000 	cdpne	0, 0, cr0, cr15, cr0, {0}
    539c:	1e0b0000 	cdpne	0, 0, cr0, cr11, cr0, {0}
    53a0:	e41d0000 	ldr	r0, [sp], #-0
    53a4:	00000010 	andeq	r0, r0, r0, lsl r0
    53a8:	03000000 	movweq	r0, #0
	...
    53b4:	0a015701 	beq	5afc0 <_Min_Stack_Size+0x5abc0>
    53b8:	0010f71e 	andseq	pc, r0, lr, lsl r7	; <UNPREDICTABLE>
    53bc:	001e3400 	andseq	r3, lr, r0, lsl #8
    53c0:	001e3000 	andseq	r3, lr, r0
    53c4:	14000000 	strne	r0, [r0], #-0
    53c8:	001c9e01 	andseq	r9, ip, r1, lsl #28
    53cc:	013f0100 	teqeq	pc, r0, lsl #2
    53d0:	00000106 	andeq	r0, r0, r6, lsl #2
    53d4:	00000000 	andeq	r0, r0, r0
    53d8:	7d020000 	stcvc	0, cr0, [r2, #-0]
    53dc:	0ad50100 	beq	ff5457e4 <BootRAM+0xd735f85>
    53e0:	bd180000 	ldclt	0, cr0, [r8, #-0]
    53e4:	0100000b 	tsteq	r0, fp
    53e8:	a327013f 			; <UNDEFINED> instruction: 0xa327013f
    53ec:	59000002 	stmdbpl	r0, {r1}
    53f0:	5500001e 	strpl	r0, [r0, #-30]	; 0xffffffe2
    53f4:	1d00001e 	stcne	0, cr0, [r0, #-120]	; 0xffffff88
    53f8:	000010c7 	andeq	r1, r0, r7, asr #1
    53fc:	00000000 	andeq	r0, r0, r0
    5400:	00000003 	andeq	r0, r0, r3
    5404:	00000000 	andeq	r0, r0, r0
    5408:	01450100 	mrseq	r0, (UNDEF: 85)
    540c:	10d61e03 	sbcsne	r1, r6, r3, lsl #28
    5410:	1e7e0000 	cdpne	0, 7, cr0, cr14, cr0, {0}
    5414:	1e7a0000 	cdpne	0, 7, cr0, cr10, cr0, {0}
    5418:	00000000 	andeq	r0, r0, r0
    541c:	1b37011a 	blne	dc588c <_Min_Stack_Size+0xdc548c>
    5420:	30010000 	andcc	r0, r1, r0
    5424:	00010601 	andeq	r0, r1, r1, lsl #12
    5428:	00000000 	andeq	r0, r0, r0
    542c:	9f000000 	svcls	0x00000000
    5430:	0100001e 	tsteq	r0, lr, lsl r0
    5434:	00000bd2 	ldrdeq	r0, [r0], -r2
    5438:	000bbd18 	andeq	fp, fp, r8, lsl sp
    543c:	01300100 	teqeq	r0, r0, lsl #2
    5440:	0002a325 	andeq	sl, r2, r5, lsr #6
    5444:	001ec300 	andseq	ip, lr, r0, lsl #6
    5448:	001ebf00 	andseq	fp, lr, r0, lsl #30
    544c:	1ab81800 	bne	fee0b454 <BootRAM+0xcffbbf5>
    5450:	30010000 	andcc	r0, r1, r0
    5454:	032f3401 			; <UNDEFINED> instruction: 0x032f3401
    5458:	1eec0000 	cdpne	0, 14, cr0, cr12, cr0, {0}
    545c:	1ee40000 	cdpne	0, 14, cr0, cr4, cr0, {0}
    5460:	7a150000 	bvc	545468 <_Min_Stack_Size+0x545068>
    5464:	0100001a 	tsteq	r0, sl, lsl r0
    5468:	d24d0130 	suble	r0, sp, #48, 2
    546c:	0100000b 	tsteq	r0, fp
    5470:	1e1e1552 	mrcne	5, 0, r1, cr14, cr2, {2}
    5474:	30010000 	andcc	r0, r1, r0
    5478:	0bd26901 	bleq	ff49f884 <BootRAM+0xd690025>
    547c:	53010000 	movwpl	r0, #4096	; 0x1000
    5480:	00103e1f 	andseq	r3, r0, pc, lsl lr
    5484:	00000000 	andeq	r0, r0, r0
    5488:	04280200 	strteq	r0, [r8], #-512	; 0xfffffe00
    548c:	35010000 	strcc	r0, [r1, #-0]
    5490:	0b5d0301 	bleq	174609c <_Min_Stack_Size+0x1745c9c>
    5494:	511e0000 	tstpl	lr, r0
    5498:	2c000010 	stccs	0, cr0, [r0], {16}
    549c:	2600001f 			; <UNDEFINED> instruction: 0x2600001f
    54a0:	0000001f 	andeq	r0, r0, pc, lsl r0
    54a4:	000f7120 	andeq	r7, pc, r0, lsr #2
    54a8:	00000000 	andeq	r0, r0, r0
    54ac:	04400100 	strbeq	r0, [r0], #-256	; 0xffffff00
    54b0:	35010000 	strcc	r0, [r1, #-0]
    54b4:	a71e0301 	ldrge	r0, [lr, -r1, lsl #6]
    54b8:	5f00000f 	svcpl	0x0000000f
    54bc:	5b00001f 	blpl	5540 <_Min_Stack_Size+0x5140>
    54c0:	1e00001f 	mcrne	0, 0, r0, cr0, cr15, {0}
    54c4:	00000f9a 	muleq	r0, sl, pc	; <UNPREDICTABLE>
    54c8:	00001f81 	andeq	r1, r0, r1, lsl #31
    54cc:	00001f7d 	andeq	r1, r0, sp, ror pc
    54d0:	000f8d1e 	andeq	r8, pc, lr, lsl sp	; <UNPREDICTABLE>
    54d4:	001fa500 	andseq	sl, pc, r0, lsl #10
    54d8:	001f9f00 	andseq	r9, pc, r0, lsl #30
    54dc:	0f801e00 	svceq	0x00801e00
    54e0:	1fd80000 	svcne	0x00d80000
    54e4:	1fd40000 	svcne	0x00d40000
    54e8:	40210000 	eormi	r0, r1, r0
    54ec:	22000004 	andcs	r0, r0, #4
    54f0:	00000fb4 			; <UNDEFINED> instruction: 0x00000fb4
    54f4:	00002000 	andeq	r2, r0, r0
    54f8:	00001ff6 	strdeq	r1, [r0], -r6
    54fc:	000fc122 	andeq	ip, pc, r2, lsr #2
    5500:	00204e00 	eoreq	r4, r0, r0, lsl #28
    5504:	00204800 	eoreq	r4, r0, r0, lsl #16
    5508:	0fce2200 	svceq	0x00ce2200
    550c:	20950000 	addscs	r0, r5, r0
    5510:	20930000 	addscs	r0, r3, r0
    5514:	00000000 	andeq	r0, r0, r0
    5518:	2f041600 	svccs	0x00041600
    551c:	09000003 	stmdbeq	r0, {r0, r1}
    5520:	00000bd2 	ldrdeq	r0, [r0], -r2
    5524:	1e40011c 	mcrne	1, 2, r0, cr0, cr12, {0}
    5528:	15010000 	strne	r0, [r1, #-0]
    552c:	2f010a01 	svccs	0x00010a01
    5530:	00000003 	andeq	r0, r0, r3
    5534:	00000000 	andeq	r0, r0, r0
    5538:	02000000 	andeq	r0, r0, #0
    553c:	1301007d 	movwne	r0, #4221	; 0x107d
    5540:	1700000c 	strne	r0, [r0, -ip]
    5544:	0000113f 	andeq	r1, r0, pc, lsr r1
    5548:	00000000 	andeq	r0, r0, r0
    554c:	00000002 	andeq	r0, r0, r2
    5550:	00000000 	andeq	r0, r0, r0
    5554:	01180100 	tsteq	r8, r0, lsl #2
    5558:	0123000a 			; <UNDEFINED> instruction: 0x0123000a
    555c:	00000c05 	andeq	r0, r0, r5, lsl #24
    5560:	010af901 	tsteq	sl, r1, lsl #18	; <UNPREDICTABLE>
    5564:	0000032f 	andeq	r0, r0, pc, lsr #6
    5568:	08000ffc 	stmdaeq	r0, {r2, r3, r4, r5, r6, r7, r8, r9, sl, fp}
    556c:	08001024 	stmdaeq	r0, {r2, r5, ip}
    5570:	01007d02 	tsteq	r0, r2, lsl #26
    5574:	00000c9a 	muleq	r0, sl, ip
    5578:	001dee24 	andseq	lr, sp, r4, lsr #28
    557c:	26f90100 	ldrbtcs	r0, [r9], r0, lsl #2
    5580:	0000032f 	andeq	r0, r0, pc, lsr #6
    5584:	000020ae 	andeq	r2, r0, lr, lsr #1
    5588:	000020a8 	andeq	r2, r0, r8, lsr #1
    558c:	000f4425 	andeq	r4, pc, r5, lsr #8
    5590:	000ffc00 	andeq	pc, pc, r0, lsl #24
    5594:	0ffc0208 	svceq	0x00fc0208
    5598:	101e0800 	andsne	r0, lr, r0, lsl #16
    559c:	fb010800 	blx	475a6 <_Min_Stack_Size+0x471a6>
    55a0:	0f571e0b 	svceq	0x00571e0b
    55a4:	20e20000 	rsccs	r0, r2, r0
    55a8:	20dc0000 	sbcscs	r0, ip, r0
    55ac:	5f1d0000 	svcpl	0x001d0000
    55b0:	0a000010 	beq	55f8 <_Min_Stack_Size+0x51f8>
    55b4:	01080010 	tsteq	r8, r0, lsl r0
    55b8:	0800100a 	stmdaeq	r0, {r1, r3, ip}
    55bc:	08001012 	stmdaeq	r0, {r1, r4, ip}
    55c0:	0307e902 	movweq	lr, #30978	; 0x7902
    55c4:	00107b1e 	andseq	r7, r0, lr, lsl fp
    55c8:	00211200 	eoreq	r1, r1, r0, lsl #4
    55cc:	00211000 	eoreq	r1, r1, r0
    55d0:	106e1e00 	rsbne	r1, lr, r0, lsl #28
    55d4:	21280000 			; <UNDEFINED> instruction: 0x21280000
    55d8:	21260000 			; <UNDEFINED> instruction: 0x21260000
    55dc:	00000000 	andeq	r0, r0, r0
    55e0:	dd012600 	stcle	6, cr2, [r1, #-0]
    55e4:	0100001a 	tsteq	r0, sl, lsl r0
    55e8:	000106ec 	andeq	r0, r1, ip, ror #13
    55ec:	00000000 	andeq	r0, r0, r0
    55f0:	02000000 	andeq	r0, r0, #0
    55f4:	f701007d 			; <UNDEFINED> instruction: 0xf701007d
    55f8:	2500000c 	strcs	r0, [r0, #-12]
    55fc:	00000f65 	andeq	r0, r0, r5, ror #30
    5600:	00000000 	andeq	r0, r0, r0
    5604:	00000002 	andeq	r0, r0, r2
    5608:	00000000 	andeq	r0, r0, r0
    560c:	03ef0100 	mvneq	r0, #0, 2
    5610:	00119017 	andseq	r9, r1, r7, lsl r0
    5614:	00000000 	andeq	r0, r0, r0
    5618:	00000400 	andeq	r0, r0, r0, lsl #8
    561c:	00000000 	andeq	r0, r0, r0
    5620:	8f020000 	svchi	0x00020000
    5624:	90170307 	andsls	r0, r7, r7, lsl #6
    5628:	00000011 	andeq	r0, r0, r1, lsl r0
    562c:	01000000 	mrseq	r0, (UNDEF: 0)
	...
    5638:	03079402 	movweq	r9, #29698	; 0x7402
    563c:	01260000 			; <UNDEFINED> instruction: 0x01260000
    5640:	00001c18 	andeq	r1, r0, r8, lsl ip
    5644:	0106df01 	tsteq	r6, r1, lsl #30
	...
    5650:	01007d02 	tsteq	r0, r2, lsl #26
    5654:	00000d75 	andeq	r0, r0, r5, ror sp
    5658:	000bbd24 	andeq	fp, fp, r4, lsr #26
    565c:	24df0100 	ldrbcs	r0, [pc], #256	; 5664 <_Min_Stack_Size+0x5264>
    5660:	000002a3 	andeq	r0, r0, r3, lsr #5
    5664:	00002141 	andeq	r2, r0, r1, asr #2
    5668:	0000213d 	andeq	r2, r0, sp, lsr r1
    566c:	00110525 	andseq	r0, r1, r5, lsr #10
    5670:	00000000 	andeq	r0, r0, r0
    5674:	00000300 	andeq	r0, r0, r0, lsl #6
    5678:	00000000 	andeq	r0, r0, r0
    567c:	e5010000 	str	r0, [r1, #-0]
    5680:	11141e03 	tstne	r4, r3, lsl #28
    5684:	21660000 	cmncs	r6, r0
    5688:	21620000 	cmncs	r2, r0
    568c:	90170000 	andsls	r0, r7, r0
    5690:	00000011 	andeq	r0, r0, r1, lsl r0
    5694:	01000000 	mrseq	r0, (UNDEF: 0)
	...
    56a0:	0506ba02 	streq	fp, [r6, #-2562]	; 0xfffff5fe
    56a4:	00119b17 	andseq	r9, r1, r7, lsl fp
    56a8:	00000000 	andeq	r0, r0, r0
    56ac:	00000100 	andeq	r0, r0, r0, lsl #2
    56b0:	00000000 	andeq	r0, r0, r0
    56b4:	bb020000 	bllt	856bc <_Min_Stack_Size+0x852bc>
    56b8:	00000506 	andeq	r0, r0, r6, lsl #10
    56bc:	1cd50126 	ldfnee	f0, [r5], {38}	; 0x26
    56c0:	cf010000 	svcgt	0x00010000
    56c4:	00000106 	andeq	r0, r0, r6, lsl #2
    56c8:	00000000 	andeq	r0, r0, r0
    56cc:	7d020000 	stcvc	0, cr0, [r2, #-0]
    56d0:	0dc70100 	stfeqe	f0, [r7]
    56d4:	bd240000 	stclt	0, cr0, [r4, #-0]
    56d8:	0100000b 	tsteq	r0, fp
    56dc:	02a323cf 	adceq	r2, r3, #1006632963	; 0x3c000003
    56e0:	218b0000 	orrcs	r0, fp, r0
    56e4:	21870000 	orrcs	r0, r7, r0
    56e8:	22250000 	eorcs	r0, r5, #0
    56ec:	00000011 	andeq	r0, r0, r1, lsl r0
    56f0:	03000000 	movweq	r0, #0
	...
    56fc:	1e03d501 	cfsh32ne	mvfx13, mvfx3, #1
    5700:	00001131 	andeq	r1, r0, r1, lsr r1
    5704:	000021b0 			; <UNDEFINED> instruction: 0x000021b0
    5708:	000021ac 	andeq	r2, r0, ip, lsr #3
    570c:	01270000 			; <UNDEFINED> instruction: 0x01270000
    5710:	00000d57 	andeq	r0, r0, r7, asr sp
    5714:	0106b901 	tsteq	r6, r1, lsl #18
    5718:	08000f8c 	stmdaeq	r0, {r2, r3, r7, r8, r9, sl, fp}
    571c:	08000ffc 	stmdaeq	r0, {r2, r3, r4, r5, r6, r7, r8, r9, sl, fp}
    5720:	000021d1 	ldrdeq	r2, [r0], -r1
    5724:	000ed801 	andeq	sp, lr, r1, lsl #16
    5728:	0bbd2400 	bleq	fef4e730 <BootRAM+0xd13eed1>
    572c:	b9010000 	stmdblt	r1, {}	; <UNPREDICTABLE>
    5730:	0002a325 	andeq	sl, r2, r5, lsr #6
    5734:	0021f900 	eoreq	pc, r1, r0, lsl #18
    5738:	0021f100 	eoreq	pc, r1, r0, lsl #2
    573c:	1a7b2400 	bne	1ece744 <_Min_Stack_Size+0x1ece344>
    5740:	b9010000 	stmdblt	r1, {}	; <UNPREDICTABLE>
    5744:	00032f34 	andeq	r2, r3, r4, lsr pc
    5748:	00223b00 	eoreq	r3, r2, r0, lsl #22
    574c:	00223300 	eoreq	r3, r2, r0, lsl #6
    5750:	1e1f2800 	cdpne	8, 1, cr2, cr15, cr0, {0}
    5754:	b9010000 	stmdblt	r1, {}	; <UNPREDICTABLE>
    5758:	00032f4e 	andeq	r2, r3, lr, asr #30
    575c:	29520100 	ldmdbcs	r2, {r8}^
    5760:	00001b76 	andeq	r1, r0, r6, ror fp
    5764:	2f0cbb01 	svccs	0x000cbb01
    5768:	7d000003 	stcvc	0, cr0, [r0, #-12]
    576c:	75000022 	strvc	r0, [r0, #-34]	; 0xffffffde
    5770:	2a000022 	bcs	5800 <_Min_Stack_Size+0x5400>
    5774:	0000113f 	andeq	r1, r0, pc, lsr r1
    5778:	08000f8e 	stmdaeq	r0, {r1, r2, r3, r7, r8, r9, sl, fp}
    577c:	000f8e04 	andeq	r8, pc, r4, lsl #28
    5780:	000f9608 	andeq	r9, pc, r8, lsl #12
    5784:	13c10108 	bicne	r0, r1, #8, 2
    5788:	000fdc2b 	andeq	sp, pc, fp, lsr #24
    578c:	000f9600 	andeq	r9, pc, r0, lsl #12
    5790:	03f80208 	mvnseq	r0, #8, 4	; 0x80000000
    5794:	c3010000 	movwgt	r0, #4096	; 0x1000
    5798:	000eab03 	andeq	sl, lr, r3, lsl #22
    579c:	10091e00 	andne	r1, r9, r0, lsl #28
    57a0:	22b90000 	adcscs	r0, r9, #0
    57a4:	22b50000 	adcscs	r0, r5, #0
    57a8:	fc1e0000 	ldc2	0, cr0, [lr], {-0}
    57ac:	dd00000f 	stcle	0, cr0, [r0, #-60]	; 0xffffffc4
    57b0:	d7000022 	strle	r0, [r0, -r2, lsr #32]
    57b4:	1e000022 	cdpne	0, 0, cr0, cr0, cr2, {1}
    57b8:	00000fef 	andeq	r0, r0, pc, ror #31
    57bc:	00002311 	andeq	r2, r0, r1, lsl r3
    57c0:	00002309 	andeq	r2, r0, r9, lsl #6
    57c4:	0003f821 	andeq	pc, r3, r1, lsr #16
    57c8:	10162200 	andsne	r2, r6, r0, lsl #4
    57cc:	23510000 	cmpcs	r1, #0
    57d0:	23490000 	movtcs	r0, #36864	; 0x9000
    57d4:	23220000 			; <UNDEFINED> instruction: 0x23220000
    57d8:	8d000010 	stchi	0, cr0, [r0, #-64]	; 0xffffffc0
    57dc:	89000023 	stmdbhi	r0, {r0, r1, r5}
    57e0:	22000023 	andcs	r0, r0, #35	; 0x23
    57e4:	00001030 	andeq	r1, r0, r0, lsr r0
    57e8:	000023ad 	andeq	r2, r0, sp, lsr #7
    57ec:	000023ab 	andeq	r2, r0, fp, lsr #7
    57f0:	5f2c0000 	svcpl	0x002c0000
    57f4:	c8000010 	stmdagt	r0, {r4}
    57f8:	0108000f 	tsteq	r8, pc
    57fc:	00000410 	andeq	r0, r0, r0, lsl r4
    5800:	1e03c301 	cdpne	3, 0, cr12, cr3, cr1, {0}
    5804:	0000107b 	andeq	r1, r0, fp, ror r0
    5808:	000023c4 	andeq	r2, r0, r4, asr #7
    580c:	000023c0 	andeq	r2, r0, r0, asr #7
    5810:	00106e1e 	andseq	r6, r0, lr, lsl lr
    5814:	0023ea00 	eoreq	lr, r3, r0, lsl #20
    5818:	0023e200 	eoreq	lr, r3, r0, lsl #4
    581c:	26000000 	strcs	r0, [r0], -r0
    5820:	000eea01 	andeq	lr, lr, r1, lsl #20
    5824:	06a30100 	strteq	r0, [r3], r0, lsl #2
    5828:	000f6801 	andeq	r6, pc, r1, lsl #16
    582c:	000f8c08 	andeq	r8, pc, r8, lsl #24
    5830:	007d0208 	rsbseq	r0, sp, r8, lsl #4
    5834:	000f4401 	andeq	r4, pc, r1, lsl #8
    5838:	1ab82400 	bne	fee0e840 <BootRAM+0xcffefe1>
    583c:	a3010000 	movwge	r0, #4096	; 0x1000
    5840:	00032f2c 	andeq	r2, r3, ip, lsr #30
    5844:	00242800 	eoreq	r2, r4, r0, lsl #16
    5848:	00242400 	eoreq	r2, r4, r0, lsl #8
    584c:	114e2500 	cmpne	lr, r0, lsl #10
    5850:	0f680000 	svceq	0x00680000
    5854:	68030800 	stmdavs	r3, {fp}
    5858:	8608000f 	strhi	r0, [r8], -pc
    585c:	0108000f 	tsteq	r8, pc
    5860:	5d1e03a9 	ldcpl	3, cr0, [lr, #-676]	; 0xfffffd5c
    5864:	4d000011 	stcmi	0, cr0, [r0, #-68]	; 0xffffffbc
    5868:	49000024 	stmdbmi	r0, {r2, r5}
    586c:	22000024 	andcs	r0, r0, #36	; 0x24
    5870:	0000116a 	andeq	r1, r0, sl, ror #2
    5874:	00002474 	andeq	r2, r0, r4, ror r4
    5878:	0000246e 	andeq	r2, r0, lr, ror #8
    587c:	00117722 	andseq	r7, r1, r2, lsr #14
    5880:	0024a100 	eoreq	sl, r4, r0, lsl #2
    5884:	00249d00 	eoreq	r9, r4, r0, lsl #26
    5888:	2d000000 	stccs	0, cr0, [r0, #-0]
    588c:	00001e98 	muleq	r0, r8, lr
    5890:	1a07e102 	bne	1fdca0 <_Min_Stack_Size+0x1fd8a0>
    5894:	00032f01 	andeq	r2, r3, r1, lsl #30
    5898:	0f650300 	svceq	0x00650300
    589c:	b52e0000 	strlt	r0, [lr, #-0]!
    58a0:	0200001c 	andeq	r0, r0, #28
    58a4:	2f3207e1 	svccs	0x003207e1
    58a8:	00000003 	andeq	r0, r0, r3
    58ac:	001b632f 	andseq	r6, fp, pc, lsr #6
    58b0:	078d0200 	streq	r0, [sp, r0, lsl #4]
    58b4:	03010122 	movweq	r0, #4386	; 0x1122
    58b8:	001d1730 	andseq	r1, sp, r0, lsr r7
    58bc:	075b0200 	ldrbeq	r0, [fp, -r0, lsl #4]
    58c0:	dc030116 	stfles	f0, [r3], {22}
    58c4:	2e00000f 	cdpcs	0, 0, cr0, cr0, cr15, {0}
    58c8:	00001e22 	andeq	r1, r0, r2, lsr #28
    58cc:	34075b02 	strcc	r5, [r7], #-2818	; 0xfffff4fe
    58d0:	0000032f 	andeq	r0, r0, pc, lsr #6
    58d4:	001ab82e 	andseq	fp, sl, lr, lsr #16
    58d8:	075b0200 	ldrbeq	r0, [fp, -r0, lsl #4]
    58dc:	00032f47 	andeq	r2, r3, r7, asr #30
    58e0:	1a7a2e00 	bne	1e910e8 <_Min_Stack_Size+0x1e90ce8>
    58e4:	5b020000 	blpl	858ec <_Min_Stack_Size+0x854ec>
    58e8:	0bd86607 	bleq	ff61f10c <BootRAM+0xd80f8ad>
    58ec:	1e2e0000 	cdpne	0, 2, cr0, cr14, cr0, {0}
    58f0:	0200001e 	andeq	r0, r0, #30
    58f4:	d888075b 	stmle	r8, {r0, r1, r3, r4, r6, r8, r9, sl}
    58f8:	3100000b 	tstcc	r0, fp
    58fc:	00001dc9 	andeq	r1, r0, r9, asr #27
    5900:	0c075d02 	stceq	13, cr5, [r7], {2}
    5904:	0000032f 	andeq	r0, r0, pc, lsr #6
    5908:	001ba531 	andseq	sl, fp, r1, lsr r5
    590c:	075e0200 	ldrbeq	r0, [lr, -r0, lsl #4]
    5910:	00032f0c 	andeq	r2, r3, ip, lsl #30
    5914:	1d073100 	stfnes	f3, [r7, #-0]
    5918:	5f020000 	svcpl	0x00020000
    591c:	032f0c07 			; <UNDEFINED> instruction: 0x032f0c07
    5920:	2d000000 	stccs	0, cr0, [r0, #-0]
    5924:	00001cee 	andeq	r1, r0, lr, ror #25
    5928:	1a074002 	bne	1d5938 <_Min_Stack_Size+0x1d5538>
    592c:	00032f01 	andeq	r2, r3, r1, lsl #30
    5930:	103e0300 	eorsne	r0, lr, r0, lsl #6
    5934:	b82e0000 	stmdalt	lr!, {}	; <UNPREDICTABLE>
    5938:	0200001a 	andeq	r0, r0, #26
    593c:	2f380740 	svccs	0x00380740
    5940:	2e000003 	cdpcs	0, 0, cr0, cr0, cr3, {0}
    5944:	00001a7b 	andeq	r1, r0, fp, ror sl
    5948:	50074002 	andpl	r4, r7, r2
    594c:	0000032f 	andeq	r0, r0, pc, lsr #6
    5950:	001e1f2e 	andseq	r1, lr, lr, lsr #30
    5954:	07400200 	strbeq	r0, [r0, -r0, lsl #4]
    5958:	00032f6a 	andeq	r2, r3, sl, ror #30
    595c:	1dc93100 	stfnee	f3, [r9]
    5960:	42020000 	andmi	r0, r2, #0
    5964:	032f0c07 			; <UNDEFINED> instruction: 0x032f0c07
    5968:	a5310000 	ldrge	r0, [r1, #-0]!
    596c:	0200001b 	andeq	r0, r0, #27
    5970:	2f0c0743 	svccs	0x000c0743
    5974:	31000003 	tstcc	r0, r3
    5978:	00001d07 	andeq	r1, r0, r7, lsl #26
    597c:	0c074402 	cfstrseq	mvf4, [r7], {2}
    5980:	0000032f 	andeq	r0, r0, pc, lsr #6
    5984:	1c8b2d00 	stcne	13, cr2, [fp], {0}
    5988:	27020000 	strcs	r0, [r2, -r0]
    598c:	2f011a07 	svccs	0x00011a07
    5990:	03000003 	movweq	r0, #3
    5994:	0000105f 	andeq	r1, r0, pc, asr r0
    5998:	000bbd2e 	andeq	fp, fp, lr, lsr #26
    599c:	07270200 	streq	r0, [r7, -r0, lsl #4]!
    59a0:	0002a337 	andeq	sl, r2, r7, lsr r3
    59a4:	8b300000 	blhi	c059ac <_Min_Stack_Size+0xc055ac>
    59a8:	0200001a 	andeq	r0, r0, #26
    59ac:	01160711 	tsteq	r6, r1, lsl r7
    59b0:	00108903 	andseq	r8, r0, r3, lsl #18
    59b4:	0bbd2e00 	bleq	fef511bc <BootRAM+0xd14195d>
    59b8:	11020000 	mrsne	r0, (UNDEF: 2)
    59bc:	02a33307 	adceq	r3, r3, #469762048	; 0x1c000000
    59c0:	4e2e0000 	cdpmi	0, 2, cr0, cr14, cr0, {0}
    59c4:	0200001c 	andeq	r0, r0, #28
    59c8:	2f420711 	svccs	0x00420711
    59cc:	00000003 	andeq	r0, r0, r3
    59d0:	001c3d2d 	andseq	r3, ip, sp, lsr #26
    59d4:	06fb0200 	ldrbteq	r0, [fp], r0, lsl #4
    59d8:	032f011a 			; <UNDEFINED> instruction: 0x032f011a
    59dc:	aa030000 	bge	c59e4 <_Min_Stack_Size+0xc55e4>
    59e0:	2e000010 	mcrcs	0, 0, r0, cr0, cr0, {0}
    59e4:	00000bbd 			; <UNDEFINED> instruction: 0x00000bbd
    59e8:	3506fb02 	strcc	pc, [r6, #-2818]	; 0xfffff4fe
    59ec:	000002a3 	andeq	r0, r0, r3, lsr #5
    59f0:	1b4c3000 	blne	13119f8 <_Min_Stack_Size+0x13115f8>
    59f4:	ea020000 	b	859fc <_Min_Stack_Size+0x855fc>
    59f8:	03011606 	movweq	r1, #5638	; 0x1606
    59fc:	000010c7 	andeq	r1, r0, r7, asr #1
    5a00:	000bbd2e 	andeq	fp, fp, lr, lsr #26
    5a04:	06ea0200 	strbteq	r0, [sl], r0, lsl #4
    5a08:	0002a337 	andeq	sl, r2, r7, lsr r3
    5a0c:	9e300000 	cdpls	0, 3, cr0, cr0, cr0, {0}
    5a10:	0200001d 	andeq	r0, r0, #29
    5a14:	011606db 			; <UNDEFINED> instruction: 0x011606db
    5a18:	0010e403 	andseq	lr, r0, r3, lsl #8
    5a1c:	0bbd2e00 	bleq	fef51224 <BootRAM+0xd1419c5>
    5a20:	db020000 	blle	85a28 <_Min_Stack_Size+0x85628>
    5a24:	02a33506 	adceq	r3, r3, #25165824	; 0x1800000
    5a28:	2d000000 	stccs	0, cr0, [r0, #-0]
    5a2c:	00001cc0 	andeq	r1, r0, r0, asr #25
    5a30:	1a06c802 	bne	1b7a40 <_Min_Stack_Size+0x1b7640>
    5a34:	00032f01 	andeq	r2, r3, r1, lsl #30
    5a38:	11050300 	mrsne	r0, SP_abt
    5a3c:	bd2e0000 	stclt	0, cr0, [lr, #-0]
    5a40:	0200000b 	andeq	r0, r0, #11
    5a44:	a33906c8 	teqge	r9, #200, 12	; 0xc800000
    5a48:	00000002 	andeq	r0, r0, r2
    5a4c:	001bdc30 	andseq	sp, fp, r0, lsr ip
    5a50:	06b50200 	ldrteq	r0, [r5], r0, lsl #4
    5a54:	22030116 	andcs	r0, r3, #-2147483643	; 0x80000005
    5a58:	2e000011 	mcrcs	0, 0, r0, cr0, cr1, {0}
    5a5c:	00000bbd 			; <UNDEFINED> instruction: 0x00000bbd
    5a60:	3206b502 	andcc	fp, r6, #8388608	; 0x800000
    5a64:	000002a3 	andeq	r0, r0, r3, lsr #5
    5a68:	1db83000 	ldcne	0, cr3, [r8]
    5a6c:	8f020000 	svchi	0x00020000
    5a70:	03011606 	movweq	r1, #5638	; 0x1606
    5a74:	0000113f 	andeq	r1, r0, pc, lsr r1
    5a78:	000bbd2e 	andeq	fp, fp, lr, lsr #26
    5a7c:	068f0200 	streq	r0, [pc], r0, lsl #4
    5a80:	0002a331 	andeq	sl, r2, r1, lsr r3
    5a84:	6c320000 	ldcvs	0, cr0, [r2], #-0
    5a88:	0200001e 	andeq	r0, r0, #30
    5a8c:	011a0683 	tsteq	sl, r3, lsl #13
    5a90:	0000032f 	andeq	r0, r0, pc, lsr #6
    5a94:	1c5d3003 	mrrcne	0, 0, r3, sp, cr3
    5a98:	70020000 	andvc	r0, r2, r0
    5a9c:	03011606 	movweq	r1, #5638	; 0x1606
    5aa0:	00001185 	andeq	r1, r0, r5, lsl #3
    5aa4:	001ab82e 	andseq	fp, sl, lr, lsr #16
    5aa8:	06700200 	ldrbteq	r0, [r0], -r0, lsl #4
    5aac:	00032f3a 	andeq	r2, r3, sl, lsr pc
    5ab0:	1c053100 	stfnes	f3, [r5], {-0}
    5ab4:	72020000 	andvc	r0, r2, #0
    5ab8:	032f0c06 			; <UNDEFINED> instruction: 0x032f0c06
    5abc:	c9310000 	ldmdbgt	r1!, {}	; <UNPREDICTABLE>
    5ac0:	0200001d 	andeq	r0, r0, #29
    5ac4:	2f0c0673 	svccs	0x000c0673
    5ac8:	00000003 	andeq	r0, r0, r3
    5acc:	001d5133 	andseq	r5, sp, r3, lsr r1
    5ad0:	03bb0300 			; <UNDEFINED> instruction: 0x03bb0300
    5ad4:	3303011b 	movwcc	r0, #12571	; 0x311b
    5ad8:	00001c57 	andeq	r1, r0, r7, asr ip
    5adc:	1b03b003 	blne	f1af0 <_Min_Stack_Size+0xf16f0>
    5ae0:	e8330301 	ldmda	r3!, {r0, r8, r9}
    5ae4:	0300001c 	movweq	r0, #28
    5ae8:	011b03a5 	tsteq	fp, r5, lsr #7
    5aec:	001e0003 	andseq	r0, lr, r3
    5af0:	00020000 	andeq	r0, r2, r0
    5af4:	000013fb 	strdeq	r1, [r0], -fp
    5af8:	38b10104 	ldmcc	r1!, {r2, r8}
    5afc:	04f00000 	ldrbteq	r0, [r0], #0
    5b00:	1eb80000 	cdpne	0, 11, cr0, cr8, cr0, {0}
    5b04:	00440000 	subeq	r0, r4, r0
    5b08:	1ece0000 	cdpne	0, 12, cr0, cr14, cr0, {0}
    5b0c:	80010000 	andhi	r0, r1, r0

Disassembly of section .debug_abbrev:

00000000 <.debug_abbrev>:
       0:	25011101 	strcs	r1, [r1, #-257]	; 0xfffffeff
       4:	030b130e 	movweq	r1, #45838	; 0xb30e
       8:	550e1b0e 	strpl	r1, [lr, #-2830]	; 0xfffff4f2
       c:	52011106 	andpl	r1, r1, #-2147483647	; 0x80000001
      10:	00061001 	andeq	r1, r6, r1
      14:	00240200 	eoreq	r0, r4, r0, lsl #4
      18:	0b3e0b0b 	bleq	f82c4c <_Min_Stack_Size+0xf8284c>
      1c:	00000e03 	andeq	r0, r0, r3, lsl #28
      20:	03001603 	movweq	r1, #1539	; 0x603
      24:	3b0b3a0e 	blcc	2ce864 <_Min_Stack_Size+0x2ce464>
      28:	490b390b 	stmdbmi	fp, {r0, r1, r3, r8, fp, ip, sp}
      2c:	04000013 	streq	r0, [r0], #-19	; 0xffffffed
      30:	0b0b0024 	bleq	2c00c8 <_Min_Stack_Size+0x2bfcc8>
      34:	08030b3e 	stmdaeq	r3, {r1, r2, r3, r4, r5, r8, r9, fp}
      38:	35050000 	strcc	r0, [r5, #-0]
      3c:	00134900 	andseq	r4, r3, r0, lsl #18
      40:	01010600 	tsteq	r1, r0, lsl #12
      44:	13011349 	movwne	r1, #4937	; 0x1349
      48:	21070000 	mrscs	r0, (UNDEF: 7)
      4c:	2f134900 	svccs	0x00134900
      50:	0800000b 	stmdaeq	r0, {r0, r1, r3}
      54:	0b0b0113 	bleq	2c04a8 <_Min_Stack_Size+0x2c00a8>
      58:	053b0b3a 	ldreq	r0, [fp, #-2874]!	; 0xfffff4c6
      5c:	13010b39 	movwne	r0, #6969	; 0x1b39
      60:	0d090000 	stceq	0, cr0, [r9, #-0]
      64:	3a0e0300 	bcc	380c6c <_Min_Stack_Size+0x38086c>
      68:	39053b0b 	stmdbcc	r5, {r0, r1, r3, r8, r9, fp, ip, sp}
      6c:	3813490b 	ldmdacc	r3, {r0, r1, r3, r8, fp, lr}
      70:	0a00000a 	beq	a0 <_Min_Heap_Size-0x160>
      74:	0803000d 	stmdaeq	r3, {r0, r2, r3}
      78:	053b0b3a 	ldreq	r0, [fp, #-2874]!	; 0xfffff4c6
      7c:	13490b39 	movtne	r0, #39737	; 0x9b39
      80:	00000a38 	andeq	r0, r0, r8, lsr sl
      84:	0300160b 	movweq	r1, #1547	; 0x60b
      88:	3b0b3a0e 	blcc	2ce8c8 <_Min_Stack_Size+0x2ce4c8>
      8c:	490b3905 	stmdbmi	fp, {r0, r2, r8, fp, ip, sp}
      90:	0c000013 	stceq	0, cr0, [r0], {19}
      94:	0b0b000f 	bleq	2c00d8 <_Min_Stack_Size+0x2bfcd8>
      98:	00001349 	andeq	r1, r0, r9, asr #6
      9c:	0101150d 	tsteq	r1, sp, lsl #10
      a0:	0e000013 	mcreq	0, 0, r0, cr0, cr3, {0}
      a4:	00000018 	andeq	r0, r0, r8, lsl r0
      a8:	3f012e0f 	svccc	0x00012e0f
      ac:	3a0e030c 	bcc	380ce4 <_Min_Stack_Size+0x3808e4>
      b0:	390b3b0b 	stmdbcc	fp, {r0, r1, r3, r8, r9, fp, ip, sp}
      b4:	110c270b 	tstne	ip, fp, lsl #14
      b8:	40011201 	andmi	r1, r1, r1, lsl #4
      bc:	0c429606 	mcrreq	6, 0, r9, r2, cr6
      c0:	00001301 	andeq	r1, r0, r1, lsl #6
      c4:	03003410 	movweq	r3, #1040	; 0x410
      c8:	3b0b3a0e 	blcc	2ce908 <_Min_Stack_Size+0x2ce508>
      cc:	490b390b 	stmdbmi	fp, {r0, r1, r3, r8, fp, ip, sp}
      d0:	b7060213 	smladlt	r6, r3, r2, r0
      d4:	00000642 	andeq	r0, r0, r2, asr #12
      d8:	11010b11 	tstne	r1, r1, lsl fp
      dc:	01011201 	tsteq	r1, r1, lsl #4
      e0:	12000013 	andne	r0, r0, #19
      e4:	08030034 	stmdaeq	r3, {r2, r4, r5}
      e8:	0b3b0b3a 	bleq	ec2dd8 <_Min_Stack_Size+0xec29d8>
      ec:	13490b39 	movtne	r0, #39737	; 0x9b39
      f0:	42b70602 	adcsmi	r0, r7, #2097152	; 0x200000
      f4:	13000006 	movwne	r0, #6
      f8:	01018289 	smlabbeq	r1, r9, r2, r8
      fc:	13310111 	teqne	r1, #1073741828	; 0x40000004
     100:	00001301 	andeq	r1, r0, r1, lsl #6
     104:	01828a14 	orreq	r8, r2, r4, lsl sl
     108:	910a0200 	mrsls	r0, R10_fiq
     10c:	00000a42 	andeq	r0, r0, r2, asr #20
     110:	01828915 	orreq	r8, r2, r5, lsl r9
     114:	31011101 	tstcc	r1, r1, lsl #2
     118:	16000013 			; <UNDEFINED> instruction: 0x16000013
     11c:	1331011d 	teqne	r1, #1073741831	; 0x40000007
     120:	42b80152 	adcsmi	r0, r8, #-2147483628	; 0x80000014
     124:	1201110b 	andne	r1, r1, #-1073741822	; 0xc0000002
     128:	590b5801 	stmdbpl	fp, {r0, fp, ip, lr}
     12c:	010b570b 	tsteq	fp, fp, lsl #14
     130:	17000013 	smladne	r0, r3, r0, r0
     134:	13310005 	teqne	r1, #5
     138:	42b70602 	adcsmi	r0, r7, #2097152	; 0x200000
     13c:	18000006 	stmdane	r0, {r1, r2}
     140:	0c3f012e 	ldfeqs	f0, [pc], #-184	; 90 <_Min_Heap_Size-0x170>
     144:	0b3a0e03 	bleq	e83958 <_Min_Stack_Size+0xe83558>
     148:	0b390b3b 	bleq	e42e3c <_Min_Stack_Size+0xe42a3c>
     14c:	01110c27 	tsteq	r1, r7, lsr #24
     150:	0a400112 	beq	10005a0 <_Min_Stack_Size+0x10001a0>
     154:	010c4297 			; <UNDEFINED> instruction: 0x010c4297
     158:	19000013 	stmdbne	r0, {r0, r1, r4}
     15c:	0e030005 	cdpeq	0, 0, cr0, cr3, cr5, {0}
     160:	0b3b0b3a 	bleq	ec2e50 <_Min_Stack_Size+0xec2a50>
     164:	13490b39 	movtne	r0, #39737	; 0x9b39
     168:	00000a02 	andeq	r0, r0, r2, lsl #20
     16c:	31011d1a 	tstcc	r1, sl, lsl sp
     170:	b8015213 	stmdalt	r1, {r0, r1, r4, r9, ip, lr}
     174:	01110b42 	tsteq	r1, r2, asr #22
     178:	0b580112 	bleq	16005c8 <_Min_Stack_Size+0x16001c8>
     17c:	0b570b59 	bleq	15c2ee8 <_Min_Stack_Size+0x15c2ae8>
     180:	2e1b0000 	cdpcs	0, 1, cr0, cr11, cr0, {0}
     184:	3a0e0301 	bcc	380d90 <_Min_Stack_Size+0x380990>
     188:	39053b0b 	stmdbcc	r5, {r0, r1, r3, r8, r9, fp, ip, sp}
     18c:	200c270b 	andcs	r2, ip, fp, lsl #14
     190:	0013010b 	andseq	r0, r3, fp, lsl #2
     194:	00051c00 	andeq	r1, r5, r0, lsl #24
     198:	0b3a0e03 	bleq	e839ac <_Min_Stack_Size+0xe835ac>
     19c:	0b39053b 	bleq	e41690 <_Min_Stack_Size+0xe41290>
     1a0:	00001349 	andeq	r1, r0, r9, asr #6
     1a4:	3f002e1d 	svccc	0x00002e1d
     1a8:	870c3c0c 	strhi	r3, [ip, -ip, lsl #24]
     1ac:	0e030e40 	cdpeq	14, 0, cr0, cr3, cr0, {2}
     1b0:	053b0b3a 	ldreq	r0, [fp, #-2874]!	; 0xfffff4c6
     1b4:	00000b39 	andeq	r0, r0, r9, lsr fp
     1b8:	01110100 	tsteq	r1, r0, lsl #2
     1bc:	0b130e25 	bleq	4c3a58 <_Min_Stack_Size+0x4c3658>
     1c0:	0e1b0e03 	cdpeq	14, 1, cr0, cr11, cr3, {0}
     1c4:	01110655 	tsteq	r1, r5, asr r6
     1c8:	06100152 			; <UNDEFINED> instruction: 0x06100152
     1cc:	24020000 	strcs	r0, [r2], #-0
     1d0:	3e0b0b00 	vmlacc.f64	d0, d11, d0
     1d4:	000e030b 	andeq	r0, lr, fp, lsl #6
     1d8:	00160300 	andseq	r0, r6, r0, lsl #6
     1dc:	0b3a0e03 	bleq	e839f0 <_Min_Stack_Size+0xe835f0>
     1e0:	0b390b3b 	bleq	e42ed4 <_Min_Stack_Size+0xe42ad4>
     1e4:	00001349 	andeq	r1, r0, r9, asr #6
     1e8:	0b002404 	bleq	9200 <_Min_Stack_Size+0x8e00>
     1ec:	030b3e0b 	movweq	r3, #48651	; 0xbe0b
     1f0:	05000008 	streq	r0, [r0, #-8]
     1f4:	0b3e0104 	bleq	f8060c <_Min_Stack_Size+0xf8020c>
     1f8:	13490b0b 	movtne	r0, #39691	; 0x9b0b
     1fc:	0b3b0b3a 	bleq	ec2eec <_Min_Stack_Size+0xec2aec>
     200:	13010b39 	movwne	r0, #6969	; 0x1b39
     204:	28060000 	stmdacs	r6, {}	; <UNPREDICTABLE>
     208:	1c0e0300 	stcne	3, cr0, [lr], {-0}
     20c:	0700000b 	streq	r0, [r0, -fp]
     210:	0b0b0113 	bleq	2c0664 <_Min_Stack_Size+0x2c0264>
     214:	0b3b0b3a 	bleq	ec2f04 <_Min_Stack_Size+0xec2b04>
     218:	13010b39 	movwne	r0, #6969	; 0x1b39
     21c:	0d080000 	stceq	0, cr0, [r8, #-0]
     220:	3a0e0300 	bcc	380e28 <_Min_Stack_Size+0x380a28>
     224:	390b3b0b 	stmdbcc	fp, {r0, r1, r3, r8, r9, fp, ip, sp}
     228:	3813490b 	ldmdacc	r3, {r0, r1, r3, r8, fp, lr}
     22c:	0900000a 	stmdbeq	r0, {r1, r3}
     230:	0803000d 	stmdaeq	r3, {r0, r2, r3}
     234:	0b3b0b3a 	bleq	ec2f24 <_Min_Stack_Size+0xec2b24>
     238:	13490b39 	movtne	r0, #39737	; 0x9b39
     23c:	00000a38 	andeq	r0, r0, r8, lsr sl
     240:	3f012e0a 	svccc	0x00012e0a
     244:	3a0e030c 	bcc	380e7c <_Min_Stack_Size+0x380a7c>
     248:	390b3b0b 	stmdbcc	fp, {r0, r1, r3, r8, r9, fp, ip, sp}
     24c:	110c270b 	tstne	ip, fp, lsl #14
     250:	40011201 	andmi	r1, r1, r1, lsl #4
     254:	0c42970a 	mcrreq	7, 0, r9, r2, cr10
     258:	00001301 	andeq	r1, r0, r1, lsl #6
     25c:	31001d0b 	tstcc	r0, fp, lsl #26
     260:	b8015213 	stmdalt	r1, {r0, r1, r4, r9, ip, lr}
     264:	01110b42 	tsteq	r1, r2, asr #22
     268:	0b580112 	bleq	16006b8 <_Min_Stack_Size+0x16002b8>
     26c:	0b570b59 	bleq	15c2fd8 <_Min_Stack_Size+0x15c2bd8>
     270:	2e0c0000 	cdpcs	0, 0, cr0, cr12, cr0, {0}
     274:	030c3f01 	movweq	r3, #52993	; 0xcf01
     278:	3b0b3a0e 	blcc	2ceab8 <_Min_Stack_Size+0x2ce6b8>
     27c:	270b390b 	strcs	r3, [fp, -fp, lsl #18]
     280:	1201110c 	andne	r1, r1, #12, 2
     284:	97064001 	strls	r4, [r6, -r1]
     288:	13010c42 	movwne	r0, #7234	; 0x1c42
     28c:	340d0000 	strcc	r0, [sp], #-0
     290:	3a0e0300 	bcc	380e98 <_Min_Stack_Size+0x380a98>
     294:	390b3b0b 	stmdbcc	fp, {r0, r1, r3, r8, r9, fp, ip, sp}
     298:	0213490b 	andseq	r4, r3, #180224	; 0x2c000
     29c:	0e00000a 	cdpeq	0, 0, cr0, cr0, cr10, {0}
     2a0:	01018289 	smlabbeq	r1, r9, r2, r8
     2a4:	13310111 	teqne	r1, #1073741828	; 0x40000004
     2a8:	00001301 	andeq	r1, r0, r1, lsl #6
     2ac:	01828a0f 	orreq	r8, r2, pc, lsl #20
     2b0:	910a0200 	mrsls	r0, R10_fiq
     2b4:	00000a42 	andeq	r0, r0, r2, asr #20
     2b8:	01828910 	orreq	r8, r2, r0, lsl r9
     2bc:	31011100 	mrscc	r1, (UNDEF: 17)
     2c0:	11000013 	tstne	r0, r3, lsl r0
     2c4:	0c3f012e 	ldfeqs	f0, [pc], #-184	; 214 <_Min_Heap_Size+0x14>
     2c8:	0b3a0e03 	bleq	e83adc <_Min_Stack_Size+0xe836dc>
     2cc:	0b390b3b 	bleq	e42fc0 <_Min_Stack_Size+0xe42bc0>
     2d0:	13490c27 	movtne	r0, #39975	; 0x9c27
     2d4:	01120111 	tsteq	r2, r1, lsl r1
     2d8:	42970640 	addsmi	r0, r7, #64, 12	; 0x4000000
     2dc:	0013010c 	andseq	r0, r3, ip, lsl #2
     2e0:	002e1200 	eoreq	r1, lr, r0, lsl #4
     2e4:	0b3a0e03 	bleq	e83af8 <_Min_Stack_Size+0xe836f8>
     2e8:	0b390b3b 	bleq	e42fdc <_Min_Stack_Size+0xe42bdc>
     2ec:	0b200c27 	bleq	803390 <_Min_Stack_Size+0x802f90>
     2f0:	2e130000 	cdpcs	0, 1, cr0, cr3, cr0, {0}
     2f4:	3c0c3f00 	stccc	15, cr3, [ip], {-0}
     2f8:	0e40870c 	cdpeq	7, 4, cr8, cr0, cr12, {0}
     2fc:	0b3a0e03 	bleq	e83b10 <_Min_Stack_Size+0xe83710>
     300:	00000b3b 	andeq	r0, r0, fp, lsr fp
     304:	3f002e14 	svccc	0x00002e14
     308:	870c3c0c 	strhi	r3, [ip, -ip, lsl #24]
     30c:	0e030e40 	cdpeq	14, 0, cr0, cr3, cr0, {2}
     310:	053b0b3a 	ldreq	r0, [fp, #-2874]!	; 0xfffff4c6
     314:	00000b39 	andeq	r0, r0, r9, lsr fp
     318:	3f002e15 	svccc	0x00002e15
     31c:	870c3c0c 	strhi	r3, [ip, -ip, lsl #24]
     320:	0e030e40 	cdpeq	14, 0, cr0, cr3, cr0, {2}
     324:	0b3b0b3a 	bleq	ec3014 <_Min_Stack_Size+0xec2c14>
     328:	00000b39 	andeq	r0, r0, r9, lsr fp
     32c:	01110100 	tsteq	r1, r0, lsl #2
     330:	0b130e25 	bleq	4c3bcc <_Min_Stack_Size+0x4c37cc>
     334:	0e1b0e03 	cdpeq	14, 1, cr0, cr11, cr3, {0}
     338:	01110655 	tsteq	r1, r5, asr r6
     33c:	06100152 			; <UNDEFINED> instruction: 0x06100152
     340:	24020000 	strcs	r0, [r2], #-0
     344:	3e0b0b00 	vmlacc.f64	d0, d11, d0
     348:	000e030b 	andeq	r0, lr, fp, lsl #6
     34c:	00160300 	andseq	r0, r6, r0, lsl #6
     350:	0b3a0e03 	bleq	e83b64 <_Min_Stack_Size+0xe83764>
     354:	0b390b3b 	bleq	e43048 <_Min_Stack_Size+0xe42c48>
     358:	00001349 	andeq	r1, r0, r9, asr #6
     35c:	0b002404 	bleq	9374 <_Min_Stack_Size+0x8f74>
     360:	030b3e0b 	movweq	r3, #48651	; 0xbe0b
     364:	05000008 	streq	r0, [r0, #-8]
     368:	13490035 	movtne	r0, #36917	; 0x9035
     36c:	01060000 	mrseq	r0, (UNDEF: 6)
     370:	01134901 	tsteq	r3, r1, lsl #18
     374:	07000013 	smladeq	r0, r3, r0, r0
     378:	13490021 	movtne	r0, #36897	; 0x9021
     37c:	00000b2f 	andeq	r0, r0, pc, lsr #22
     380:	0b011308 	bleq	44fa8 <_Min_Stack_Size+0x44ba8>
     384:	3b0b3a0b 	blcc	2cebb8 <_Min_Stack_Size+0x2ce7b8>
     388:	010b3905 	tsteq	fp, r5, lsl #18
     38c:	09000013 	stmdbeq	r0, {r0, r1, r4}
     390:	0e03000d 	cdpeq	0, 0, cr0, cr3, cr13, {0}
     394:	053b0b3a 	ldreq	r0, [fp, #-2874]!	; 0xfffff4c6
     398:	13490b39 	movtne	r0, #39737	; 0x9b39
     39c:	00000a38 	andeq	r0, r0, r8, lsr sl
     3a0:	03000d0a 	movweq	r0, #3338	; 0xd0a
     3a4:	3b0b3a08 	blcc	2cebcc <_Min_Stack_Size+0x2ce7cc>
     3a8:	490b3905 	stmdbmi	fp, {r0, r2, r8, fp, ip, sp}
     3ac:	000a3813 	andeq	r3, sl, r3, lsl r8
     3b0:	00160b00 	andseq	r0, r6, r0, lsl #22
     3b4:	0b3a0e03 	bleq	e83bc8 <_Min_Stack_Size+0xe837c8>
     3b8:	0b39053b 	bleq	e418ac <_Min_Stack_Size+0xe414ac>
     3bc:	00001349 	andeq	r1, r0, r9, asr #6
     3c0:	0b01130c 	bleq	44ff8 <_Min_Stack_Size+0x44bf8>
     3c4:	3b0b3a0b 	blcc	2cebf8 <_Min_Stack_Size+0x2ce7f8>
     3c8:	010b390b 	tsteq	fp, fp, lsl #18
     3cc:	0d000013 	stceq	0, cr0, [r0, #-76]	; 0xffffffb4
     3d0:	0803000d 	stmdaeq	r3, {r0, r2, r3}
     3d4:	0b3b0b3a 	bleq	ec30c4 <_Min_Stack_Size+0xec2cc4>
     3d8:	13490b39 	movtne	r0, #39737	; 0x9b39
     3dc:	00000a38 	andeq	r0, r0, r8, lsr sl
     3e0:	03000d0e 	movweq	r0, #3342	; 0xd0e
     3e4:	3b0b3a0e 	blcc	2cec24 <_Min_Stack_Size+0x2ce824>
     3e8:	490b390b 	stmdbmi	fp, {r0, r1, r3, r8, fp, ip, sp}
     3ec:	000a3813 	andeq	r3, sl, r3, lsl r8
     3f0:	01040f00 	tsteq	r4, r0, lsl #30
     3f4:	0b0b0b3e 	bleq	2c30f4 <_Min_Stack_Size+0x2c2cf4>
     3f8:	0b3a1349 	bleq	e85124 <_Min_Stack_Size+0xe84d24>
     3fc:	0b390b3b 	bleq	e430f0 <_Min_Stack_Size+0xe42cf0>
     400:	00001301 	andeq	r1, r0, r1, lsl #6
     404:	03002810 	movweq	r2, #2064	; 0x810
     408:	000b1c0e 	andeq	r1, fp, lr, lsl #24
     40c:	012e1100 			; <UNDEFINED> instruction: 0x012e1100
     410:	0e030c3f 	mcreq	12, 0, r0, cr3, cr15, {1}
     414:	0b3b0b3a 	bleq	ec3104 <_Min_Stack_Size+0xec2d04>
     418:	0c270b39 			; <UNDEFINED> instruction: 0x0c270b39
     41c:	01120111 	tsteq	r2, r1, lsl r1
     420:	42970640 	addsmi	r0, r7, #64, 12	; 0x4000000
     424:	0013010c 	andseq	r0, r3, ip, lsl #2
     428:	00341200 	eorseq	r1, r4, r0, lsl #4
     42c:	0b3a0e03 	bleq	e83c40 <_Min_Stack_Size+0xe83840>
     430:	0b390b3b 	bleq	e43124 <_Min_Stack_Size+0xe42d24>
     434:	0a021349 	beq	85160 <_Min_Stack_Size+0x84d60>
     438:	0b130000 	bleq	4c0440 <_Min_Stack_Size+0x4c0040>
     43c:	12011101 	andne	r1, r1, #1073741824	; 0x40000000
     440:	00130101 	andseq	r0, r3, r1, lsl #2
     444:	82891400 	addhi	r1, r9, #0, 8
     448:	01110101 	tsteq	r1, r1, lsl #2
     44c:	13011331 	movwne	r1, #4913	; 0x1331
     450:	8a150000 	bhi	540458 <_Min_Stack_Size+0x540058>
     454:	02000182 	andeq	r0, r0, #-2147483616	; 0x80000020
     458:	0a42910a 	beq	10a4888 <_Min_Stack_Size+0x10a4488>
     45c:	89160000 	ldmdbhi	r6, {}	; <UNPREDICTABLE>
     460:	11010182 	smlabbne	r1, r2, r1, r0
     464:	00133101 	andseq	r3, r3, r1, lsl #2
     468:	002e1700 	eoreq	r1, lr, r0, lsl #14
     46c:	0c3c0c3f 	ldceq	12, cr0, [ip], #-252	; 0xffffff04
     470:	030e4087 	movweq	r4, #57479	; 0xe087
     474:	3b0b3a0e 	blcc	2cecb4 <_Min_Stack_Size+0x2ce8b4>
     478:	000b3905 	andeq	r3, fp, r5, lsl #18
     47c:	11010000 	mrsne	r0, (UNDEF: 1)
     480:	130e2501 	movwne	r2, #58625	; 0xe501
     484:	1b0e030b 	blne	3810b8 <_Min_Stack_Size+0x380cb8>
     488:	1106550e 	tstne	r6, lr, lsl #10
     48c:	10015201 	andne	r5, r1, r1, lsl #4
     490:	02000006 	andeq	r0, r0, #6
     494:	0b0b0024 	bleq	2c052c <_Min_Stack_Size+0x2c012c>
     498:	0e030b3e 	vmoveq.16	d3[0], r0
     49c:	24030000 	strcs	r0, [r3], #-0
     4a0:	3e0b0b00 	vmlacc.f64	d0, d11, d0
     4a4:	0008030b 	andeq	r0, r8, fp, lsl #6
     4a8:	012e0400 			; <UNDEFINED> instruction: 0x012e0400
     4ac:	0e030c3f 	mcreq	12, 0, r0, cr3, cr15, {1}
     4b0:	0b3b0b3a 	bleq	ec31a0 <_Min_Stack_Size+0xec2da0>
     4b4:	0c270b39 			; <UNDEFINED> instruction: 0x0c270b39
     4b8:	01120111 	tsteq	r2, r1, lsl r1
     4bc:	42970640 	addsmi	r0, r7, #64, 12	; 0x4000000
     4c0:	0013010c 	andseq	r0, r3, ip, lsl #2
     4c4:	82890500 	addhi	r0, r9, #0, 10
     4c8:	01110001 	tsteq	r1, r1
     4cc:	00001331 	andeq	r1, r0, r1, lsr r3
     4d0:	3f002e06 	svccc	0x00002e06
     4d4:	3a0e030c 	bcc	38110c <_Min_Stack_Size+0x380d0c>
     4d8:	390b3b0b 	stmdbcc	fp, {r0, r1, r3, r8, r9, fp, ip, sp}
     4dc:	110c270b 	tstne	ip, fp, lsl #14
     4e0:	40011201 	andmi	r1, r1, r1, lsl #4
     4e4:	0c42970a 	mcrreq	7, 0, r9, r2, cr10
     4e8:	2e070000 	cdpcs	0, 0, cr0, cr7, cr0, {0}
     4ec:	3c0c3f00 	stccc	15, cr3, [ip], {-0}
     4f0:	0e40870c 	cdpeq	7, 4, cr8, cr0, cr12, {0}
     4f4:	0b3a0e03 	bleq	e83d08 <_Min_Stack_Size+0xe83908>
     4f8:	0b39053b 	bleq	e419ec <_Min_Stack_Size+0xe415ec>
     4fc:	01000000 	mrseq	r0, (UNDEF: 0)
     500:	0e250111 	mcreq	1, 1, r0, cr5, cr1, {0}
     504:	0e030b13 	vmoveq.32	d3[0], r0
     508:	06550e1b 			; <UNDEFINED> instruction: 0x06550e1b
     50c:	01520111 	cmpeq	r2, r1, lsl r1
     510:	00000610 	andeq	r0, r0, r0, lsl r6
     514:	0b002402 	bleq	9524 <_Min_Stack_Size+0x9124>
     518:	030b3e0b 	movweq	r3, #48651	; 0xbe0b
     51c:	0300000e 	movweq	r0, #14
     520:	0e030016 	mcreq	0, 0, r0, cr3, cr6, {0}
     524:	0b3b0b3a 	bleq	ec3214 <_Min_Stack_Size+0xec2e14>
     528:	13490b39 	movtne	r0, #39737	; 0x9b39
     52c:	24040000 	strcs	r0, [r4], #-0
     530:	3e0b0b00 	vmlacc.f64	d0, d11, d0
     534:	0008030b 	andeq	r0, r8, fp, lsl #6
     538:	00350500 	eorseq	r0, r5, r0, lsl #10
     53c:	00001349 	andeq	r1, r0, r9, asr #6
     540:	0b011306 	bleq	45160 <_Min_Stack_Size+0x44d60>
     544:	3b0b3a0b 	blcc	2ced78 <_Min_Stack_Size+0x2ce978>
     548:	010b3905 	tsteq	fp, r5, lsl #18
     54c:	07000013 	smladeq	r0, r3, r0, r0
     550:	0803000d 	stmdaeq	r3, {r0, r2, r3}
     554:	053b0b3a 	ldreq	r0, [fp, #-2874]!	; 0xfffff4c6
     558:	13490b39 	movtne	r0, #39737	; 0x9b39
     55c:	00000a38 	andeq	r0, r0, r8, lsr sl
     560:	03000d08 	movweq	r0, #3336	; 0xd08
     564:	3b0b3a0e 	blcc	2ceda4 <_Min_Stack_Size+0x2ce9a4>
     568:	490b3905 	stmdbmi	fp, {r0, r2, r8, fp, ip, sp}
     56c:	000a3813 	andeq	r3, sl, r3, lsl r8
     570:	00160900 	andseq	r0, r6, r0, lsl #18
     574:	0b3a0e03 	bleq	e83d88 <_Min_Stack_Size+0xe83988>
     578:	0b39053b 	bleq	e41a6c <_Min_Stack_Size+0xe4166c>
     57c:	00001349 	andeq	r1, r0, r9, asr #6
     580:	3f012e0a 	svccc	0x00012e0a
     584:	3a0e030c 	bcc	3811bc <_Min_Stack_Size+0x380dbc>
     588:	390b3b0b 	stmdbcc	fp, {r0, r1, r3, r8, r9, fp, ip, sp}
     58c:	110c270b 	tstne	ip, fp, lsl #14
     590:	40011201 	andmi	r1, r1, r1, lsl #4
     594:	0c429706 	mcrreq	7, 0, r9, r2, cr6
     598:	00001301 	andeq	r1, r0, r1, lsl #6
     59c:	11010b0b 	tstne	r1, fp, lsl #22
     5a0:	01011201 	tsteq	r1, r1, lsl #4
     5a4:	0c000013 	stceq	0, cr0, [r0], {19}
     5a8:	0e030034 	mcreq	0, 0, r0, cr3, cr4, {1}
     5ac:	0b3b0b3a 	bleq	ec329c <_Min_Stack_Size+0xec2e9c>
     5b0:	13490b39 	movtne	r0, #39737	; 0x9b39
     5b4:	00000a02 	andeq	r0, r0, r2, lsl #20
     5b8:	0182890d 	orreq	r8, r2, sp, lsl #18
     5bc:	31011100 	mrscc	r1, (UNDEF: 17)
     5c0:	0e000013 	mcreq	0, 0, r0, cr0, cr3, {0}
     5c4:	0c3f002e 	ldceq	0, cr0, [pc], #-184	; 514 <_Min_Stack_Size+0x114>
     5c8:	40870c3c 	addmi	r0, r7, ip, lsr ip
     5cc:	3a0e030e 	bcc	38120c <_Min_Stack_Size+0x380e0c>
     5d0:	39053b0b 	stmdbcc	r5, {r0, r1, r3, r8, r9, fp, ip, sp}
     5d4:	0000000b 	andeq	r0, r0, fp
     5d8:	25011101 	strcs	r1, [r1, #-257]	; 0xfffffeff
     5dc:	030b130e 	movweq	r1, #45838	; 0xb30e
     5e0:	550e1b0e 	strpl	r1, [lr, #-2830]	; 0xfffff4f2
     5e4:	52011106 	andpl	r1, r1, #-2147483647	; 0x80000001
     5e8:	00061001 	andeq	r1, r6, r1
     5ec:	00240200 	eoreq	r0, r4, r0, lsl #4
     5f0:	0b3e0b0b 	bleq	f83224 <_Min_Stack_Size+0xf82e24>
     5f4:	00000e03 	andeq	r0, r0, r3, lsl #28
     5f8:	03001603 	movweq	r1, #1539	; 0x603
     5fc:	3b0b3a0e 	blcc	2cee3c <_Min_Stack_Size+0x2cea3c>
     600:	490b390b 	stmdbmi	fp, {r0, r1, r3, r8, fp, ip, sp}
     604:	04000013 	streq	r0, [r0], #-19	; 0xffffffed
     608:	0b0b0024 	bleq	2c06a0 <_Min_Stack_Size+0x2c02a0>
     60c:	08030b3e 	stmdaeq	r3, {r1, r2, r3, r4, r5, r8, r9, fp}
     610:	35050000 	strcc	r0, [r5, #-0]
     614:	00134900 	andseq	r4, r3, r0, lsl #18
     618:	00260600 	eoreq	r0, r6, r0, lsl #12
     61c:	00001349 	andeq	r1, r0, r9, asr #6
     620:	0b011307 	bleq	45244 <_Min_Stack_Size+0x44e44>
     624:	3b0b3a0b 	blcc	2cee58 <_Min_Stack_Size+0x2cea58>
     628:	010b3905 	tsteq	fp, r5, lsl #18
     62c:	08000013 	stmdaeq	r0, {r0, r1, r4}
     630:	0e03000d 	cdpeq	0, 0, cr0, cr3, cr13, {0}
     634:	053b0b3a 	ldreq	r0, [fp, #-2874]!	; 0xfffff4c6
     638:	13490b39 	movtne	r0, #39737	; 0x9b39
     63c:	00000a38 	andeq	r0, r0, r8, lsr sl
     640:	03000d09 	movweq	r0, #3337	; 0xd09
     644:	3b0b3a08 	blcc	2cee6c <_Min_Stack_Size+0x2cea6c>
     648:	490b3905 	stmdbmi	fp, {r0, r2, r8, fp, ip, sp}
     64c:	000a3813 	andeq	r3, sl, r3, lsl r8
     650:	01010a00 	tsteq	r1, r0, lsl #20
     654:	13011349 	movwne	r1, #4937	; 0x1349
     658:	210b0000 	mrscs	r0, (UNDEF: 11)
     65c:	2f134900 	svccs	0x00134900
     660:	0c00000b 	stceq	0, cr0, [r0], {11}
     664:	0e030016 	mcreq	0, 0, r0, cr3, cr6, {0}
     668:	053b0b3a 	ldreq	r0, [fp, #-2874]!	; 0xfffff4c6
     66c:	13490b39 	movtne	r0, #39737	; 0x9b39
     670:	340d0000 	strcc	r0, [sp], #-0
     674:	3a0e0300 	bcc	38127c <_Min_Stack_Size+0x380e7c>
     678:	390b3b0b 	stmdbcc	fp, {r0, r1, r3, r8, r9, fp, ip, sp}
     67c:	3f13490b 	svccc	0x0013490b
     680:	000c3c0c 	andeq	r3, ip, ip, lsl #24
     684:	00340e00 	eorseq	r0, r4, r0, lsl #28
     688:	0b3a1347 	bleq	e853ac <_Min_Stack_Size+0xe84fac>
     68c:	0b390b3b 	bleq	e43380 <_Min_Stack_Size+0xe42f80>
     690:	00000a02 	andeq	r0, r0, r2, lsl #20
     694:	3f012e0f 	svccc	0x00012e0f
     698:	3a0e030c 	bcc	3812d0 <_Min_Stack_Size+0x380ed0>
     69c:	390b3b0b 	stmdbcc	fp, {r0, r1, r3, r8, r9, fp, ip, sp}
     6a0:	110c270b 	tstne	ip, fp, lsl #14
     6a4:	40011201 	andmi	r1, r1, r1, lsl #4
     6a8:	0c42970a 	mcrreq	7, 0, r9, r2, cr10
     6ac:	00001301 	andeq	r1, r0, r1, lsl #6
     6b0:	03003410 	movweq	r3, #1040	; 0x410
     6b4:	3b0b3a08 	blcc	2ceedc <_Min_Stack_Size+0x2ceadc>
     6b8:	490b390b 	stmdbmi	fp, {r0, r1, r3, r8, fp, ip, sp}
     6bc:	b7060213 	smladlt	r6, r3, r2, r0
     6c0:	00000642 	andeq	r0, r0, r2, asr #12
     6c4:	03003411 	movweq	r3, #1041	; 0x411
     6c8:	3b0b3a0e 	blcc	2cef08 <_Min_Stack_Size+0x2ceb08>
     6cc:	490b390b 	stmdbmi	fp, {r0, r1, r3, r8, fp, ip, sp}
     6d0:	b7060213 	smladlt	r6, r3, r2, r0
     6d4:	00000642 	andeq	r0, r0, r2, asr #12
     6d8:	3f002e12 	svccc	0x00002e12
     6dc:	3a0e030c 	bcc	381314 <_Min_Stack_Size+0x380f14>
     6e0:	390b3b0b 	stmdbcc	fp, {r0, r1, r3, r8, r9, fp, ip, sp}
     6e4:	110c270b 	tstne	ip, fp, lsl #14
     6e8:	40011201 	andmi	r1, r1, r1, lsl #4
     6ec:	0c42970a 	mcrreq	7, 0, r9, r2, cr10
     6f0:	01000000 	mrseq	r0, (UNDEF: 0)
     6f4:	0e250111 	mcreq	1, 1, r0, cr5, cr1, {0}
     6f8:	0e030b13 	vmoveq.32	d3[0], r0
     6fc:	06550e1b 			; <UNDEFINED> instruction: 0x06550e1b
     700:	01520111 	cmpeq	r2, r1, lsl r1
     704:	00000610 	andeq	r0, r0, r0, lsl r6
     708:	3e010402 	cdpcc	4, 0, cr0, cr1, cr2, {0}
     70c:	490b0b0b 	stmdbmi	fp, {r0, r1, r3, r8, r9, fp}
     710:	3b0b3a13 	blcc	2cef64 <_Min_Stack_Size+0x2ceb64>
     714:	010b390b 	tsteq	fp, fp, lsl #18
     718:	03000013 	movweq	r0, #19
     71c:	0e030028 	cdpeq	0, 0, cr0, cr3, cr8, {1}
     720:	00000d1c 	andeq	r0, r0, ip, lsl sp
     724:	03002804 	movweq	r2, #2052	; 0x804
     728:	000b1c0e 	andeq	r1, fp, lr, lsl #24
     72c:	00240500 	eoreq	r0, r4, r0, lsl #10
     730:	0b3e0b0b 	bleq	f83364 <_Min_Stack_Size+0xf82f64>
     734:	00000e03 	andeq	r0, r0, r3, lsl #28
     738:	03001606 	movweq	r1, #1542	; 0x606
     73c:	3b0b3a0e 	blcc	2cef7c <_Min_Stack_Size+0x2ceb7c>
     740:	490b390b 	stmdbmi	fp, {r0, r1, r3, r8, fp, ip, sp}
     744:	07000013 	smladeq	r0, r3, r0, r0
     748:	0b0b0024 	bleq	2c07e0 <_Min_Stack_Size+0x2c03e0>
     74c:	08030b3e 	stmdaeq	r3, {r1, r2, r3, r4, r5, r8, r9, fp}
     750:	35080000 	strcc	r0, [r8, #-0]
     754:	00134900 	andseq	r4, r3, r0, lsl #18
     758:	00260900 	eoreq	r0, r6, r0, lsl #18
     75c:	00001349 	andeq	r1, r0, r9, asr #6
     760:	0b01130a 	bleq	45390 <_Min_Stack_Size+0x44f90>
     764:	3b0b3a0b 	blcc	2cef98 <_Min_Stack_Size+0x2ceb98>
     768:	010b3905 	tsteq	fp, r5, lsl #18
     76c:	0b000013 	bleq	7c0 <_Min_Stack_Size+0x3c0>
     770:	0e03000d 	cdpeq	0, 0, cr0, cr3, cr13, {0}
     774:	053b0b3a 	ldreq	r0, [fp, #-2874]!	; 0xfffff4c6
     778:	13490b39 	movtne	r0, #39737	; 0x9b39
     77c:	00000a38 	andeq	r0, r0, r8, lsr sl
     780:	03000d0c 	movweq	r0, #3340	; 0xd0c
     784:	3b0b3a08 	blcc	2cefac <_Min_Stack_Size+0x2cebac>
     788:	490b3905 	stmdbmi	fp, {r0, r2, r8, fp, ip, sp}
     78c:	000a3813 	andeq	r3, sl, r3, lsl r8
     790:	00160d00 	andseq	r0, r6, r0, lsl #26
     794:	0b3a0e03 	bleq	e83fa8 <_Min_Stack_Size+0xe83ba8>
     798:	0b39053b 	bleq	e41c8c <_Min_Stack_Size+0xe4188c>
     79c:	00001349 	andeq	r1, r0, r9, asr #6
     7a0:	0300340e 	movweq	r3, #1038	; 0x40e
     7a4:	3b0b3a0e 	blcc	2cefe4 <_Min_Stack_Size+0x2cebe4>
     7a8:	490b390b 	stmdbmi	fp, {r0, r1, r3, r8, fp, ip, sp}
     7ac:	3c0c3f13 	stccc	15, cr3, [ip], {19}
     7b0:	0f00000c 	svceq	0x0000000c
     7b4:	13490101 	movtne	r0, #37121	; 0x9101
     7b8:	00001301 	andeq	r1, r0, r1, lsl #6
     7bc:	49002110 	stmdbmi	r0, {r4, r8, sp}
     7c0:	000b2f13 	andeq	r2, fp, r3, lsl pc
     7c4:	00341100 	eorseq	r1, r4, r0, lsl #2
     7c8:	0b3a0e03 	bleq	e83fdc <_Min_Stack_Size+0xe83bdc>
     7cc:	0b39053b 	bleq	e41cc0 <_Min_Stack_Size+0xe418c0>
     7d0:	0c3f1349 	ldceq	3, cr1, [pc], #-292	; 6b4 <_Min_Stack_Size+0x2b4>
     7d4:	00000c3c 	andeq	r0, r0, ip, lsr ip
     7d8:	47003412 	smladmi	r0, r2, r4, r3
     7dc:	3b0b3a13 	blcc	2cf030 <_Min_Stack_Size+0x2cec30>
     7e0:	020b390b 	andeq	r3, fp, #180224	; 0x2c000
     7e4:	1300000a 	movwne	r0, #10
     7e8:	0c3f012e 	ldfeqs	f0, [pc], #-184	; 738 <_Min_Stack_Size+0x338>
     7ec:	0b3a0e03 	bleq	e84000 <_Min_Stack_Size+0xe83c00>
     7f0:	0b39053b 	bleq	e41ce4 <_Min_Stack_Size+0xe418e4>
     7f4:	01110c27 	tsteq	r1, r7, lsr #24
     7f8:	0a400112 	beq	1000c48 <_Min_Stack_Size+0x1000848>
     7fc:	010c4297 			; <UNDEFINED> instruction: 0x010c4297
     800:	14000013 	strne	r0, [r0], #-19	; 0xffffffed
     804:	0e030005 	cdpeq	0, 0, cr0, cr3, cr5, {0}
     808:	053b0b3a 	ldreq	r0, [fp, #-2874]!	; 0xfffff4c6
     80c:	13490b39 	movtne	r0, #39737	; 0x9b39
     810:	00000a02 	andeq	r0, r0, r2, lsl #20
     814:	3f002e15 	svccc	0x00002e15
     818:	3a0e030c 	bcc	381450 <_Min_Stack_Size+0x381050>
     81c:	39053b0b 	stmdbcc	r5, {r0, r1, r3, r8, r9, fp, ip, sp}
     820:	110c270b 	tstne	ip, fp, lsl #14
     824:	40011201 	andmi	r1, r1, r1, lsl #4
     828:	0c42970a 	mcrreq	7, 0, r9, r2, cr10
     82c:	2e160000 	cdpcs	0, 1, cr0, cr6, cr0, {0}
     830:	030c3f01 	movweq	r3, #52993	; 0xcf01
     834:	3b0b3a0e 	blcc	2cf074 <_Min_Stack_Size+0x2cec74>
     838:	270b3905 	strcs	r3, [fp, -r5, lsl #18]
     83c:	1113490c 	tstne	r3, ip, lsl #18
     840:	40011201 	andmi	r1, r1, r1, lsl #4
     844:	0c429706 	mcrreq	7, 0, r9, r2, cr6
     848:	00001301 	andeq	r1, r0, r1, lsl #6
     84c:	03003417 	movweq	r3, #1047	; 0x417
     850:	3b0b3a0e 	blcc	2cf090 <_Min_Stack_Size+0x2cec90>
     854:	490b3905 	stmdbmi	fp, {r0, r2, r8, fp, ip, sp}
     858:	b7060213 	smladlt	r6, r3, r2, r0
     85c:	00000642 	andeq	r0, r0, r2, asr #12
     860:	01828918 	orreq	r8, r2, r8, lsl r9
     864:	31011100 	mrscc	r1, (UNDEF: 17)
     868:	19000013 	stmdbne	r0, {r0, r1, r4}
     86c:	0c3f002e 	ldceq	0, cr0, [pc], #-184	; 7bc <_Min_Stack_Size+0x3bc>
     870:	0b3a0e03 	bleq	e84084 <_Min_Stack_Size+0xe83c84>
     874:	0b39053b 	bleq	e41d68 <_Min_Stack_Size+0xe41968>
     878:	13490c27 	movtne	r0, #39975	; 0x9c27
     87c:	01120111 	tsteq	r2, r1, lsl r1
     880:	42970a40 	addsmi	r0, r7, #64, 20	; 0x40000
     884:	1a00000c 	bne	8bc <_Min_Stack_Size+0x4bc>
     888:	0c3f012e 	ldfeqs	f0, [pc], #-184	; 7d8 <_Min_Stack_Size+0x3d8>
     88c:	0b3a0e03 	bleq	e840a0 <_Min_Stack_Size+0xe83ca0>
     890:	0b39053b 	bleq	e41d84 <_Min_Stack_Size+0xe41984>
     894:	01110c27 	tsteq	r1, r7, lsr #24
     898:	06400112 			; <UNDEFINED> instruction: 0x06400112
     89c:	010c4297 			; <UNDEFINED> instruction: 0x010c4297
     8a0:	1b000013 	blne	8f4 <_Min_Stack_Size+0x4f4>
     8a4:	0e030005 	cdpeq	0, 0, cr0, cr3, cr5, {0}
     8a8:	053b0b3a 	ldreq	r0, [fp, #-2874]!	; 0xfffff4c6
     8ac:	13490b39 	movtne	r0, #39737	; 0x9b39
     8b0:	42b70602 	adcsmi	r0, r7, #2097152	; 0x200000
     8b4:	1c000006 	stcne	0, cr0, [r0], {6}
     8b8:	0c3f012e 	ldfeqs	f0, [pc], #-184	; 808 <_Min_Stack_Size+0x408>
     8bc:	0b3a0e03 	bleq	e840d0 <_Min_Stack_Size+0xe83cd0>
     8c0:	0b390b3b 	bleq	e435b4 <_Min_Stack_Size+0xe431b4>
     8c4:	13490c27 	movtne	r0, #39975	; 0x9c27
     8c8:	01120111 	tsteq	r2, r1, lsl r1
     8cc:	42970640 	addsmi	r0, r7, #64, 12	; 0x4000000
     8d0:	0013010c 	andseq	r0, r3, ip, lsl #2
     8d4:	00051d00 	andeq	r1, r5, r0, lsl #26
     8d8:	0b3a0e03 	bleq	e840ec <_Min_Stack_Size+0xe83cec>
     8dc:	0b390b3b 	bleq	e435d0 <_Min_Stack_Size+0xe431d0>
     8e0:	06021349 	streq	r1, [r2], -r9, asr #6
     8e4:	000642b7 			; <UNDEFINED> instruction: 0x000642b7
     8e8:	82891e00 	addhi	r1, r9, #0, 28
     8ec:	01110101 	tsteq	r1, r1, lsl #2
     8f0:	00001331 	andeq	r1, r0, r1, lsr r3
     8f4:	01828a1f 	orreq	r8, r2, pc, lsl sl
     8f8:	910a0200 	mrsls	r0, R10_fiq
     8fc:	00000a42 	andeq	r0, r0, r2, asr #20
     900:	3f002e20 	svccc	0x00002e20
     904:	3a0e030c 	bcc	38153c <_Min_Stack_Size+0x38113c>
     908:	390b3b0b 	stmdbcc	fp, {r0, r1, r3, r8, r9, fp, ip, sp}
     90c:	110c270b 	tstne	ip, fp, lsl #14
     910:	40011201 	andmi	r1, r1, r1, lsl #4
     914:	0c42970a 	mcrreq	7, 0, r9, r2, cr10
     918:	34210000 	strtcc	r0, [r1], #-0
     91c:	3a0e0300 	bcc	381524 <_Min_Stack_Size+0x381124>
     920:	390b3b0b 	stmdbcc	fp, {r0, r1, r3, r8, r9, fp, ip, sp}
     924:	0213490b 	andseq	r4, r3, #180224	; 0x2c000
     928:	0642b706 	strbeq	fp, [r2], -r6, lsl #14
     92c:	89220000 	stmdbhi	r2!, {}	; <UNPREDICTABLE>
     930:	11010182 	smlabbne	r1, r2, r1, r0
     934:	01133101 	tsteq	r3, r1, lsl #2
     938:	23000013 	movwcs	r0, #19
     93c:	0c3f002e 	ldceq	0, cr0, [pc], #-184	; 88c <_Min_Stack_Size+0x48c>
     940:	40870c3c 	addmi	r0, r7, ip, lsr ip
     944:	3a0e030e 	bcc	381584 <_Min_Stack_Size+0x381184>
     948:	39053b0b 	stmdbcc	r5, {r0, r1, r3, r8, r9, fp, ip, sp}
     94c:	0000000b 	andeq	r0, r0, fp
     950:	25011101 	strcs	r1, [r1, #-257]	; 0xfffffeff
     954:	030b130e 	movweq	r1, #45838	; 0xb30e
     958:	550e1b0e 	strpl	r1, [lr, #-2830]	; 0xfffff4f2
     95c:	52011106 	andpl	r1, r1, #-2147483647	; 0x80000001
     960:	00061001 	andeq	r1, r6, r1
     964:	00240200 	eoreq	r0, r4, r0, lsl #4
     968:	0b3e0b0b 	bleq	f8359c <_Min_Stack_Size+0xf8319c>
     96c:	00000e03 	andeq	r0, r0, r3, lsl #28
     970:	03001603 	movweq	r1, #1539	; 0x603
     974:	3b0b3a0e 	blcc	2cf1b4 <_Min_Stack_Size+0x2cedb4>
     978:	490b390b 	stmdbmi	fp, {r0, r1, r3, r8, fp, ip, sp}
     97c:	04000013 	streq	r0, [r0], #-19	; 0xffffffed
     980:	0b0b0024 	bleq	2c0a18 <_Min_Stack_Size+0x2c0618>
     984:	08030b3e 	stmdaeq	r3, {r1, r2, r3, r4, r5, r8, r9, fp}
     988:	26050000 	strcs	r0, [r5], -r0
     98c:	00134900 	andseq	r4, r3, r0, lsl #18
     990:	00350600 	eorseq	r0, r5, r0, lsl #12
     994:	00001349 	andeq	r1, r0, r9, asr #6
     998:	03003407 	movweq	r3, #1031	; 0x407
     99c:	3b0b3a0e 	blcc	2cf1dc <_Min_Stack_Size+0x2ceddc>
     9a0:	490b390b 	stmdbmi	fp, {r0, r1, r3, r8, fp, ip, sp}
     9a4:	3c0c3f13 	stccc	15, cr3, [ip], {19}
     9a8:	0800000c 	stmdaeq	r0, {r2, r3}
     9ac:	13490101 	movtne	r0, #37121	; 0x9101
     9b0:	00001301 	andeq	r1, r0, r1, lsl #6
     9b4:	49002109 	stmdbmi	r0, {r0, r3, r8, sp}
     9b8:	000b2f13 	andeq	r2, fp, r3, lsl pc
     9bc:	01130a00 	tsteq	r3, r0, lsl #20
     9c0:	0b3a0b0b 	bleq	e835f4 <_Min_Stack_Size+0xe831f4>
     9c4:	0b39053b 	bleq	e41eb8 <_Min_Stack_Size+0xe41ab8>
     9c8:	00001301 	andeq	r1, r0, r1, lsl #6
     9cc:	03000d0b 	movweq	r0, #3339	; 0xd0b
     9d0:	3b0b3a08 	blcc	2cf1f8 <_Min_Stack_Size+0x2cedf8>
     9d4:	490b3905 	stmdbmi	fp, {r0, r2, r8, fp, ip, sp}
     9d8:	000a3813 	andeq	r3, sl, r3, lsl r8
     9dc:	000d0c00 	andeq	r0, sp, r0, lsl #24
     9e0:	0b3a0e03 	bleq	e841f4 <_Min_Stack_Size+0xe83df4>
     9e4:	0b39053b 	bleq	e41ed8 <_Min_Stack_Size+0xe41ad8>
     9e8:	0a381349 	beq	e05714 <_Min_Stack_Size+0xe05314>
     9ec:	160d0000 	strne	r0, [sp], -r0
     9f0:	3a0e0300 	bcc	3815f8 <_Min_Stack_Size+0x3811f8>
     9f4:	39053b0b 	stmdbcc	r5, {r0, r1, r3, r8, r9, fp, ip, sp}
     9f8:	0013490b 	andseq	r4, r3, fp, lsl #18
     9fc:	01040e00 	tsteq	r4, r0, lsl #28
     a00:	0b0b0b3e 	bleq	2c3700 <_Min_Stack_Size+0x2c3300>
     a04:	0b3a1349 	bleq	e85730 <_Min_Stack_Size+0xe85330>
     a08:	0b390b3b 	bleq	e436fc <_Min_Stack_Size+0xe432fc>
     a0c:	00001301 	andeq	r1, r0, r1, lsl #6
     a10:	0300280f 	movweq	r2, #2063	; 0x80f
     a14:	000b1c0e 	andeq	r1, fp, lr, lsl #24
     a18:	00281000 	eoreq	r1, r8, r0
     a1c:	0b1c0803 	bleq	702a30 <_Min_Stack_Size+0x702630>
     a20:	13110000 	tstne	r1, #0
     a24:	3a0b0b01 	bcc	2c3630 <_Min_Stack_Size+0x2c3230>
     a28:	390b3b0b 	stmdbcc	fp, {r0, r1, r3, r8, r9, fp, ip, sp}
     a2c:	0013010b 	andseq	r0, r3, fp, lsl #2
     a30:	000d1200 	andeq	r1, sp, r0, lsl #4
     a34:	0b3a0e03 	bleq	e84248 <_Min_Stack_Size+0xe83e48>
     a38:	0b390b3b 	bleq	e4372c <_Min_Stack_Size+0xe4332c>
     a3c:	0a381349 	beq	e05768 <_Min_Stack_Size+0xe05368>
     a40:	0d130000 	ldceq	0, cr0, [r3, #-0]
     a44:	3a080300 	bcc	20164c <_Min_Stack_Size+0x20124c>
     a48:	390b3b0b 	stmdbcc	fp, {r0, r1, r3, r8, r9, fp, ip, sp}
     a4c:	3813490b 	ldmdacc	r3, {r0, r1, r3, r8, fp, lr}
     a50:	1400000a 	strne	r0, [r0], #-10
     a54:	0e030034 	mcreq	0, 0, r0, cr3, cr4, {1}
     a58:	053b0b3a 	ldreq	r0, [fp, #-2874]!	; 0xfffff4c6
     a5c:	13490b39 	movtne	r0, #39737	; 0x9b39
     a60:	0c3c0c3f 	ldceq	12, cr0, [ip], #-252	; 0xffffff04
     a64:	2e150000 	cdpcs	0, 1, cr0, cr5, cr0, {0}
     a68:	3a0e0301 	bcc	381674 <_Min_Stack_Size+0x381274>
     a6c:	39053b0b 	stmdbcc	r5, {r0, r1, r3, r8, r9, fp, ip, sp}
     a70:	490c270b 	stmdbmi	ip, {r0, r1, r3, r8, r9, sl, sp}
     a74:	12011113 	andne	r1, r1, #-1073741820	; 0xc0000004
     a78:	970a4001 	strls	r4, [sl, -r1]
     a7c:	13010c42 	movwne	r0, #7234	; 0x1c42
     a80:	34160000 	ldrcc	r0, [r6], #-0
     a84:	3a0e0300 	bcc	38168c <_Min_Stack_Size+0x38128c>
     a88:	39053b0b 	stmdbcc	r5, {r0, r1, r3, r8, r9, fp, ip, sp}
     a8c:	0213490b 	andseq	r4, r3, #180224	; 0x2c000
     a90:	0642b706 	strbeq	fp, [r2], -r6, lsl #14
     a94:	2e170000 	cdpcs	0, 1, cr0, cr7, cr0, {0}
     a98:	030c3f00 	movweq	r3, #52992	; 0xcf00
     a9c:	3b0b3a0e 	blcc	2cf2dc <_Min_Stack_Size+0x2ceedc>
     aa0:	270b3905 	strcs	r3, [fp, -r5, lsl #18]
     aa4:	1201110c 	andne	r1, r1, #12, 2
     aa8:	970a4001 	strls	r4, [sl, -r1]
     aac:	00000c42 	andeq	r0, r0, r2, asr #24
     ab0:	3f012e18 	svccc	0x00012e18
     ab4:	3a0e030c 	bcc	3816ec <_Min_Stack_Size+0x3812ec>
     ab8:	39053b0b 	stmdbcc	r5, {r0, r1, r3, r8, r9, fp, ip, sp}
     abc:	110c270b 	tstne	ip, fp, lsl #14
     ac0:	40011201 	andmi	r1, r1, r1, lsl #4
     ac4:	0c429706 	mcrreq	7, 0, r9, r2, cr6
     ac8:	00001301 	andeq	r1, r0, r1, lsl #6
     acc:	01828919 	orreq	r8, r2, r9, lsl r9
     ad0:	31011100 	mrscc	r1, (UNDEF: 17)
     ad4:	1a000013 	bne	b28 <_Min_Stack_Size+0x728>
     ad8:	0c3f012e 	ldfeqs	f0, [pc], #-184	; a28 <_Min_Stack_Size+0x628>
     adc:	0b3a0e03 	bleq	e842f0 <_Min_Stack_Size+0xe83ef0>
     ae0:	0b39053b 	bleq	e41fd4 <_Min_Stack_Size+0xe41bd4>
     ae4:	01110c27 	tsteq	r1, r7, lsr #24
     ae8:	0a400112 	beq	1000f38 <_Min_Stack_Size+0x1000b38>
     aec:	010c4297 			; <UNDEFINED> instruction: 0x010c4297
     af0:	1b000013 	blne	b44 <_Min_Stack_Size+0x744>
     af4:	0e030005 	cdpeq	0, 0, cr0, cr3, cr5, {0}
     af8:	053b0b3a 	ldreq	r0, [fp, #-2874]!	; 0xfffff4c6
     afc:	13490b39 	movtne	r0, #39737	; 0x9b39
     b00:	00000a02 	andeq	r0, r0, r2, lsl #20
     b04:	0b000f1c 	bleq	477c <_Min_Stack_Size+0x437c>
     b08:	0013490b 	andseq	r4, r3, fp, lsl #18
     b0c:	012e1d00 			; <UNDEFINED> instruction: 0x012e1d00
     b10:	0e030c3f 	mcreq	12, 0, r0, cr3, cr15, {1}
     b14:	053b0b3a 	ldreq	r0, [fp, #-2874]!	; 0xfffff4c6
     b18:	0c270b39 			; <UNDEFINED> instruction: 0x0c270b39
     b1c:	01111349 	tsteq	r1, r9, asr #6
     b20:	06400112 			; <UNDEFINED> instruction: 0x06400112
     b24:	010c4297 			; <UNDEFINED> instruction: 0x010c4297
     b28:	1e000013 	mcrne	0, 0, r0, cr0, cr3, {0}
     b2c:	0c3f002e 	ldceq	0, cr0, [pc], #-184	; a7c <_Min_Stack_Size+0x67c>
     b30:	0b3a0e03 	bleq	e84344 <_Min_Stack_Size+0xe83f44>
     b34:	0b39053b 	bleq	e42028 <_Min_Stack_Size+0xe41c28>
     b38:	13490c27 	movtne	r0, #39975	; 0x9c27
     b3c:	01120111 	tsteq	r2, r1, lsl r1
     b40:	42970a40 	addsmi	r0, r7, #64, 20	; 0x40000
     b44:	1f00000c 	svcne	0x0000000c
     b48:	0c3f012e 	ldfeqs	f0, [pc], #-184	; a98 <_Min_Stack_Size+0x698>
     b4c:	0b3a0e03 	bleq	e84360 <_Min_Stack_Size+0xe83f60>
     b50:	0b39053b 	bleq	e42044 <_Min_Stack_Size+0xe41c44>
     b54:	13490c27 	movtne	r0, #39975	; 0x9c27
     b58:	01120111 	tsteq	r2, r1, lsl r1
     b5c:	42970a40 	addsmi	r0, r7, #64, 20	; 0x40000
     b60:	0013010c 	andseq	r0, r3, ip, lsl #2
     b64:	00052000 	andeq	r2, r5, r0
     b68:	0b3a0e03 	bleq	e8437c <_Min_Stack_Size+0xe83f7c>
     b6c:	0b39053b 	bleq	e42060 <_Min_Stack_Size+0xe41c60>
     b70:	06021349 	streq	r1, [r2], -r9, asr #6
     b74:	000642b7 			; <UNDEFINED> instruction: 0x000642b7
     b78:	00342100 	eorseq	r2, r4, r0, lsl #2
     b7c:	0b3a0e03 	bleq	e84390 <_Min_Stack_Size+0xe83f90>
     b80:	0b39053b 	bleq	e42074 <_Min_Stack_Size+0xe41c74>
     b84:	0a021349 	beq	858b0 <_Min_Stack_Size+0x854b0>
     b88:	89220000 	stmdbhi	r2!, {}	; <UNPREDICTABLE>
     b8c:	11010182 	smlabbne	r1, r2, r1, r0
     b90:	00133101 	andseq	r3, r3, r1, lsl #2
     b94:	828a2300 	addhi	r2, sl, #0, 6
     b98:	0a020001 	beq	80ba4 <_Min_Stack_Size+0x807a4>
     b9c:	000a4291 	muleq	sl, r1, r2
     ba0:	010b2400 	tsteq	fp, r0, lsl #8
     ba4:	13010655 	movwne	r0, #5717	; 0x1655
     ba8:	0b250000 	bleq	940bb0 <_Min_Stack_Size+0x9407b0>
     bac:	12011101 	andne	r1, r1, #1073741824	; 0x40000000
     bb0:	00130101 	andseq	r0, r3, r1, lsl #2
     bb4:	012e2600 			; <UNDEFINED> instruction: 0x012e2600
     bb8:	0e030c3f 	mcreq	12, 0, r0, cr3, cr15, {1}
     bbc:	0b3b0b3a 	bleq	ec38ac <_Min_Stack_Size+0xec34ac>
     bc0:	0c270b39 			; <UNDEFINED> instruction: 0x0c270b39
     bc4:	01111349 	tsteq	r1, r9, asr #6
     bc8:	06400112 			; <UNDEFINED> instruction: 0x06400112
     bcc:	010c4297 			; <UNDEFINED> instruction: 0x010c4297
     bd0:	27000013 	smladcs	r0, r3, r0, r0
     bd4:	0e030034 	mcreq	0, 0, r0, cr3, cr4, {1}
     bd8:	0b3b0b3a 	bleq	ec38c8 <_Min_Stack_Size+0xec34c8>
     bdc:	13490b39 	movtne	r0, #39737	; 0x9b39
     be0:	42b70602 	adcsmi	r0, r7, #2097152	; 0x200000
     be4:	28000006 	stmdacs	r0, {r1, r2}
     be8:	0c3f002e 	ldceq	0, cr0, [pc], #-184	; b38 <_Min_Stack_Size+0x738>
     bec:	40870c3c 	addmi	r0, r7, ip, lsr ip
     bf0:	3a0e030e 	bcc	381830 <_Min_Stack_Size+0x381430>
     bf4:	39053b0b 	stmdbcc	r5, {r0, r1, r3, r8, r9, fp, ip, sp}
     bf8:	0000000b 	andeq	r0, r0, fp
     bfc:	25011101 	strcs	r1, [r1, #-257]	; 0xfffffeff
     c00:	030b130e 	movweq	r1, #45838	; 0xb30e
     c04:	550e1b0e 	strpl	r1, [lr, #-2830]	; 0xfffff4f2
     c08:	52011106 	andpl	r1, r1, #-2147483647	; 0x80000001
     c0c:	00061001 	andeq	r1, r6, r1
     c10:	00240200 	eoreq	r0, r4, r0, lsl #4
     c14:	0b3e0b0b 	bleq	f83848 <_Min_Stack_Size+0xf83448>
     c18:	00000e03 	andeq	r0, r0, r3, lsl #28
     c1c:	03001603 	movweq	r1, #1539	; 0x603
     c20:	3b0b3a0e 	blcc	2cf460 <_Min_Stack_Size+0x2cf060>
     c24:	490b390b 	stmdbmi	fp, {r0, r1, r3, r8, fp, ip, sp}
     c28:	04000013 	streq	r0, [r0], #-19	; 0xffffffed
     c2c:	0b0b0024 	bleq	2c0cc4 <_Min_Stack_Size+0x2c08c4>
     c30:	08030b3e 	stmdaeq	r3, {r1, r2, r3, r4, r5, r8, r9, fp}
     c34:	35050000 	strcc	r0, [r5, #-0]
     c38:	00134900 	andseq	r4, r3, r0, lsl #18
     c3c:	01010600 	tsteq	r1, r0, lsl #12
     c40:	13011349 	movwne	r1, #4937	; 0x1349
     c44:	21070000 	mrscs	r0, (UNDEF: 7)
     c48:	2f134900 	svccs	0x00134900
     c4c:	0800000b 	stmdaeq	r0, {r0, r1, r3}
     c50:	0b0b0113 	bleq	2c10a4 <_Min_Stack_Size+0x2c0ca4>
     c54:	053b0b3a 	ldreq	r0, [fp, #-2874]!	; 0xfffff4c6
     c58:	13010b39 	movwne	r0, #6969	; 0x1b39
     c5c:	0d090000 	stceq	0, cr0, [r9, #-0]
     c60:	3a0e0300 	bcc	381868 <_Min_Stack_Size+0x381468>
     c64:	39053b0b 	stmdbcc	r5, {r0, r1, r3, r8, r9, fp, ip, sp}
     c68:	3813490b 	ldmdacc	r3, {r0, r1, r3, r8, fp, lr}
     c6c:	0a00000a 	beq	c9c <_Min_Stack_Size+0x89c>
     c70:	0803000d 	stmdaeq	r3, {r0, r2, r3}
     c74:	053b0b3a 	ldreq	r0, [fp, #-2874]!	; 0xfffff4c6
     c78:	13490b39 	movtne	r0, #39737	; 0x9b39
     c7c:	00000a38 	andeq	r0, r0, r8, lsr sl
     c80:	0300160b 	movweq	r1, #1547	; 0x60b
     c84:	3b0b3a0e 	blcc	2cf4c4 <_Min_Stack_Size+0x2cf0c4>
     c88:	490b3905 	stmdbmi	fp, {r0, r2, r8, fp, ip, sp}
     c8c:	0c000013 	stceq	0, cr0, [r0], {19}
     c90:	0b3e0104 	bleq	f810a8 <_Min_Stack_Size+0xf80ca8>
     c94:	13490b0b 	movtne	r0, #39691	; 0x9b0b
     c98:	0b3b0b3a 	bleq	ec3988 <_Min_Stack_Size+0xec3588>
     c9c:	13010b39 	movwne	r0, #6969	; 0x1b39
     ca0:	280d0000 	stmdacs	sp, {}	; <UNPREDICTABLE>
     ca4:	1c0e0300 	stcne	3, cr0, [lr], {-0}
     ca8:	0e00000b 	cdpeq	0, 0, cr0, cr0, cr11, {0}
     cac:	0b0b0113 	bleq	2c1100 <_Min_Stack_Size+0x2c0d00>
     cb0:	0b3b0b3a 	bleq	ec39a0 <_Min_Stack_Size+0xec35a0>
     cb4:	13010b39 	movwne	r0, #6969	; 0x1b39
     cb8:	0d0f0000 	stceq	0, cr0, [pc, #-0]	; cc0 <_Min_Stack_Size+0x8c0>
     cbc:	3a080300 	bcc	2018c4 <_Min_Stack_Size+0x2014c4>
     cc0:	390b3b0b 	stmdbcc	fp, {r0, r1, r3, r8, r9, fp, ip, sp}
     cc4:	3813490b 	ldmdacc	r3, {r0, r1, r3, r8, fp, lr}
     cc8:	1000000a 	andne	r0, r0, sl
     ccc:	0e03000d 	cdpeq	0, 0, cr0, cr3, cr13, {0}
     cd0:	0b3b0b3a 	bleq	ec39c0 <_Min_Stack_Size+0xec35c0>
     cd4:	13490b39 	movtne	r0, #39737	; 0x9b39
     cd8:	00000a38 	andeq	r0, r0, r8, lsr sl
     cdc:	3f012e11 	svccc	0x00012e11
     ce0:	3a0e030c 	bcc	381918 <_Min_Stack_Size+0x381518>
     ce4:	39053b0b 	stmdbcc	r5, {r0, r1, r3, r8, r9, fp, ip, sp}
     ce8:	110c270b 	tstne	ip, fp, lsl #14
     cec:	40011201 	andmi	r1, r1, r1, lsl #4
     cf0:	0c42970a 	mcrreq	7, 0, r9, r2, cr10
     cf4:	00001301 	andeq	r1, r0, r1, lsl #6
     cf8:	03000512 	movweq	r0, #1298	; 0x512
     cfc:	3b0b3a0e 	blcc	2cf53c <_Min_Stack_Size+0x2cf13c>
     d00:	490b3905 	stmdbmi	fp, {r0, r2, r8, fp, ip, sp}
     d04:	000a0213 	andeq	r0, sl, r3, lsl r2
     d08:	012e1300 			; <UNDEFINED> instruction: 0x012e1300
     d0c:	0e030c3f 	mcreq	12, 0, r0, cr3, cr15, {1}
     d10:	053b0b3a 	ldreq	r0, [fp, #-2874]!	; 0xfffff4c6
     d14:	0c270b39 			; <UNDEFINED> instruction: 0x0c270b39
     d18:	01120111 	tsteq	r2, r1, lsl r1
     d1c:	42970640 	addsmi	r0, r7, #64, 12	; 0x4000000
     d20:	0013010c 	andseq	r0, r3, ip, lsl #2
     d24:	00051400 	andeq	r1, r5, r0, lsl #8
     d28:	0b3a0e03 	bleq	e8453c <_Min_Stack_Size+0xe8413c>
     d2c:	0b39053b 	bleq	e42220 <_Min_Stack_Size+0xe41e20>
     d30:	06021349 	streq	r1, [r2], -r9, asr #6
     d34:	000642b7 			; <UNDEFINED> instruction: 0x000642b7
     d38:	82891500 	addhi	r1, r9, #0, 10
     d3c:	01110001 	tsteq	r1, r1
     d40:	00001331 	andeq	r1, r0, r1, lsr r3
     d44:	3f012e16 	svccc	0x00012e16
     d48:	3a0e030c 	bcc	381980 <_Min_Stack_Size+0x381580>
     d4c:	39053b0b 	stmdbcc	r5, {r0, r1, r3, r8, r9, fp, ip, sp}
     d50:	490c270b 	stmdbmi	ip, {r0, r1, r3, r8, r9, sl, sp}
     d54:	12011113 	andne	r1, r1, #-1073741820	; 0xc0000004
     d58:	97064001 	strls	r4, [r6, -r1]
     d5c:	13010c42 	movwne	r0, #7234	; 0x1c42
     d60:	34170000 	ldrcc	r0, [r7], #-0
     d64:	3a080300 	bcc	20196c <_Min_Stack_Size+0x20156c>
     d68:	39053b0b 	stmdbcc	r5, {r0, r1, r3, r8, r9, fp, ip, sp}
     d6c:	0213490b 	andseq	r4, r3, #180224	; 0x2c000
     d70:	1800000a 	stmdane	r0, {r1, r3}
     d74:	0b0b000f 	bleq	2c0db8 <_Min_Stack_Size+0x2c09b8>
     d78:	00001349 	andeq	r1, r0, r9, asr #6
     d7c:	03003419 	movweq	r3, #1049	; 0x419
     d80:	3b0b3a08 	blcc	2cf5a8 <_Min_Stack_Size+0x2cf1a8>
     d84:	490b3905 	stmdbmi	fp, {r0, r2, r8, fp, ip, sp}
     d88:	b7060213 	smladlt	r6, r3, r2, r0
     d8c:	00000642 	andeq	r0, r0, r2, asr #12
     d90:	3f012e1a 	svccc	0x00012e1a
     d94:	3a0e030c 	bcc	3819cc <_Min_Stack_Size+0x3815cc>
     d98:	39053b0b 	stmdbcc	r5, {r0, r1, r3, r8, r9, fp, ip, sp}
     d9c:	490c270b 	stmdbmi	ip, {r0, r1, r3, r8, r9, sl, sp}
     da0:	12011113 	andne	r1, r1, #-1073741820	; 0xc0000004
     da4:	970a4001 	strls	r4, [sl, -r1]
     da8:	13010c42 	movwne	r0, #7234	; 0x1c42
     dac:	341b0000 	ldrcc	r0, [fp], #-0
     db0:	3a0e0300 	bcc	3819b8 <_Min_Stack_Size+0x3815b8>
     db4:	39053b0b 	stmdbcc	r5, {r0, r1, r3, r8, r9, fp, ip, sp}
     db8:	0213490b 	andseq	r4, r3, #180224	; 0x2c000
     dbc:	0642b706 	strbeq	fp, [r2], -r6, lsl #14
     dc0:	2e1c0000 	cdpcs	0, 1, cr0, cr12, cr0, {0}
     dc4:	030c3f01 	movweq	r3, #52993	; 0xcf01
     dc8:	3b0b3a0e 	blcc	2cf608 <_Min_Stack_Size+0x2cf208>
     dcc:	270b390b 	strcs	r3, [fp, -fp, lsl #18]
     dd0:	1201110c 	andne	r1, r1, #12, 2
     dd4:	97064001 	strls	r4, [r6, -r1]
     dd8:	13010c42 	movwne	r0, #7234	; 0x1c42
     ddc:	051d0000 	ldreq	r0, [sp, #-0]
     de0:	3a0e0300 	bcc	3819e8 <_Min_Stack_Size+0x3815e8>
     de4:	390b3b0b 	stmdbcc	fp, {r0, r1, r3, r8, r9, fp, ip, sp}
     de8:	0213490b 	andseq	r4, r3, #180224	; 0x2c000
     dec:	1e00000a 	cdpne	0, 0, cr0, cr0, cr10, {0}
     df0:	0e030034 	mcreq	0, 0, r0, cr3, cr4, {1}
     df4:	0b3b0b3a 	bleq	ec3ae4 <_Min_Stack_Size+0xec36e4>
     df8:	13490b39 	movtne	r0, #39737	; 0x9b39
     dfc:	42b70602 	adcsmi	r0, r7, #2097152	; 0x200000
     e00:	1f000006 	svcne	0x00000006
     e04:	0111010b 	tsteq	r1, fp, lsl #2
     e08:	00000112 	andeq	r0, r0, r2, lsl r1
     e0c:	03003420 	movweq	r3, #1056	; 0x420
     e10:	3b0b3a0e 	blcc	2cf650 <_Min_Stack_Size+0x2cf250>
     e14:	490b390b 	stmdbmi	fp, {r0, r1, r3, r8, fp, ip, sp}
     e18:	000a0213 	andeq	r0, sl, r3, lsl r2
     e1c:	11010000 	mrsne	r0, (UNDEF: 1)
     e20:	130e2501 	movwne	r2, #58625	; 0xe501
     e24:	1b0e030b 	blne	381a58 <_Min_Stack_Size+0x381658>
     e28:	1106550e 	tstne	r6, lr, lsl #10
     e2c:	10015201 	andne	r5, r1, r1, lsl #4
     e30:	02000006 	andeq	r0, r0, #6
     e34:	0b0b0024 	bleq	2c0ecc <_Min_Stack_Size+0x2c0acc>
     e38:	0e030b3e 	vmoveq.16	d3[0], r0
     e3c:	16030000 	strne	r0, [r3], -r0
     e40:	3a0e0300 	bcc	381a48 <_Min_Stack_Size+0x381648>
     e44:	390b3b0b 	stmdbcc	fp, {r0, r1, r3, r8, r9, fp, ip, sp}
     e48:	0013490b 	andseq	r4, r3, fp, lsl #18
     e4c:	00240400 	eoreq	r0, r4, r0, lsl #8
     e50:	0b3e0b0b 	bleq	f83a84 <_Min_Stack_Size+0xf83684>
     e54:	00000803 	andeq	r0, r0, r3, lsl #16
     e58:	49003505 	stmdbmi	r0, {r0, r2, r8, sl, ip, sp}
     e5c:	06000013 			; <UNDEFINED> instruction: 0x06000013
     e60:	13490026 	movtne	r0, #36902	; 0x9026
     e64:	13070000 	movwne	r0, #28672	; 0x7000
     e68:	3a0b0b01 	bcc	2c3a74 <_Min_Stack_Size+0x2c3674>
     e6c:	39053b0b 	stmdbcc	r5, {r0, r1, r3, r8, r9, fp, ip, sp}
     e70:	0013010b 	andseq	r0, r3, fp, lsl #2
     e74:	000d0800 	andeq	r0, sp, r0, lsl #16
     e78:	0b3a0e03 	bleq	e8468c <_Min_Stack_Size+0xe8428c>
     e7c:	0b39053b 	bleq	e42370 <_Min_Stack_Size+0xe41f70>
     e80:	0a381349 	beq	e05bac <_Min_Stack_Size+0xe057ac>
     e84:	0d090000 	stceq	0, cr0, [r9, #-0]
     e88:	3a080300 	bcc	201a90 <_Min_Stack_Size+0x201690>
     e8c:	39053b0b 	stmdbcc	r5, {r0, r1, r3, r8, r9, fp, ip, sp}
     e90:	3813490b 	ldmdacc	r3, {r0, r1, r3, r8, fp, lr}
     e94:	0a00000a 	beq	ec4 <_Min_Stack_Size+0xac4>
     e98:	13490101 	movtne	r0, #37121	; 0x9101
     e9c:	00001301 	andeq	r1, r0, r1, lsl #6
     ea0:	4900210b 	stmdbmi	r0, {r0, r1, r3, r8, sp}
     ea4:	000b2f13 	andeq	r2, fp, r3, lsl pc
     ea8:	00160c00 	andseq	r0, r6, r0, lsl #24
     eac:	0b3a0e03 	bleq	e846c0 <_Min_Stack_Size+0xe842c0>
     eb0:	0b39053b 	bleq	e423a4 <_Min_Stack_Size+0xe41fa4>
     eb4:	00001349 	andeq	r1, r0, r9, asr #6
     eb8:	0300340d 	movweq	r3, #1037	; 0x40d
     ebc:	3b0b3a0e 	blcc	2cf6fc <_Min_Stack_Size+0x2cf2fc>
     ec0:	490b390b 	stmdbmi	fp, {r0, r1, r3, r8, fp, ip, sp}
     ec4:	3c0c3f13 	stccc	15, cr3, [ip], {19}
     ec8:	0e00000c 	cdpeq	0, 0, cr0, cr0, cr12, {0}
     ecc:	0b3e0104 	bleq	f812e4 <_Min_Stack_Size+0xf80ee4>
     ed0:	13490b0b 	movtne	r0, #39691	; 0x9b0b
     ed4:	0b3b0b3a 	bleq	ec3bc4 <_Min_Stack_Size+0xec37c4>
     ed8:	13010b39 	movwne	r0, #6969	; 0x1b39
     edc:	280f0000 	stmdacs	pc, {}	; <UNPREDICTABLE>
     ee0:	1c0e0300 	stcne	3, cr0, [lr], {-0}
     ee4:	1000000b 	andne	r0, r0, fp
     ee8:	0b0b0113 	bleq	2c133c <_Min_Stack_Size+0x2c0f3c>
     eec:	0b3b0b3a 	bleq	ec3bdc <_Min_Stack_Size+0xec37dc>
     ef0:	13010b39 	movwne	r0, #6969	; 0x1b39
     ef4:	0d110000 	ldceq	0, cr0, [r1, #-0]
     ef8:	3a0e0300 	bcc	381b00 <_Min_Stack_Size+0x381700>
     efc:	390b3b0b 	stmdbcc	fp, {r0, r1, r3, r8, r9, fp, ip, sp}
     f00:	3813490b 	ldmdacc	r3, {r0, r1, r3, r8, fp, lr}
     f04:	1200000a 	andne	r0, r0, #10
     f08:	0c3f002e 	ldceq	0, cr0, [pc], #-184	; e58 <_Min_Stack_Size+0xa58>
     f0c:	0b3a0e03 	bleq	e84720 <_Min_Stack_Size+0xe84320>
     f10:	0b39053b 	bleq	e42404 <_Min_Stack_Size+0xe42004>
     f14:	01110c27 	tsteq	r1, r7, lsr #24
     f18:	0a400112 	beq	1001368 <_Min_Stack_Size+0x1000f68>
     f1c:	000c4297 	muleq	ip, r7, r2
     f20:	012e1300 			; <UNDEFINED> instruction: 0x012e1300
     f24:	0e030c3f 	mcreq	12, 0, r0, cr3, cr15, {1}
     f28:	053b0b3a 	ldreq	r0, [fp, #-2874]!	; 0xfffff4c6
     f2c:	0c270b39 			; <UNDEFINED> instruction: 0x0c270b39
     f30:	01120111 	tsteq	r2, r1, lsl r1
     f34:	42970640 	addsmi	r0, r7, #64, 12	; 0x4000000
     f38:	0013010c 	andseq	r0, r3, ip, lsl #2
     f3c:	82891400 	addhi	r1, r9, #0, 8
     f40:	01110001 	tsteq	r1, r1
     f44:	00001331 	andeq	r1, r0, r1, lsr r3
     f48:	3f012e15 	svccc	0x00012e15
     f4c:	3a0e030c 	bcc	381b84 <_Min_Stack_Size+0x381784>
     f50:	39053b0b 	stmdbcc	r5, {r0, r1, r3, r8, r9, fp, ip, sp}
     f54:	110c270b 	tstne	ip, fp, lsl #14
     f58:	40011201 	andmi	r1, r1, r1, lsl #4
     f5c:	0c42970a 	mcrreq	7, 0, r9, r2, cr10
     f60:	00001301 	andeq	r1, r0, r1, lsl #6
     f64:	03000516 	movweq	r0, #1302	; 0x516
     f68:	3b0b3a0e 	blcc	2cf7a8 <_Min_Stack_Size+0x2cf3a8>
     f6c:	490b3905 	stmdbmi	fp, {r0, r2, r8, fp, ip, sp}
     f70:	000a0213 	andeq	r0, sl, r3, lsl r2
     f74:	012e1700 			; <UNDEFINED> instruction: 0x012e1700
     f78:	0e030c3f 	mcreq	12, 0, r0, cr3, cr15, {1}
     f7c:	053b0b3a 	ldreq	r0, [fp, #-2874]!	; 0xfffff4c6
     f80:	0c270b39 			; <UNDEFINED> instruction: 0x0c270b39
     f84:	01111349 	tsteq	r1, r9, asr #6
     f88:	0a400112 	beq	10013d8 <_Min_Stack_Size+0x1000fd8>
     f8c:	010c4297 			; <UNDEFINED> instruction: 0x010c4297
     f90:	18000013 	stmdane	r0, {r0, r1, r4}
     f94:	0e030034 	mcreq	0, 0, r0, cr3, cr4, {1}
     f98:	053b0b3a 	ldreq	r0, [fp, #-2874]!	; 0xfffff4c6
     f9c:	13490b39 	movtne	r0, #39737	; 0x9b39
     fa0:	42b70602 	adcsmi	r0, r7, #2097152	; 0x200000
     fa4:	19000006 	stmdbne	r0, {r1, r2}
     fa8:	0e030005 	cdpeq	0, 0, cr0, cr3, cr5, {0}
     fac:	053b0b3a 	ldreq	r0, [fp, #-2874]!	; 0xfffff4c6
     fb0:	13490b39 	movtne	r0, #39737	; 0x9b39
     fb4:	42b70602 	adcsmi	r0, r7, #2097152	; 0x200000
     fb8:	1a000006 	bne	fd8 <_Min_Stack_Size+0xbd8>
     fbc:	0b0b000f 	bleq	2c1000 <_Min_Stack_Size+0x2c0c00>
     fc0:	00001349 	andeq	r1, r0, r9, asr #6
     fc4:	3f002e1b 	svccc	0x00002e1b
     fc8:	3a0e030c 	bcc	381c00 <_Min_Stack_Size+0x381800>
     fcc:	390b3b0b 	stmdbcc	fp, {r0, r1, r3, r8, r9, fp, ip, sp}
     fd0:	110c270b 	tstne	ip, fp, lsl #14
     fd4:	40011201 	andmi	r1, r1, r1, lsl #4
     fd8:	0c42970a 	mcrreq	7, 0, r9, r2, cr10
     fdc:	2e1c0000 	cdpcs	0, 1, cr0, cr12, cr0, {0}
     fe0:	030c3f01 	movweq	r3, #52993	; 0xcf01
     fe4:	3b0b3a0e 	blcc	2cf824 <_Min_Stack_Size+0x2cf424>
     fe8:	270b390b 	strcs	r3, [fp, -fp, lsl #18]
     fec:	1201110c 	andne	r1, r1, #12, 2
     ff0:	970a4001 	strls	r4, [sl, -r1]
     ff4:	13010c42 	movwne	r0, #7234	; 0x1c42
     ff8:	051d0000 	ldreq	r0, [sp, #-0]
     ffc:	3a0e0300 	bcc	381c04 <_Min_Stack_Size+0x381804>
    1000:	390b3b0b 	stmdbcc	fp, {r0, r1, r3, r8, r9, fp, ip, sp}
    1004:	0213490b 	andseq	r4, r3, #180224	; 0x2c000
    1008:	1e00000a 	cdpne	0, 0, cr0, cr0, cr10, {0}
    100c:	0c3f012e 	ldfeqs	f0, [pc], #-184	; f5c <_Min_Stack_Size+0xb5c>
    1010:	0b3a0e03 	bleq	e84824 <_Min_Stack_Size+0xe84424>
    1014:	0b390b3b 	bleq	e43d08 <_Min_Stack_Size+0xe43908>
    1018:	13490c27 	movtne	r0, #39975	; 0x9c27
    101c:	01120111 	tsteq	r2, r1, lsl r1
    1020:	42970a40 	addsmi	r0, r7, #64, 20	; 0x40000
    1024:	0013010c 	andseq	r0, r3, ip, lsl #2
    1028:	00051f00 	andeq	r1, r5, r0, lsl #30
    102c:	0b3a0e03 	bleq	e84840 <_Min_Stack_Size+0xe84440>
    1030:	0b390b3b 	bleq	e43d24 <_Min_Stack_Size+0xe43924>
    1034:	06021349 	streq	r1, [r2], -r9, asr #6
    1038:	000642b7 			; <UNDEFINED> instruction: 0x000642b7
    103c:	00342000 	eorseq	r2, r4, r0
    1040:	0b3a0e03 	bleq	e84854 <_Min_Stack_Size+0xe84454>
    1044:	0b390b3b 	bleq	e43d38 <_Min_Stack_Size+0xe43938>
    1048:	06021349 	streq	r1, [r2], -r9, asr #6
    104c:	000642b7 			; <UNDEFINED> instruction: 0x000642b7
    1050:	002e2100 	eoreq	r2, lr, r0, lsl #2
    1054:	0e030c3f 	mcreq	12, 0, r0, cr3, cr15, {1}
    1058:	0b3b0b3a 	bleq	ec3d48 <_Min_Stack_Size+0xec3948>
    105c:	0c270b39 			; <UNDEFINED> instruction: 0x0c270b39
    1060:	01111349 	tsteq	r1, r9, asr #6
    1064:	0a400112 	beq	10014b4 <_Min_Stack_Size+0x10010b4>
    1068:	000c4297 	muleq	ip, r7, r2
    106c:	002e2200 	eoreq	r2, lr, r0, lsl #4
    1070:	0c3c0c3f 	ldceq	12, cr0, [ip], #-252	; 0xffffff04
    1074:	030e4087 	movweq	r4, #57479	; 0xe087
    1078:	3b0b3a0e 	blcc	2cf8b8 <_Min_Stack_Size+0x2cf4b8>
    107c:	000b3905 	andeq	r3, fp, r5, lsl #18
    1080:	11010000 	mrsne	r0, (UNDEF: 1)
    1084:	130e2501 	movwne	r2, #58625	; 0xe501
    1088:	1b0e030b 	blne	381cbc <_Min_Stack_Size+0x3818bc>
    108c:	1106550e 	tstne	r6, lr, lsl #10
    1090:	10015201 	andne	r5, r1, r1, lsl #4
    1094:	02000006 	andeq	r0, r0, #6
    1098:	0b3e0104 	bleq	f814b0 <_Min_Stack_Size+0xf810b0>
    109c:	13490b0b 	movtne	r0, #39691	; 0x9b0b
    10a0:	0b3b0b3a 	bleq	ec3d90 <_Min_Stack_Size+0xec3990>
    10a4:	13010b39 	movwne	r0, #6969	; 0x1b39
    10a8:	28030000 	stmdacs	r3, {}	; <UNPREDICTABLE>
    10ac:	1c0e0300 	stcne	3, cr0, [lr], {-0}
    10b0:	0400000d 	streq	r0, [r0], #-13
    10b4:	0e030028 	cdpeq	0, 0, cr0, cr3, cr8, {1}
    10b8:	00000b1c 	andeq	r0, r0, ip, lsl fp
    10bc:	0b002405 	bleq	a0d8 <_Min_Stack_Size+0x9cd8>
    10c0:	030b3e0b 	movweq	r3, #48651	; 0xbe0b
    10c4:	0600000e 	streq	r0, [r0], -lr
    10c8:	0e030016 	mcreq	0, 0, r0, cr3, cr6, {0}
    10cc:	0b3b0b3a 	bleq	ec3dbc <_Min_Stack_Size+0xec39bc>
    10d0:	13490b39 	movtne	r0, #39737	; 0x9b39
    10d4:	24070000 	strcs	r0, [r7], #-0
    10d8:	3e0b0b00 	vmlacc.f64	d0, d11, d0
    10dc:	0008030b 	andeq	r0, r8, fp, lsl #6
    10e0:	00350800 	eorseq	r0, r5, r0, lsl #16
    10e4:	00001349 	andeq	r1, r0, r9, asr #6
    10e8:	49002609 	stmdbmi	r0, {r0, r3, r9, sl, sp}
    10ec:	0a000013 	beq	1140 <_Min_Stack_Size+0xd40>
    10f0:	050b0113 	streq	r0, [fp, #-275]	; 0xfffffeed
    10f4:	053b0b3a 	ldreq	r0, [fp, #-2874]!	; 0xfffff4c6
    10f8:	13010b39 	movwne	r0, #6969	; 0x1b39
    10fc:	0d0b0000 	stceq	0, cr0, [fp, #-0]
    1100:	3a0e0300 	bcc	381d08 <_Min_Stack_Size+0x381908>
    1104:	39053b0b 	stmdbcc	r5, {r0, r1, r3, r8, r9, fp, ip, sp}
    1108:	3813490b 	ldmdacc	r3, {r0, r1, r3, r8, fp, lr}
    110c:	0c00000a 	stceq	0, cr0, [r0], {10}
    1110:	0803000d 	stmdaeq	r3, {r0, r2, r3}
    1114:	053b0b3a 	ldreq	r0, [fp, #-2874]!	; 0xfffff4c6
    1118:	13490b39 	movtne	r0, #39737	; 0x9b39
    111c:	00000a38 	andeq	r0, r0, r8, lsr sl
    1120:	4901010d 	stmdbmi	r1, {r0, r2, r3, r8}
    1124:	00130113 	andseq	r0, r3, r3, lsl r1
    1128:	00210e00 	eoreq	r0, r1, r0, lsl #28
    112c:	0b2f1349 	bleq	bc5e58 <_Min_Stack_Size+0xbc5a58>
    1130:	210f0000 	mrscs	r0, CPSR
    1134:	2f134900 	svccs	0x00134900
    1138:	10000005 	andne	r0, r0, r5
    113c:	0e030016 	mcreq	0, 0, r0, cr3, cr6, {0}
    1140:	053b0b3a 	ldreq	r0, [fp, #-2874]!	; 0xfffff4c6
    1144:	13490b39 	movtne	r0, #39737	; 0x9b39
    1148:	13110000 	tstne	r1, #0
    114c:	3a0b0b01 	bcc	2c3d58 <_Min_Stack_Size+0x2c3958>
    1150:	39053b0b 	stmdbcc	r5, {r0, r1, r3, r8, r9, fp, ip, sp}
    1154:	0013010b 	andseq	r0, r3, fp, lsl #2
    1158:	01131200 	tsteq	r3, r0, lsl #4
    115c:	0b3a0b0b 	bleq	e83d90 <_Min_Stack_Size+0xe83990>
    1160:	0b390b3b 	bleq	e43e54 <_Min_Stack_Size+0xe43a54>
    1164:	00001301 	andeq	r1, r0, r1, lsl #6
    1168:	03000d13 	movweq	r0, #3347	; 0xd13
    116c:	3b0b3a0e 	blcc	2cf9ac <_Min_Stack_Size+0x2cf5ac>
    1170:	490b390b 	stmdbmi	fp, {r0, r1, r3, r8, fp, ip, sp}
    1174:	000a3813 	andeq	r3, sl, r3, lsl r8
    1178:	012e1400 			; <UNDEFINED> instruction: 0x012e1400
    117c:	0e030c3f 	mcreq	12, 0, r0, cr3, cr15, {1}
    1180:	053b0b3a 	ldreq	r0, [fp, #-2874]!	; 0xfffff4c6
    1184:	0c270b39 			; <UNDEFINED> instruction: 0x0c270b39
    1188:	01120111 	tsteq	r2, r1, lsl r1
    118c:	42970a40 	addsmi	r0, r7, #64, 20	; 0x40000
    1190:	0013010c 	andseq	r0, r3, ip, lsl #2
    1194:	00051500 	andeq	r1, r5, r0, lsl #10
    1198:	0b3a0e03 	bleq	e849ac <_Min_Stack_Size+0xe845ac>
    119c:	0b39053b 	bleq	e42690 <_Min_Stack_Size+0xe42290>
    11a0:	0a021349 	beq	85ecc <_Min_Stack_Size+0x85acc>
    11a4:	0f160000 	svceq	0x00160000
    11a8:	490b0b00 	stmdbmi	fp, {r8, r9, fp}
    11ac:	17000013 	smladne	r0, r3, r0, r0
    11b0:	1331001d 	teqne	r1, #29
    11b4:	42b80152 	adcsmi	r0, r8, #-2147483628	; 0x80000014
    11b8:	1201110b 	andne	r1, r1, #-1073741822	; 0xc0000002
    11bc:	590b5801 	stmdbpl	fp, {r0, fp, ip, lr}
    11c0:	000b5705 	andeq	r5, fp, r5, lsl #14
    11c4:	00051800 	andeq	r1, r5, r0, lsl #16
    11c8:	0b3a0e03 	bleq	e849dc <_Min_Stack_Size+0xe845dc>
    11cc:	0b39053b 	bleq	e426c0 <_Min_Stack_Size+0xe422c0>
    11d0:	06021349 	streq	r1, [r2], -r9, asr #6
    11d4:	000642b7 			; <UNDEFINED> instruction: 0x000642b7
    11d8:	002e1900 	eoreq	r1, lr, r0, lsl #18
    11dc:	0e030c3f 	mcreq	12, 0, r0, cr3, cr15, {1}
    11e0:	053b0b3a 	ldreq	r0, [fp, #-2874]!	; 0xfffff4c6
    11e4:	0c270b39 			; <UNDEFINED> instruction: 0x0c270b39
    11e8:	01120111 	tsteq	r2, r1, lsl r1
    11ec:	42970a40 	addsmi	r0, r7, #64, 20	; 0x40000
    11f0:	1a00000c 	bne	1228 <_Min_Stack_Size+0xe28>
    11f4:	0c3f012e 	ldfeqs	f0, [pc], #-184	; 1144 <_Min_Stack_Size+0xd44>
    11f8:	0b3a0e03 	bleq	e84a0c <_Min_Stack_Size+0xe8460c>
    11fc:	0b39053b 	bleq	e426f0 <_Min_Stack_Size+0xe422f0>
    1200:	01110c27 	tsteq	r1, r7, lsr #24
    1204:	06400112 			; <UNDEFINED> instruction: 0x06400112
    1208:	010c4297 			; <UNDEFINED> instruction: 0x010c4297
    120c:	1b000013 	blne	1260 <_Min_Stack_Size+0xe60>
    1210:	00018289 	andeq	r8, r1, r9, lsl #5
    1214:	13310111 	teqne	r1, #1073741828	; 0x40000004
    1218:	2e1c0000 	cdpcs	0, 1, cr0, cr12, cr0, {0}
    121c:	030c3f01 	movweq	r3, #52993	; 0xcf01
    1220:	3b0b3a0e 	blcc	2cfa60 <_Min_Stack_Size+0x2cf660>
    1224:	270b3905 	strcs	r3, [fp, -r5, lsl #18]
    1228:	1113490c 	tstne	r3, ip, lsl #18
    122c:	40011201 	andmi	r1, r1, r1, lsl #4
    1230:	0c42970a 	mcrreq	7, 0, r9, r2, cr10
    1234:	00001301 	andeq	r1, r0, r1, lsl #6
    1238:	31011d1d 	tstcc	r1, sp, lsl sp
    123c:	b8015213 	stmdalt	r1, {r0, r1, r4, r9, ip, lr}
    1240:	01110b42 	tsteq	r1, r2, asr #22
    1244:	0b580112 	bleq	1601694 <_Min_Stack_Size+0x1601294>
    1248:	0b570559 	bleq	15c27b4 <_Min_Stack_Size+0x15c23b4>
    124c:	051e0000 	ldreq	r0, [lr, #-0]
    1250:	02133100 	andseq	r3, r3, #0, 2
    1254:	0642b706 	strbeq	fp, [r2], -r6, lsl #14
    1258:	1d1f0000 	ldcne	0, cr0, [pc, #-0]	; 1260 <_Min_Stack_Size+0xe60>
    125c:	52133101 	andspl	r3, r3, #1073741824	; 0x40000000
    1260:	0b42b801 	bleq	10af26c <_Min_Stack_Size+0x10aee6c>
    1264:	0b580655 	bleq	1602bc0 <_Min_Stack_Size+0x16027c0>
    1268:	0b570559 	bleq	15c27d4 <_Min_Stack_Size+0x15c23d4>
    126c:	00001301 	andeq	r1, r0, r1, lsl #6
    1270:	31011d20 	tstcc	r1, r0, lsr #26
    1274:	b8015213 	stmdalt	r1, {r0, r1, r4, r9, ip, lr}
    1278:	06550b42 	ldrbeq	r0, [r5], -r2, asr #22
    127c:	05590b58 	ldrbeq	r0, [r9, #-2904]	; 0xfffff4a8
    1280:	00000b57 	andeq	r0, r0, r7, asr fp
    1284:	55010b21 	strpl	r0, [r1, #-2849]	; 0xfffff4df
    1288:	22000006 	andcs	r0, r0, #6
    128c:	13310034 	teqne	r1, #52	; 0x34
    1290:	42b70602 	adcsmi	r0, r7, #2097152	; 0x200000
    1294:	23000006 	movwcs	r0, #6
    1298:	0c3f012e 	ldfeqs	f0, [pc], #-184	; 11e8 <_Min_Stack_Size+0xde8>
    129c:	0b3a0e03 	bleq	e84ab0 <_Min_Stack_Size+0xe846b0>
    12a0:	0b390b3b 	bleq	e43f94 <_Min_Stack_Size+0xe43b94>
    12a4:	13490c27 	movtne	r0, #39975	; 0x9c27
    12a8:	01120111 	tsteq	r2, r1, lsl r1
    12ac:	42970a40 	addsmi	r0, r7, #64, 20	; 0x40000
    12b0:	0013010c 	andseq	r0, r3, ip, lsl #2
    12b4:	00052400 	andeq	r2, r5, r0, lsl #8
    12b8:	0b3a0e03 	bleq	e84acc <_Min_Stack_Size+0xe846cc>
    12bc:	0b390b3b 	bleq	e43fb0 <_Min_Stack_Size+0xe43bb0>
    12c0:	06021349 	streq	r1, [r2], -r9, asr #6
    12c4:	000642b7 			; <UNDEFINED> instruction: 0x000642b7
    12c8:	011d2500 	tsteq	sp, r0, lsl #10
    12cc:	01521331 	cmpeq	r2, r1, lsr r3
    12d0:	110b42b8 			; <UNDEFINED> instruction: 0x110b42b8
    12d4:	58011201 	stmdapl	r1, {r0, r9, ip}
    12d8:	570b590b 	strpl	r5, [fp, -fp, lsl #18]
    12dc:	2600000b 	strcs	r0, [r0], -fp
    12e0:	0c3f012e 	ldfeqs	f0, [pc], #-184	; 1230 <_Min_Stack_Size+0xe30>
    12e4:	0b3a0e03 	bleq	e84af8 <_Min_Stack_Size+0xe846f8>
    12e8:	0b390b3b 	bleq	e43fdc <_Min_Stack_Size+0xe43bdc>
    12ec:	01110c27 	tsteq	r1, r7, lsr #24
    12f0:	0a400112 	beq	1001740 <_Min_Stack_Size+0x1001340>
    12f4:	010c4297 			; <UNDEFINED> instruction: 0x010c4297
    12f8:	27000013 	smladcs	r0, r3, r0, r0
    12fc:	0c3f012e 	ldfeqs	f0, [pc], #-184	; 124c <_Min_Stack_Size+0xe4c>
    1300:	0b3a0e03 	bleq	e84b14 <_Min_Stack_Size+0xe84714>
    1304:	0b390b3b 	bleq	e43ff8 <_Min_Stack_Size+0xe43bf8>
    1308:	01110c27 	tsteq	r1, r7, lsr #24
    130c:	06400112 			; <UNDEFINED> instruction: 0x06400112
    1310:	010c4297 			; <UNDEFINED> instruction: 0x010c4297
    1314:	28000013 	stmdacs	r0, {r0, r1, r4}
    1318:	0e030005 	cdpeq	0, 0, cr0, cr3, cr5, {0}
    131c:	0b3b0b3a 	bleq	ec400c <_Min_Stack_Size+0xec3c0c>
    1320:	13490b39 	movtne	r0, #39737	; 0x9b39
    1324:	00000a02 	andeq	r0, r0, r2, lsl #20
    1328:	03003429 	movweq	r3, #1065	; 0x429
    132c:	3b0b3a0e 	blcc	2cfb6c <_Min_Stack_Size+0x2cf76c>
    1330:	490b390b 	stmdbmi	fp, {r0, r1, r3, r8, fp, ip, sp}
    1334:	b7060213 	smladlt	r6, r3, r2, r0
    1338:	00000642 	andeq	r0, r0, r2, asr #12
    133c:	31001d2a 	tstcc	r0, sl, lsr #26
    1340:	b8015213 	stmdalt	r1, {r0, r1, r4, r9, ip, lr}
    1344:	01110b42 	tsteq	r1, r2, asr #22
    1348:	0b580112 	bleq	1601798 <_Min_Stack_Size+0x1601398>
    134c:	0b570b59 	bleq	15c40b8 <_Min_Stack_Size+0x15c3cb8>
    1350:	1d2b0000 	stcne	0, cr0, [fp, #-0]
    1354:	52133101 	andspl	r3, r3, #1073741824	; 0x40000000
    1358:	0b42b801 	bleq	10af364 <_Min_Stack_Size+0x10aef64>
    135c:	0b580655 	bleq	1602cb8 <_Min_Stack_Size+0x16028b8>
    1360:	0b570b59 	bleq	15c40cc <_Min_Stack_Size+0x15c3ccc>
    1364:	00001301 	andeq	r1, r0, r1, lsl #6
    1368:	31011d2c 	tstcc	r1, ip, lsr #26
    136c:	b8015213 	stmdalt	r1, {r0, r1, r4, r9, ip, lr}
    1370:	06550b42 	ldrbeq	r0, [r5], -r2, asr #22
    1374:	0b590b58 	bleq	16440dc <_Min_Stack_Size+0x1643cdc>
    1378:	00000b57 	andeq	r0, r0, r7, asr fp
    137c:	03012e2d 	movweq	r2, #7725	; 0x1e2d
    1380:	3b0b3a0e 	blcc	2cfbc0 <_Min_Stack_Size+0x2cf7c0>
    1384:	270b3905 	strcs	r3, [fp, -r5, lsl #18]
    1388:	2013490c 	andscs	r4, r3, ip, lsl #18
    138c:	0013010b 	andseq	r0, r3, fp, lsl #2
    1390:	00052e00 	andeq	r2, r5, r0, lsl #28
    1394:	0b3a0e03 	bleq	e84ba8 <_Min_Stack_Size+0xe847a8>
    1398:	0b39053b 	bleq	e4288c <_Min_Stack_Size+0xe4248c>
    139c:	00001349 	andeq	r1, r0, r9, asr #6
    13a0:	03002e2f 	movweq	r2, #3631	; 0xe2f
    13a4:	3b0b3a0e 	blcc	2cfbe4 <_Min_Stack_Size+0x2cf7e4>
    13a8:	270b3905 	strcs	r3, [fp, -r5, lsl #18]
    13ac:	0c01870c 	stceq	7, cr8, [r1], {12}
    13b0:	00000b20 	andeq	r0, r0, r0, lsr #22
    13b4:	03012e30 	movweq	r2, #7728	; 0x1e30
    13b8:	3b0b3a0e 	blcc	2cfbf8 <_Min_Stack_Size+0x2cf7f8>
    13bc:	270b3905 	strcs	r3, [fp, -r5, lsl #18]
    13c0:	010b200c 	tsteq	fp, ip
    13c4:	31000013 	tstcc	r0, r3, lsl r0
    13c8:	0e030034 	mcreq	0, 0, r0, cr3, cr4, {1}
    13cc:	053b0b3a 	ldreq	r0, [fp, #-2874]!	; 0xfffff4c6
    13d0:	13490b39 	movtne	r0, #39737	; 0x9b39
    13d4:	2e320000 	cdpcs	0, 3, cr0, cr2, cr0, {0}
    13d8:	3a0e0300 	bcc	381fe0 <_Min_Stack_Size+0x381be0>
    13dc:	39053b0b 	stmdbcc	r5, {r0, r1, r3, r8, r9, fp, ip, sp}
    13e0:	490c270b 	stmdbmi	ip, {r0, r1, r3, r8, r9, sl, sp}
    13e4:	000b2013 	andeq	r2, fp, r3, lsl r0
    13e8:	002e3300 	eoreq	r3, lr, r0, lsl #6
    13ec:	0b3a0e03 	bleq	e84c00 <_Min_Stack_Size+0xe84800>
    13f0:	0b39053b 	bleq	e428e4 <_Min_Stack_Size+0xe424e4>
    13f4:	0b200c27 	bleq	804498 <_Min_Stack_Size+0x804098>
    13f8:	01000000 	mrseq	r0, (UNDEF: 0)
    13fc:	06100011 			; <UNDEFINED> instruction: 0x06100011
    1400:	0e030655 	mcreq	6, 0, r0, cr3, cr5, {2}
    1404:	0e250e1b 	mcreq	14, 1, r0, cr5, cr11, {0}
    1408:	00000513 	andeq	r0, r0, r3, lsl r5
	...

Disassembly of section .debug_loc:

00000000 <.debug_loc>:
       0:	08000218 	stmdaeq	r0, {r3, r4, r9}
       4:	0800021a 	stmdaeq	r0, {r1, r3, r4, r9}
       8:	007d0002 	rsbseq	r0, sp, r2
       c:	0800021a 	stmdaeq	r0, {r1, r3, r4, r9}
      10:	0800027c 	stmdaeq	r0, {r2, r3, r4, r5, r6, r9}
      14:	107d0002 	rsbsne	r0, sp, r2
	...
      20:	02440000 	subeq	r0, r4, #0
      24:	02700800 	rsbseq	r0, r0, #0, 16
      28:	00010800 	andeq	r0, r1, r0, lsl #16
      2c:	00000055 	andeq	r0, r0, r5, asr r0
      30:	00000000 	andeq	r0, r0, r0
      34:	00000300 	andeq	r0, r0, r0, lsl #6
      38:	50000000 	andpl	r0, r0, r0
      3c:	54080002 	strpl	r0, [r8], #-2
      40:	02080002 	andeq	r0, r8, #2
      44:	549f3000 	ldrpl	r3, [pc], #0	; 4c <_Min_Heap_Size-0x1b4>
      48:	66080002 	strvs	r0, [r8], -r2
      4c:	01080002 	tsteq	r8, r2
      50:	02685400 	rsbeq	r5, r8, #0, 8
      54:	02700800 	rsbseq	r0, r0, #0, 16
      58:	00010800 	andeq	r0, r1, r0, lsl #16
      5c:	00000054 	andeq	r0, r0, r4, asr r0
      60:	00000000 	andeq	r0, r0, r0
      64:	46000000 	strmi	r0, [r0], -r0
      68:	4a080002 	bmi	200078 <_Min_Stack_Size+0x1ffc78>
      6c:	01080002 	tsteq	r8, r2
      70:	00005300 	andeq	r5, r0, r0, lsl #6
      74:	00000000 	andeq	r0, r0, r0
      78:	00020000 	andeq	r0, r2, r0
      7c:	0800024a 	stmdaeq	r0, {r1, r3, r6, r9}
      80:	08000250 	stmdaeq	r0, {r4, r6, r9}
      84:	9f310002 	svcls	0x00310002
	...
      98:	00010000 	andeq	r0, r1, r0
      9c:	00000053 	andeq	r0, r0, r3, asr r0
      a0:	00000000 	andeq	r0, r0, r0
      a4:	00028000 	andeq	r8, r2, r0
      a8:	00028208 	andeq	r8, r2, r8, lsl #4
      ac:	7d000208 	sfmvc	f0, 4, [r0, #-32]	; 0xffffffe0
      b0:	00028200 	andeq	r8, r2, r0, lsl #4
      b4:	00028408 	andeq	r8, r2, r8, lsl #8
      b8:	7d000208 	sfmvc	f0, 4, [r0, #-32]	; 0xffffffe0
      bc:	00028404 	andeq	r8, r2, r4, lsl #8
      c0:	0002e608 	andeq	lr, r2, r8, lsl #12
      c4:	7d000308 	stcvc	3, cr0, [r0, #-32]	; 0xffffffe0
      c8:	02e600d8 	rsceq	r0, r6, #216	; 0xd8
      cc:	02ea0800 	rsceq	r0, sl, #0, 16
      d0:	00020800 	andeq	r0, r2, r0, lsl #16
      d4:	02ea047d 	rsceq	r0, sl, #2097152000	; 0x7d000000
      d8:	02f20800 	rscseq	r0, r2, #0, 16
      dc:	00030800 	andeq	r0, r3, r0, lsl #16
      e0:	0000d87d 	andeq	sp, r0, sp, ror r8
      e4:	00000000 	andeq	r0, r0, r0
      e8:	f2000000 	vhadd.s8	d0, d0, d0
      ec:	f4080002 	vst4.8	{d0-d3}, [r8], r2
      f0:	02080002 	andeq	r0, r8, #2
      f4:	f4007d00 			; <UNDEFINED> instruction: 0xf4007d00
      f8:	06080002 	streq	r0, [r8], -r2
      fc:	02080003 	andeq	r0, r8, #3
     100:	00087d00 	andeq	r7, r8, r0, lsl #26
     104:	00000000 	andeq	r0, r0, r0
     108:	08000000 	stmdaeq	r0, {}	; <UNPREDICTABLE>
     10c:	0a080003 	beq	200120 <_Min_Stack_Size+0x1ffd20>
     110:	02080003 	andeq	r0, r8, #3
     114:	0a007d00 	beq	1f51c <_Min_Stack_Size+0x1f11c>
     118:	0c080003 	stceq	0, cr0, [r8], {3}
     11c:	02080003 	andeq	r0, r8, #3
     120:	0c0c7d00 	stceq	13, cr7, [ip], {-0}
     124:	72080003 	andvc	r0, r8, #3
     128:	02080003 	andeq	r0, r8, #3
     12c:	72307d00 	eorsvc	r7, r0, #0, 26
     130:	7c080003 	stcvc	0, cr0, [r8], {3}
     134:	02080003 	andeq	r0, r8, #3
     138:	000c7d00 	andeq	r7, ip, r0, lsl #26
     13c:	00000000 	andeq	r0, r0, r0
     140:	8c000000 	stchi	0, cr0, [r0], {-0}
     144:	8e080003 	cdphi	0, 0, cr0, cr8, cr3, {0}
     148:	02080003 	andeq	r0, r8, #3
     14c:	8e007d00 	cdphi	13, 0, cr7, cr0, cr0, {0}
     150:	94080003 	strls	r0, [r8], #-3
     154:	02080003 	andeq	r0, r8, #3
     158:	00087d00 	andeq	r7, r8, r0, lsl #26
     15c:	00000000 	andeq	r0, r0, r0
     160:	94000000 	strls	r0, [r0], #-0
     164:	96080003 	strls	r0, [r8], -r3
     168:	02080003 	andeq	r0, r8, #3
     16c:	96007d00 	strls	r7, [r0], -r0, lsl #26
     170:	98080003 	stmdals	r8, {r0, r1}
     174:	02080003 	andeq	r0, r8, #3
     178:	98047d00 	stmdals	r4, {r8, sl, fp, ip, sp, lr}
     17c:	c4080003 	strgt	r0, [r8], #-3
     180:	02080003 	andeq	r0, r8, #3
     184:	c4107d00 	ldrgt	r7, [r0], #-3328	; 0xfffff300
     188:	cc080003 	stcgt	0, cr0, [r8], {3}
     18c:	02080003 	andeq	r0, r8, #3
     190:	00047d00 	andeq	r7, r4, r0, lsl #26
	...
     1a4:	51000100 	mrspl	r0, (UNDEF: 16)
	...
     1bc:	00010000 	andeq	r0, r1, r0
     1c0:	00000052 	andeq	r0, r0, r2, asr r0
     1c4:	00000000 	andeq	r0, r0, r0
     1c8:	53000100 	movwpl	r0, #256	; 0x100
	...
     1d4:	00520001 	subseq	r0, r2, r1
	...
     1e8:	52000100 	andpl	r0, r0, #0, 2
	...
     200:	00520001 	subseq	r0, r2, r1
     204:	00000000 	andeq	r0, r0, r0
     208:	01000000 	mrseq	r0, (UNDEF: 0)
     20c:	00005200 	andeq	r5, r0, r0, lsl #4
	...
     220:	00010000 	andeq	r0, r1, r0
     224:	00000053 	andeq	r0, r0, r3, asr r0
     228:	00000000 	andeq	r0, r0, r0
     22c:	53000100 	movwpl	r0, #256	; 0x100
	...
     240:	007d0002 	rsbseq	r0, sp, r2
	...
     24c:	087d0002 	ldmdaeq	sp!, {r1}^
	...
     258:	00010100 	andeq	r0, r1, r0, lsl #2
	...
     264:	00500001 	subseq	r0, r0, r1
     268:	00000000 	andeq	r0, r0, r0
     26c:	01000000 	mrseq	r0, (UNDEF: 0)
     270:	00005400 	andeq	r5, r0, r0, lsl #8
     274:	00000000 	andeq	r0, r0, r0
     278:	04740000 	ldrbteq	r0, [r4], #-0
     27c:	04760800 	ldrbteq	r0, [r6], #-2048	; 0xfffff800
     280:	00020800 	andeq	r0, r2, r0, lsl #16
     284:	0476007d 	ldrbteq	r0, [r6], #-125	; 0xffffff83
     288:	049c0800 	ldreq	r0, [ip], #2048	; 0x800
     28c:	00020800 	andeq	r0, r2, r0, lsl #16
     290:	0000107d 	andeq	r1, r0, sp, ror r0
	...
     2a0:	08000474 	stmdaeq	r0, {r2, r4, r5, r6, sl}
     2a4:	0800047b 	stmdaeq	r0, {r0, r1, r3, r4, r5, r6, sl}
     2a8:	7b500001 	blvc	14002b4 <_Min_Stack_Size+0x13ffeb4>
     2ac:	8a080004 	bhi	2002c4 <_Min_Stack_Size+0x1ffec4>
     2b0:	01080004 	tsteq	r8, r4
     2b4:	048a5400 	streq	r5, [sl], #1024	; 0x400
     2b8:	049c0800 	ldreq	r0, [ip], #2048	; 0x800
     2bc:	00040800 	andeq	r0, r4, r0, lsl #16
     2c0:	9f5001f3 	svcls	0x005001f3
	...
     2d0:	0800047e 	stmdaeq	r0, {r1, r2, r3, r4, r5, r6, sl}
     2d4:	0800048a 	stmdaeq	r0, {r1, r3, r7, sl}
     2d8:	8a500001 	bhi	14002e4 <_Min_Stack_Size+0x13ffee4>
     2dc:	96080004 	strls	r0, [r8], -r4
     2e0:	01080004 	tsteq	r8, r4
     2e4:	00005500 	andeq	r5, r0, r0, lsl #10
     2e8:	00000000 	andeq	r0, r0, r0
     2ec:	00010000 	andeq	r0, r1, r0
     2f0:	0800047e 	stmdaeq	r0, {r1, r2, r3, r4, r5, r6, sl}
     2f4:	08000496 	stmdaeq	r0, {r1, r2, r4, r7, sl}
     2f8:	00540001 	subseq	r0, r4, r1
	...
     308:	02000000 	andeq	r0, r0, #0
     30c:	00007d00 	andeq	r7, r0, r0, lsl #26
     310:	00000000 	andeq	r0, r0, r0
     314:	02000000 	andeq	r0, r0, #0
     318:	00087d00 	andeq	r7, r8, r0, lsl #26
	...
     334:	50000100 	andpl	r0, r0, r0, lsl #2
	...
     340:	01f30004 	mvnseq	r0, r4
     344:	00009f50 	andeq	r9, r0, r0, asr pc
     348:	00000000 	andeq	r0, r0, r0
     34c:	00010000 	andeq	r0, r1, r0
     350:	00000050 	andeq	r0, r0, r0, asr r0
     354:	00000000 	andeq	r0, r0, r0
     358:	03000500 	movweq	r0, #1280	; 0x500
     35c:	20000004 	andcs	r0, r0, r4
	...
     368:	01f30004 	mvnseq	r0, r4
     36c:	00009f50 	andeq	r9, r0, r0, asr pc
     370:	00000000 	andeq	r0, r0, r0
     374:	00010000 	andeq	r0, r1, r0
	...
     384:	00020000 	andeq	r0, r2, r0
     388:	00009f30 	andeq	r9, r0, r0, lsr pc
     38c:	00000000 	andeq	r0, r0, r0
     390:	00010000 	andeq	r0, r1, r0
     394:	00000050 	andeq	r0, r0, r0, asr r0
     398:	00000000 	andeq	r0, r0, r0
     39c:	30000200 	andcc	r0, r0, r0, lsl #4
     3a0:	0000009f 	muleq	r0, pc, r0	; <UNPREDICTABLE>
     3a4:	00000000 	andeq	r0, r0, r0
     3a8:	50000100 	andpl	r0, r0, r0, lsl #2
	...
     3b4:	00000001 	andeq	r0, r0, r1
     3b8:	00000000 	andeq	r0, r0, r0
     3bc:	00010000 	andeq	r0, r1, r0
     3c0:	00000054 	andeq	r0, r0, r4, asr r0
     3c4:	00000000 	andeq	r0, r0, r0
     3c8:	0003e000 	andeq	lr, r3, r0
     3cc:	0003ec08 	andeq	lr, r3, r8, lsl #24
     3d0:	7d000208 	sfmvc	f0, 4, [r0, #-32]	; 0xffffffe0
     3d4:	0003ec00 	andeq	lr, r3, r0, lsl #24
     3d8:	00043008 	andeq	r3, r4, r8
     3dc:	7d000208 	sfmvc	f0, 4, [r0, #-32]	; 0xffffffe0
     3e0:	00000008 	andeq	r0, r0, r8
	...
     3f0:	e0000000 	and	r0, r0, r0
     3f4:	e8080003 	stmda	r8, {r0, r1}
     3f8:	01080003 	tsteq	r8, r3
     3fc:	03e85000 	mvneq	r5, #0
     400:	03ea0800 	mvneq	r0, #0, 16
     404:	00040800 	andeq	r0, r4, r0, lsl #16
     408:	9f5001f3 	svcls	0x005001f3
     40c:	080003ea 	stmdaeq	r0, {r1, r3, r5, r6, r7, r8, r9}
     410:	080003f2 	stmdaeq	r0, {r1, r4, r5, r6, r7, r8, r9}
     414:	f2500001 	vhadd.s16	d16, d0, d1
     418:	24080003 	strcs	r0, [r8], #-3
     41c:	01080004 	tsteq	r8, r4
     420:	04245400 	strteq	r5, [r4], #-1024	; 0xfffffc00
     424:	04300800 	ldrteq	r0, [r0], #-2048	; 0xfffff800
     428:	00040800 	andeq	r0, r4, r0, lsl #16
     42c:	9f5001f3 	svcls	0x005001f3
	...
     438:	00000002 	andeq	r0, r0, r2
     43c:	00000000 	andeq	r0, r0, r0
     440:	080003e0 	stmdaeq	r0, {r5, r6, r7, r8, r9}
     444:	080003e8 	stmdaeq	r0, {r3, r5, r6, r7, r8, r9}
     448:	9f300002 	svcls	0x00300002
     44c:	080003e8 	stmdaeq	r0, {r3, r5, r6, r7, r8, r9}
     450:	080003ea 	stmdaeq	r0, {r1, r3, r5, r6, r7, r8, r9}
     454:	ea500001 	b	1400460 <_Min_Stack_Size+0x1400060>
     458:	22080003 	andcs	r0, r8, #3
     45c:	02080004 	andeq	r0, r8, #4
     460:	229f3000 	addscs	r3, pc, #0
     464:	30080004 	andcc	r0, r8, r4
     468:	01080004 	tsteq	r8, r4
     46c:	00005000 	andeq	r5, r0, r0
	...
     47c:	00020000 	andeq	r0, r2, r0
     480:	0000007d 	andeq	r0, r0, sp, ror r0
     484:	00000000 	andeq	r0, r0, r0
     488:	00020000 	andeq	r0, r2, r0
     48c:	0000087d 	andeq	r0, r0, sp, ror r8
     490:	00000000 	andeq	r0, r0, r0
     494:	04300000 	ldrteq	r0, [r0], #-0
     498:	04320800 	ldrteq	r0, [r2], #-2048	; 0xfffff800
     49c:	00020800 	andeq	r0, r2, r0, lsl #16
     4a0:	0432007d 	ldrteq	r0, [r2], #-125	; 0xffffff83
     4a4:	044e0800 	strbeq	r0, [lr], #-2048	; 0xfffff800
     4a8:	00020800 	andeq	r0, r2, r0, lsl #16
     4ac:	0000087d 	andeq	r0, r0, sp, ror r8
     4b0:	00000000 	andeq	r0, r0, r0
     4b4:	00010000 	andeq	r0, r1, r0
     4b8:	00000000 	andeq	r0, r0, r0
     4bc:	08000432 	stmdaeq	r0, {r1, r4, r5, sl}
     4c0:	08000442 	stmdaeq	r0, {r1, r6, sl}
     4c4:	9f300002 	svcls	0x00300002
     4c8:	08000442 	stmdaeq	r0, {r1, r6, sl}
     4cc:	08000446 	stmdaeq	r0, {r1, r2, r6, sl}
     4d0:	46540001 	ldrbmi	r0, [r4], -r1
     4d4:	4e080004 	cdpmi	0, 0, cr0, cr8, cr4, {0}
     4d8:	02080004 	andeq	r0, r8, #4
     4dc:	009f3000 	addseq	r3, pc, r0
	...
     4e8:	c2000000 	andgt	r0, r0, #0
     4ec:	d2080004 	andle	r0, r8, #4
     4f0:	01080004 	tsteq	r8, r4
     4f4:	04e65000 	strbteq	r5, [r6], #0
     4f8:	04f40800 	ldrbteq	r0, [r4], #2048	; 0x800
     4fc:	00010800 	andeq	r0, r1, r0, lsl #16
     500:	00000050 	andeq	r0, r0, r0, asr r0
     504:	00000000 	andeq	r0, r0, r0
     508:	a4000000 	strge	r0, [r0], #-0
     50c:	f4080004 	vst4.8	{d0-d3}, [r8], r4
     510:	01080004 	tsteq	r8, r4
     514:	00005200 	andeq	r5, r0, r0, lsl #4
	...
     520:	080004ce 	stmdaeq	r0, {r1, r2, r3, r6, r7, sl}
     524:	080004d4 	stmdaeq	r0, {r2, r4, r6, r7, sl}
     528:	00530001 	subseq	r0, r3, r1
	...
     534:	ac000000 	stcge	0, cr0, [r0], {-0}
     538:	b8080004 	stmdalt	r8, {r2}
     53c:	01080004 	tsteq	r8, r4
     540:	04d45300 	ldrbeq	r5, [r4], #768	; 0x300
     544:	04dc0800 	ldrbeq	r0, [ip], #2048	; 0x800
     548:	00010800 	andeq	r0, r1, r0, lsl #16
     54c:	00000053 	andeq	r0, r0, r3, asr r0
     550:	00000000 	andeq	r0, r0, r0
     554:	00000100 	andeq	r0, r0, r0, lsl #2
     558:	0004ce00 	andeq	ip, r4, r0, lsl #28
     55c:	0004d208 	andeq	sp, r4, r8, lsl #4
     560:	70000c08 	andvc	r0, r0, r8, lsl #24
     564:	7329f700 	msrvc	CPSR_fc, #0, 14
     568:	1b29f700 	blne	a7e170 <_Min_Stack_Size+0xa7dd70>
     56c:	d29f00f7 	addsle	r0, pc, #247	; 0xf7
     570:	d4080004 	strle	r0, [r8], #-4
     574:	01080004 	tsteq	r8, r4
     578:	00005000 	andeq	r5, r0, r0
	...
     588:	00020000 	andeq	r0, r2, r0
     58c:	0000007d 	andeq	r0, r0, sp, ror r0
     590:	00000000 	andeq	r0, r0, r0
     594:	00020000 	andeq	r0, r2, r0
     598:	0000087d 	andeq	r0, r0, sp, ror r8
	...
     5a8:	00020000 	andeq	r0, r2, r0
     5ac:	0000007d 	andeq	r0, r0, sp, ror r0
     5b0:	00000000 	andeq	r0, r0, r0
     5b4:	00020000 	andeq	r0, r2, r0
     5b8:	0000087d 	andeq	r0, r0, sp, ror r8
	...
     5c8:	00020000 	andeq	r0, r2, r0
     5cc:	0000007d 	andeq	r0, r0, sp, ror r0
     5d0:	00000000 	andeq	r0, r0, r0
     5d4:	00020000 	andeq	r0, r2, r0
     5d8:	0000087d 	andeq	r0, r0, sp, ror r8
	...
     5e4:	0a2a0000 	beq	a805ec <_Min_Stack_Size+0xa801ec>
     5e8:	0a3a0800 	beq	e825f0 <_Min_Stack_Size+0xe821f0>
     5ec:	00010800 	andeq	r0, r1, r0, lsl #16
     5f0:	000a4e50 	andeq	r4, sl, r0, asr lr
     5f4:	000a5008 	andeq	r5, sl, r8
     5f8:	50000108 	andpl	r0, r0, r8, lsl #2
	...
     604:	0a0c0000 	beq	30060c <_Min_Stack_Size+0x30020c>
     608:	0a500800 	beq	1402610 <_Min_Stack_Size+0x1402210>
     60c:	00010800 	andeq	r0, r1, r0, lsl #16
     610:	00000052 	andeq	r0, r0, r2, asr r0
     614:	00000000 	andeq	r0, r0, r0
     618:	36000000 	strcc	r0, [r0], -r0
     61c:	3c08000a 	stccc	0, cr0, [r8], {10}
     620:	0108000a 	tsteq	r8, sl
     624:	00005300 	andeq	r5, r0, r0, lsl #6
	...
     630:	0a140000 	beq	500638 <_Min_Stack_Size+0x500238>
     634:	0a200800 	beq	80263c <_Min_Stack_Size+0x80223c>
     638:	00010800 	andeq	r0, r1, r0, lsl #16
     63c:	000a3c53 	andeq	r3, sl, r3, asr ip
     640:	000a4408 	andeq	r4, sl, r8, lsl #8
     644:	53000108 	movwpl	r0, #264	; 0x108
	...
     654:	08000a02 	stmdaeq	r0, {r1, r9, fp}
     658:	08000a04 	stmdaeq	r0, {r2, r9, fp}
     65c:	9f300002 	svcls	0x00300002
     660:	08000a3a 	stmdaeq	r0, {r1, r3, r4, r5, r9, fp}
     664:	08000a3c 	stmdaeq	r0, {r2, r3, r4, r5, r9, fp}
     668:	00500001 	subseq	r0, r0, r1
	...
     678:	02000000 	andeq	r0, r0, #0
     67c:	00007d00 	andeq	r7, r0, r0, lsl #26
     680:	00000000 	andeq	r0, r0, r0
     684:	02000000 	andeq	r0, r0, #0
     688:	00107d00 	andseq	r7, r0, r0, lsl #26
     68c:	00000000 	andeq	r0, r0, r0
     690:	02000000 	andeq	r0, r0, #0
     694:	00287d00 	eoreq	r7, r8, r0, lsl #26
     698:	00000000 	andeq	r0, r0, r0
     69c:	02000000 	andeq	r0, r0, #0
     6a0:	00107d00 	andseq	r7, r0, r0, lsl #26
	...
     6b4:	01000000 	mrseq	r0, (UNDEF: 0)
     6b8:	00005000 	andeq	r5, r0, r0
     6bc:	00000000 	andeq	r0, r0, r0
     6c0:	00040000 	andeq	r0, r4, r0
     6c4:	9f5001f3 	svcls	0x005001f3
	...
     6dc:	00010000 	andeq	r0, r1, r0
     6e0:	00000051 	andeq	r0, r0, r1, asr r0
     6e4:	00000000 	andeq	r0, r0, r0
     6e8:	54000100 	strpl	r0, [r0], #-256	; 0xffffff00
	...
     6f4:	01f30004 	mvnseq	r0, r4
     6f8:	00009f51 	andeq	r9, r0, r1, asr pc
	...
     710:	00520001 	subseq	r0, r2, r1
     714:	00000000 	andeq	r0, r0, r0
     718:	01000000 	mrseq	r0, (UNDEF: 0)
     71c:	00005500 	andeq	r5, r0, r0, lsl #10
     720:	00000000 	andeq	r0, r0, r0
     724:	00040000 	andeq	r0, r4, r0
     728:	9f5201f3 	svcls	0x005201f3
	...
     740:	00560001 	subseq	r0, r6, r1
     744:	00000000 	andeq	r0, r0, r0
     748:	08000000 	stmdaeq	r0, {}	; <UNPREDICTABLE>
     74c:	5001f300 	andpl	pc, r1, r0, lsl #6
     750:	1a244840 	bne	912858 <_Min_Stack_Size+0x912458>
     754:	0000009f 	muleq	r0, pc, r0	; <UNPREDICTABLE>
     758:	00000000 	andeq	r0, r0, r0
     75c:	00000100 	andeq	r0, r0, r0, lsl #2
	...
     768:	5c000100 	stfpls	f0, [r0], {-0}
	...
     774:	01f30007 	mvnseq	r0, r7
     778:	24f00950 	ldrbtcs	r0, [r0], #2384	; 0x950
     77c:	0000009f 	muleq	r0, pc, r0	; <UNPREDICTABLE>
	...
     790:	05000000 	streq	r0, [r0, #-0]
     794:	3a007e00 	bcc	1ff9c <_Min_Stack_Size+0x1fb9c>
     798:	00009f24 	andeq	r9, r0, r4, lsr #30
     79c:	00000000 	andeq	r0, r0, r0
     7a0:	00010000 	andeq	r0, r1, r0
     7a4:	00000050 	andeq	r0, r0, r0, asr r0
     7a8:	00000000 	andeq	r0, r0, r0
     7ac:	f3000d00 	vpadd.f32	d0, d0, d0
     7b0:	f0095001 			; <UNDEFINED> instruction: 0xf0095001
     7b4:	80802324 	addhi	r2, r0, r4, lsr #6
     7b8:	9f243a48 	svcls	0x00243a48
	...
     7c4:	08000a64 	stmdaeq	r0, {r2, r5, r6, r9, fp}
     7c8:	08000a6c 	stmdaeq	r0, {r2, r3, r5, r6, r9, fp}
     7cc:	007d0002 	rsbseq	r0, sp, r2
     7d0:	08000a6c 	stmdaeq	r0, {r2, r3, r5, r6, r9, fp}
     7d4:	08000c36 	stmdaeq	r0, {r1, r2, r4, r5, sl, fp}
     7d8:	187d0002 	ldmdane	sp!, {r1}^
     7dc:	08000c36 	stmdaeq	r0, {r1, r2, r4, r5, sl, fp}
     7e0:	08000c3a 	stmdaeq	r0, {r1, r3, r4, r5, sl, fp}
     7e4:	007d0002 	rsbseq	r0, sp, r2
     7e8:	08000c3a 	stmdaeq	r0, {r1, r3, r4, r5, sl, fp}
     7ec:	08000c5c 	stmdaeq	r0, {r2, r3, r4, r6, sl, fp}
     7f0:	187d0002 	ldmdane	sp!, {r1}^
	...
     818:	08000a64 	stmdaeq	r0, {r2, r5, r6, r9, fp}
     81c:	08000ab5 	stmdaeq	r0, {r0, r2, r4, r5, r7, r9, fp}
     820:	b5500001 	ldrblt	r0, [r0, #-1]
     824:	0208000a 	andeq	r0, r8, #10
     828:	0108000b 	tsteq	r8, fp
     82c:	0b025500 	bleq	95c34 <_Min_Stack_Size+0x95834>
     830:	0b0e0800 	bleq	382838 <_Min_Stack_Size+0x382438>
     834:	00010800 	andeq	r0, r1, r0, lsl #16
     838:	000b0e50 	andeq	r0, fp, r0, asr lr
     83c:	000b1008 	andeq	r1, fp, r8
     840:	55000108 	strpl	r0, [r0, #-264]	; 0xfffffef8
     844:	08000b10 	stmdaeq	r0, {r4, r8, r9, fp}
     848:	08000b13 	stmdaeq	r0, {r0, r1, r4, r8, r9, fp}
     84c:	13500001 	cmpne	r0, #1
     850:	4208000b 	andmi	r0, r8, #11
     854:	0108000b 	tsteq	r8, fp
     858:	0b425500 	bleq	1095c60 <_Min_Stack_Size+0x1095860>
     85c:	0b4e0800 	bleq	1382864 <_Min_Stack_Size+0x1382464>
     860:	00010800 	andeq	r0, r1, r0, lsl #16
     864:	000b4e50 	andeq	r4, fp, r0, asr lr
     868:	000c3608 	andeq	r3, ip, r8, lsl #12
     86c:	55000108 	strpl	r0, [r0, #-264]	; 0xfffffef8
     870:	08000c36 	stmdaeq	r0, {r1, r2, r4, r5, sl, fp}
     874:	08000c38 	stmdaeq	r0, {r3, r4, r5, sl, fp}
     878:	38500001 	ldmdacc	r0, {r0}^
     87c:	3a08000c 	bcc	2008b4 <_Min_Stack_Size+0x2004b4>
     880:	0408000c 	streq	r0, [r8], #-12
     884:	5001f300 	andpl	pc, r1, r0, lsl #6
     888:	000c3a9f 	muleq	ip, pc, sl	; <UNPREDICTABLE>
     88c:	000c3c08 	andeq	r3, ip, r8, lsl #24
     890:	50000108 	andpl	r0, r0, r8, lsl #2
     894:	08000c3c 	stmdaeq	r0, {r2, r3, r4, r5, sl, fp}
     898:	08000c3e 	stmdaeq	r0, {r1, r2, r3, r4, r5, sl, fp}
     89c:	3e550001 	cdpcc	0, 5, cr0, cr5, cr1, {0}
     8a0:	4008000c 	andmi	r0, r8, ip
     8a4:	0108000c 	tsteq	r8, ip
     8a8:	0c405000 	mareq	acc0, r5, r0
     8ac:	0c5c0800 	mrrceq	8, 0, r0, ip, cr0
     8b0:	00010800 	andeq	r0, r1, r0, lsl #16
     8b4:	00000055 	andeq	r0, r0, r5, asr r0
	...
     8c8:	64000000 	strvs	r0, [r0], #-0
     8cc:	b508000a 	strlt	r0, [r8, #-10]
     8d0:	0108000a 	tsteq	r8, sl
     8d4:	0ab55100 	beq	fed54cdc <BootRAM+0xcf4547d>
     8d8:	0b020800 	bleq	828e0 <_Min_Stack_Size+0x824e0>
     8dc:	00010800 	andeq	r0, r1, r0, lsl #16
     8e0:	000b0254 	andeq	r0, fp, r4, asr r2
     8e4:	000b1308 	andeq	r1, fp, r8, lsl #6
     8e8:	51000108 	tstpl	r0, r8, lsl #2
     8ec:	08000b13 	stmdaeq	r0, {r0, r1, r4, r8, r9, fp}
     8f0:	08000b42 	stmdaeq	r0, {r1, r6, r8, r9, fp}
     8f4:	42540001 	subsmi	r0, r4, #1
     8f8:	5008000b 	andpl	r0, r8, fp
     8fc:	0108000b 	tsteq	r8, fp
     900:	0b505100 	bleq	1414d08 <_Min_Stack_Size+0x1414908>
     904:	0c360800 	ldceq	8, cr0, [r6], #-0
     908:	00010800 	andeq	r0, r1, r0, lsl #16
     90c:	000c3654 	andeq	r3, ip, r4, asr r6
     910:	000c5c08 	andeq	r5, ip, r8, lsl #24
     914:	51000108 	tstpl	r0, r8, lsl #2
	...
     920:	00010100 	andeq	r0, r1, r0, lsl #2
     924:	00010100 	andeq	r0, r1, r0, lsl #2
     928:	08000ae0 	stmdaeq	r0, {r5, r6, r7, r9, fp}
     92c:	08000ae0 	stmdaeq	r0, {r5, r6, r7, r9, fp}
     930:	e0500001 	subs	r0, r0, r1
     934:	0208000a 	andeq	r0, r8, #10
     938:	0108000b 	tsteq	r8, fp
     93c:	0c185700 	ldceq	7, cr5, [r8], {-0}
     940:	0c180800 	ldceq	8, cr0, [r8], {-0}
     944:	00010800 	andeq	r0, r1, r0, lsl #16
     948:	000c1850 	andeq	r1, ip, r0, asr r8
     94c:	000c3608 	andeq	r3, ip, r8, lsl #12
     950:	56000108 	strpl	r0, [r0], -r8, lsl #2
	...
     960:	0ab60000 	beq	fed80968 <BootRAM+0xcf71109>
     964:	0add0800 	beq	ff74296c <BootRAM+0xd93310d>
     968:	00010800 	andeq	r0, r1, r0, lsl #16
     96c:	000b1450 	andeq	r1, fp, r0, asr r4
     970:	000b4208 	andeq	r4, fp, r8, lsl #4
     974:	50000108 	andpl	r0, r0, r8, lsl #2
     978:	08000b50 	stmdaeq	r0, {r4, r6, r8, r9, fp}
     97c:	08000b5c 	stmdaeq	r0, {r2, r3, r4, r6, r8, r9, fp}
     980:	00500001 	subseq	r0, r0, r1
     984:	00000000 	andeq	r0, r0, r0
     988:	04000000 	streq	r0, [r0], #-0
     98c:	00000101 	andeq	r0, r0, r1, lsl #2
     990:	01010000 	mrseq	r0, (UNDEF: 1)
	...
     99c:	000a6400 	andeq	r6, sl, r0, lsl #8
     9a0:	000aca08 	andeq	ip, sl, r8, lsl #20
     9a4:	30000208 	andcc	r0, r0, r8, lsl #4
     9a8:	000aca9f 	muleq	sl, pc, sl	; <UNPREDICTABLE>
     9ac:	000acc08 	andeq	ip, sl, r8, lsl #24
     9b0:	08000308 	stmdaeq	r0, {r3, r8, r9}
     9b4:	0acc9f80 	beq	ff3287bc <BootRAM+0xd518f5d>
     9b8:	0b020800 	bleq	829c0 <_Min_Stack_Size+0x825c0>
     9bc:	00010800 	andeq	r0, r1, r0, lsl #16
     9c0:	000b0256 	andeq	r0, fp, r6, asr r2
     9c4:	000b3e08 	andeq	r3, fp, r8, lsl #28
     9c8:	30000208 	andcc	r0, r0, r8, lsl #4
     9cc:	000b3e9f 	muleq	fp, pc, lr	; <UNPREDICTABLE>
     9d0:	000b4208 	andeq	r4, fp, r8, lsl #4
     9d4:	08000308 	stmdaeq	r0, {r3, r8, r9}
     9d8:	0b429f80 	bleq	10a87e0 <_Min_Stack_Size+0x10a83e0>
     9dc:	0b5c0800 	bleq	17029e4 <_Min_Stack_Size+0x17025e4>
     9e0:	00020800 	andeq	r0, r2, r0, lsl #16
     9e4:	0b5c9f30 	bleq	17286ac <_Min_Stack_Size+0x17282ac>
     9e8:	0ba40800 	bleq	fe9029f0 <BootRAM+0xcaf3191>
     9ec:	00010800 	andeq	r0, r1, r0, lsl #16
     9f0:	000bf656 	andeq	pc, fp, r6, asr r6	; <UNPREDICTABLE>
     9f4:	000c1808 	andeq	r1, ip, r8, lsl #16
     9f8:	56000108 	strpl	r0, [r0], -r8, lsl #2
     9fc:	08000c36 	stmdaeq	r0, {r1, r2, r4, r5, sl, fp}
     a00:	08000c5c 	stmdaeq	r0, {r2, r3, r4, r6, sl, fp}
     a04:	9f300002 	svcls	0x00300002
	...
     a10:	080004f4 	stmdaeq	r0, {r2, r4, r5, r6, r7, sl}
     a14:	080004fc 	stmdaeq	r0, {r2, r3, r4, r5, r6, r7, sl}
     a18:	007d0002 	rsbseq	r0, sp, r2
     a1c:	080004fc 	stmdaeq	r0, {r2, r3, r4, r5, r6, r7, sl}
     a20:	080004fe 	stmdaeq	r0, {r1, r2, r3, r4, r5, r6, r7, sl}
     a24:	107d0002 	rsbsne	r0, sp, r2
     a28:	080004fe 	stmdaeq	r0, {r1, r2, r3, r4, r5, r6, r7, sl}
     a2c:	080009a2 	stmdaeq	r0, {r1, r5, r7, r8, fp}
     a30:	187d0002 	ldmdane	sp!, {r1}^
     a34:	080009a2 	stmdaeq	r0, {r1, r5, r7, r8, fp}
     a38:	080009a6 	stmdaeq	r0, {r1, r2, r5, r7, r8, fp}
     a3c:	007d0002 	rsbseq	r0, sp, r2
     a40:	080009a6 	stmdaeq	r0, {r1, r2, r5, r7, r8, fp}
     a44:	080009b6 	stmdaeq	r0, {r1, r2, r4, r5, r7, r8, fp}
     a48:	187d0002 	ldmdane	sp!, {r1}^
     a4c:	080009b6 	stmdaeq	r0, {r1, r2, r4, r5, r7, r8, fp}
     a50:	080009b8 	stmdaeq	r0, {r3, r4, r5, r7, r8, fp}
     a54:	107d0002 	rsbsne	r0, sp, r2
     a58:	080009b8 	stmdaeq	r0, {r3, r4, r5, r7, r8, fp}
     a5c:	080009dc 	stmdaeq	r0, {r2, r3, r4, r6, r7, r8, fp}
     a60:	187d0002 	ldmdane	sp!, {r1}^
	...
     a8c:	080004f4 	stmdaeq	r0, {r2, r4, r5, r6, r7, sl}
     a90:	08000547 	stmdaeq	r0, {r0, r1, r2, r6, r8, sl}
     a94:	47500001 	ldrbmi	r0, [r0, -r1]
     a98:	62080005 	andvs	r0, r8, #5
     a9c:	01080005 	tsteq	r8, r5
     aa0:	05625400 	strbeq	r5, [r2, #-1024]!	; 0xfffffc00
     aa4:	05780800 	ldrbeq	r0, [r8, #-2048]!	; 0xfffff800
     aa8:	00010800 	andeq	r0, r1, r0, lsl #16
     aac:	00057850 	andeq	r7, r5, r0, asr r8
     ab0:	0005c408 	andeq	ip, r5, r8, lsl #8
     ab4:	54000108 	strpl	r0, [r0], #-264	; 0xfffffef8
     ab8:	080005c4 	stmdaeq	r0, {r2, r6, r7, r8, sl}
     abc:	080005ed 	stmdaeq	r0, {r0, r2, r3, r5, r6, r7, r8, sl}
     ac0:	ed500001 	ldcl	0, cr0, [r0, #-4]
     ac4:	9a080005 	bls	200ae0 <_Min_Stack_Size+0x2006e0>
     ac8:	01080008 	tsteq	r8, r8
     acc:	089a5400 	ldmeq	sl, {sl, ip, lr}
     ad0:	08b20800 	ldmeq	r2!, {fp}
     ad4:	00040800 	andeq	r0, r4, r0, lsl #16
     ad8:	9f5001f3 	svcls	0x005001f3
     adc:	080008b2 	stmdaeq	r0, {r1, r4, r5, r7, fp}
     ae0:	08000926 	stmdaeq	r0, {r1, r2, r5, r8, fp}
     ae4:	26540001 	ldrbcs	r0, [r4], -r1
     ae8:	46080009 	strmi	r0, [r8], -r9
     aec:	04080009 	streq	r0, [r8], #-9
     af0:	5001f300 	andpl	pc, r1, r0, lsl #6
     af4:	0009469f 	muleq	r9, pc, r6	; <UNPREDICTABLE>
     af8:	0009a208 	andeq	sl, r9, r8, lsl #4
     afc:	54000108 	strpl	r0, [r0], #-264	; 0xfffffef8
     b00:	080009a2 	stmdaeq	r0, {r1, r5, r7, r8, fp}
     b04:	080009a4 	stmdaeq	r0, {r2, r5, r7, r8, fp}
     b08:	a4500001 	ldrbge	r0, [r0], #-1
     b0c:	a6080009 	strge	r0, [r8], -r9
     b10:	04080009 	streq	r0, [r8], #-9
     b14:	5001f300 	andpl	pc, r1, r0, lsl #6
     b18:	0009a69f 	muleq	r9, pc, r6	; <UNPREDICTABLE>
     b1c:	0009a808 	andeq	sl, r9, r8, lsl #16
     b20:	50000108 	andpl	r0, r0, r8, lsl #2
     b24:	080009a8 	stmdaeq	r0, {r3, r5, r7, r8, fp}
     b28:	080009b4 	stmdaeq	r0, {r2, r4, r5, r7, r8, fp}
     b2c:	b4540001 	ldrblt	r0, [r4], #-1
     b30:	b8080009 	stmdalt	r8, {r0, r3}
     b34:	04080009 	streq	r0, [r8], #-9
     b38:	5001f300 	andpl	pc, r1, r0, lsl #6
     b3c:	0009b89f 	muleq	r9, pc, r8	; <UNPREDICTABLE>
     b40:	0009dc08 	andeq	sp, r9, r8, lsl #24
     b44:	54000108 	strpl	r0, [r0], #-264	; 0xfffffef8
	...
     b50:	00010100 	andeq	r0, r1, r0, lsl #2
     b54:	00010100 	andeq	r0, r1, r0, lsl #2
     b58:	00010100 	andeq	r0, r1, r0, lsl #2
     b5c:	00010100 	andeq	r0, r1, r0, lsl #2
     b60:	00010100 	andeq	r0, r1, r0, lsl #2
     b64:	00010100 	andeq	r0, r1, r0, lsl #2
     b68:	00010100 	andeq	r0, r1, r0, lsl #2
     b6c:	00010100 	andeq	r0, r1, r0, lsl #2
     b70:	00010100 	andeq	r0, r1, r0, lsl #2
     b74:	00010100 	andeq	r0, r1, r0, lsl #2
     b78:	01000000 	mrseq	r0, (UNDEF: 0)
     b7c:	01000001 	tsteq	r0, r1
     b80:	01000001 	tsteq	r0, r1
     b84:	01000001 	tsteq	r0, r1
     b88:	054a0001 	strbeq	r0, [sl, #-1]
     b8c:	054a0800 	strbeq	r0, [sl, #-2048]	; 0xfffff800
     b90:	00010800 	andeq	r0, r1, r0, lsl #16
     b94:	00054a50 	andeq	r4, r5, r0, asr sl
     b98:	00056208 	andeq	r6, r5, r8, lsl #4
     b9c:	55000108 	strpl	r0, [r0, #-264]	; 0xfffffef8
     ba0:	080005ac 	stmdaeq	r0, {r2, r3, r5, r7, r8, sl}
     ba4:	080005ac 	stmdaeq	r0, {r2, r3, r5, r7, r8, sl}
     ba8:	ac500001 	mrrcge	0, 0, r0, r0, cr1	; <UNPREDICTABLE>
     bac:	c4080005 	strgt	r0, [r8], #-5
     bb0:	01080005 	tsteq	r8, r5
     bb4:	05f05500 	ldrbeq	r5, [r0, #1280]!	; 0x500
     bb8:	05f00800 	ldrbeq	r0, [r0, #2048]!	; 0x800
     bbc:	00010800 	andeq	r0, r1, r0, lsl #16
     bc0:	0005f050 	andeq	pc, r5, r0, asr r0	; <UNPREDICTABLE>
     bc4:	00060808 	andeq	r0, r6, r8, lsl #16
     bc8:	55000108 	strpl	r0, [r0, #-264]	; 0xfffffef8
     bcc:	0800065c 	stmdaeq	r0, {r2, r3, r4, r6, r9, sl}
     bd0:	0800065c 	stmdaeq	r0, {r2, r3, r4, r6, r9, sl}
     bd4:	5c500001 	mrrcpl	0, 0, r0, r0, cr1	; <UNPREDICTABLE>
     bd8:	88080006 	stmdahi	r8, {r1, r2}
     bdc:	01080006 	tsteq	r8, r6
     be0:	06985500 	ldreq	r5, [r8], r0, lsl #10
     be4:	06980800 	ldreq	r0, [r8], r0, lsl #16
     be8:	00010800 	andeq	r0, r1, r0, lsl #16
     bec:	00069850 	andeq	r9, r6, r0, asr r8
     bf0:	0006b008 	andeq	fp, r6, r8
     bf4:	55000108 	strpl	r0, [r0, #-264]	; 0xfffffef8
     bf8:	080006c4 	stmdaeq	r0, {r2, r6, r7, r9, sl}
     bfc:	080006c4 	stmdaeq	r0, {r2, r6, r7, r9, sl}
     c00:	c4500001 	ldrbgt	r0, [r0], #-1
     c04:	de080006 	cdple	0, 0, cr0, cr8, cr6, {0}
     c08:	01080006 	tsteq	r8, r6
     c0c:	07425500 	strbeq	r5, [r2, -r0, lsl #10]
     c10:	07420800 	strbeq	r0, [r2, -r0, lsl #16]
     c14:	00010800 	andeq	r0, r1, r0, lsl #16
     c18:	00074250 	andeq	r4, r7, r0, asr r2
     c1c:	00076008 	andeq	r6, r7, r8
     c20:	56000108 	strpl	r0, [r0], -r8, lsl #2
     c24:	08000774 	stmdaeq	r0, {r2, r4, r5, r6, r8, r9, sl}
     c28:	08000774 	stmdaeq	r0, {r2, r4, r5, r6, r8, r9, sl}
     c2c:	74500001 	ldrbvc	r0, [r0], #-1
     c30:	8c080007 	stchi	0, cr0, [r8], {7}
     c34:	01080007 	tsteq	r8, r7
     c38:	07ca5600 	strbeq	r5, [sl, r0, lsl #12]
     c3c:	07ca0800 	strbeq	r0, [sl, r0, lsl #16]
     c40:	00010800 	andeq	r0, r1, r0, lsl #16
     c44:	0007ca50 	andeq	ip, r7, r0, asr sl
     c48:	0007ea08 	andeq	lr, r7, r8, lsl #20
     c4c:	56000108 	strpl	r0, [r0], -r8, lsl #2
     c50:	0800080a 	stmdaeq	r0, {r1, r3, fp}
     c54:	0800080a 	stmdaeq	r0, {r1, r3, fp}
     c58:	0a500001 	beq	1400c64 <_Min_Stack_Size+0x1400864>
     c5c:	24080008 	strcs	r0, [r8], #-8
     c60:	01080008 	tsteq	r8, r8
     c64:	08245500 	stmdaeq	r4!, {r8, sl, ip, lr}
     c68:	08300800 	ldmdaeq	r0!, {fp}
     c6c:	00010800 	andeq	r0, r1, r0, lsl #16
     c70:	00084456 	andeq	r4, r8, r6, asr r4
     c74:	00084408 	andeq	r4, r8, r8, lsl #8
     c78:	50000108 	andpl	r0, r0, r8, lsl #2
     c7c:	08000844 	stmdaeq	r0, {r2, r6, fp}
     c80:	0800085e 	stmdaeq	r0, {r1, r2, r3, r4, r6, fp}
     c84:	9a550001 	bls	1540c90 <_Min_Stack_Size+0x1540890>
     c88:	9a080008 	bls	200cb0 <_Min_Stack_Size+0x2008b0>
     c8c:	01080008 	tsteq	r8, r8
     c90:	089a5000 	ldmeq	sl, {ip, lr}
     c94:	08b20800 	ldmeq	r2!, {fp}
     c98:	00010800 	andeq	r0, r1, r0, lsl #16
     c9c:	0008c254 	andeq	ip, r8, r4, asr r2
     ca0:	0008c208 	andeq	ip, r8, r8, lsl #4
     ca4:	50000108 	andpl	r0, r0, r8, lsl #2
     ca8:	080008c2 	stmdaeq	r0, {r1, r6, r7, fp}
     cac:	08000926 	stmdaeq	r0, {r1, r2, r5, r8, fp}
     cb0:	26550001 	ldrbcs	r0, [r5], -r1
     cb4:	26080009 	strcs	r0, [r8], -r9
     cb8:	01080009 	tsteq	r8, r9
     cbc:	09265000 	stmdbeq	r6!, {ip, lr}
     cc0:	09460800 	stmdbeq	r6, {fp}^
     cc4:	00010800 	andeq	r0, r1, r0, lsl #16
     cc8:	00000054 	andeq	r0, r0, r4, asr r0
	...
     cd8:	00051000 	andeq	r1, r5, r0
     cdc:	00052008 	andeq	r2, r5, r8
     ce0:	53000108 	movwpl	r0, #264	; 0x108
     ce4:	08000562 	stmdaeq	r0, {r1, r5, r6, r8, sl}
     ce8:	08000568 	stmdaeq	r0, {r3, r5, r6, r8, sl}
     cec:	88530001 	ldmdahi	r3, {r0}^
     cf0:	98080005 	stmdals	r8, {r0, r2}
     cf4:	01080005 	tsteq	r8, r5
     cf8:	06085300 	streq	r5, [r8], -r0, lsl #6
     cfc:	060e0800 	streq	r0, [lr], -r0, lsl #16
     d00:	00010800 	andeq	r0, r1, r0, lsl #16
     d04:	00000053 	andeq	r0, r0, r3, asr r0
	...
     d20:	00051600 	andeq	r1, r5, r0, lsl #12
     d24:	00053008 	andeq	r3, r5, r8
     d28:	52000108 	andpl	r0, r0, #8, 2
     d2c:	08000562 	stmdaeq	r0, {r1, r5, r6, r8, sl}
     d30:	08000578 	stmdaeq	r0, {r3, r4, r5, r6, r8, sl}
     d34:	8e520001 	cdphi	0, 5, cr0, cr2, cr1, {0}
     d38:	9e080005 	cdpls	0, 0, cr0, cr8, cr5, {0}
     d3c:	01080005 	tsteq	r8, r5
     d40:	05c45200 	strbeq	r5, [r4, #512]	; 0x200
     d44:	05c60800 	strbeq	r0, [r6, #2048]	; 0x800
     d48:	00010800 	andeq	r0, r1, r0, lsl #16
     d4c:	0005d052 	andeq	sp, r5, r2, asr r0
     d50:	0005da08 	andeq	sp, r5, r8, lsl #20
     d54:	52000108 	andpl	r0, r0, #8, 2
     d58:	08000608 	stmdaeq	r0, {r3, r9, sl}
     d5c:	08000620 	stmdaeq	r0, {r5, r9, sl}
     d60:	88520001 	ldmdahi	r2, {r0}^
     d64:	8a080006 	bhi	200d84 <_Min_Stack_Size+0x200984>
     d68:	01080006 	tsteq	r8, r6
     d6c:	094e5200 	stmdbeq	lr, {r9, ip, lr}^
     d70:	09920800 	ldmibeq	r2, {fp}
     d74:	00010800 	andeq	r0, r1, r0, lsl #16
     d78:	0009a653 	andeq	sl, r9, r3, asr r6
     d7c:	0009ae08 	andeq	sl, r9, r8, lsl #28
     d80:	52000108 	andpl	r0, r0, #8, 2
     d84:	080009bc 	stmdaeq	r0, {r2, r3, r4, r5, r7, r8, fp}
     d88:	080009d0 	stmdaeq	r0, {r4, r6, r7, r8, fp}
     d8c:	00530001 	subseq	r0, r3, r1
     d90:	00000000 	andeq	r0, r0, r0
     d94:	01000000 	mrseq	r0, (UNDEF: 0)
     d98:	00000202 	andeq	r0, r0, r2, lsl #4
     d9c:	00000000 	andeq	r0, r0, r0
     da0:	e8000000 	stmda	r0, {}	; <UNPREDICTABLE>
     da4:	06080006 	streq	r0, [r8], -r6
     da8:	02080007 	andeq	r0, r8, #7
     dac:	069f3000 	ldreq	r3, [pc], r0
     db0:	08080007 	stmdaeq	r8, {r0, r1, r2}
     db4:	02080007 	andeq	r0, r8, #7
     db8:	089f3100 	ldmeq	pc, {r8, ip, sp}	; <UNPREDICTABLE>
     dbc:	60080007 	andvs	r0, r8, r7
     dc0:	01080007 	tsteq	r8, r7
     dc4:	07605500 	strbeq	r5, [r0, -r0, lsl #10]!
     dc8:	07640800 	strbeq	r0, [r4, -r0, lsl #16]!
     dcc:	00020800 	andeq	r0, r2, r0, lsl #16
     dd0:	07649f30 			; <UNDEFINED> instruction: 0x07649f30
     dd4:	07ea0800 	strbeq	r0, [sl, r0, lsl #16]!
     dd8:	00010800 	andeq	r0, r1, r0, lsl #16
     ddc:	00082455 	andeq	r2, r8, r5, asr r4
     de0:	00083008 	andeq	r3, r8, r8
     de4:	55000108 	strpl	r0, [r0, #-264]	; 0xfffffef8
	...
     df8:	007d0002 	rsbseq	r0, sp, r2
	...
     e04:	107d0002 	rsbsne	r0, sp, r2
	...
     e10:	00010100 	andeq	r0, r1, r0, lsl #2
     e14:	01000000 	mrseq	r0, (UNDEF: 0)
     e18:	00000001 	andeq	r0, r0, r1
     e1c:	00010100 	andeq	r0, r1, r0, lsl #2
	...
     e28:	00500001 	subseq	r0, r0, r1
     e2c:	00000000 	andeq	r0, r0, r0
     e30:	01000000 	mrseq	r0, (UNDEF: 0)
     e34:	00005400 	andeq	r5, r0, r0, lsl #8
     e38:	00000000 	andeq	r0, r0, r0
     e3c:	00010000 	andeq	r0, r1, r0
     e40:	00000054 	andeq	r0, r0, r4, asr r0
     e44:	00000000 	andeq	r0, r0, r0
     e48:	50000100 	andpl	r0, r0, r0, lsl #2
	...
     e54:	00540001 	subseq	r0, r4, r1
     e58:	00000000 	andeq	r0, r0, r0
     e5c:	01000000 	mrseq	r0, (UNDEF: 0)
     e60:	00005400 	andeq	r5, r0, r0, lsl #8
     e64:	00000000 	andeq	r0, r0, r0
     e68:	00010000 	andeq	r0, r1, r0
     e6c:	00000050 	andeq	r0, r0, r0, asr r0
     e70:	00000000 	andeq	r0, r0, r0
     e74:	55000100 	strpl	r0, [r0, #-256]	; 0xffffff00
	...
     e88:	007d0002 	rsbseq	r0, sp, r2
	...
     e94:	087d0002 	ldmdaeq	sp!, {r1}^
	...
     eb0:	00500001 	subseq	r0, r0, r1
     eb4:	00000000 	andeq	r0, r0, r0
     eb8:	04000000 	streq	r0, [r0], #-0
     ebc:	5001f300 	andpl	pc, r1, r0, lsl #6
     ec0:	0000009f 	muleq	r0, pc, r0	; <UNPREDICTABLE>
     ec4:	00000000 	andeq	r0, r0, r0
     ec8:	50000100 	andpl	r0, r0, r0, lsl #2
	...
     ed4:	01f30004 	mvnseq	r0, r4
     ed8:	00009f50 	andeq	r9, r0, r0, asr pc
	...
     ee8:	00020000 	andeq	r0, r2, r0
     eec:	0000007d 	andeq	r0, r0, sp, ror r0
     ef0:	00000000 	andeq	r0, r0, r0
     ef4:	00020000 	andeq	r0, r2, r0
     ef8:	0000087d 	andeq	r0, r0, sp, ror r8
     efc:	00000000 	andeq	r0, r0, r0
     f00:	00020000 	andeq	r0, r2, r0
     f04:	0000007d 	andeq	r0, r0, sp, ror r0
     f08:	00000000 	andeq	r0, r0, r0
     f0c:	00020000 	andeq	r0, r2, r0
     f10:	0000087d 	andeq	r0, r0, sp, ror r8
	...
     f28:	00010000 	andeq	r0, r1, r0
     f2c:	00000050 	andeq	r0, r0, r0, asr r0
     f30:	00000000 	andeq	r0, r0, r0
     f34:	f3000400 	vshl.u8	d0, d0, d0
     f38:	009f5001 	addseq	r5, pc, r1
     f3c:	00000000 	andeq	r0, r0, r0
     f40:	01000000 	mrseq	r0, (UNDEF: 0)
     f44:	00005000 	andeq	r5, r0, r0
     f48:	00000000 	andeq	r0, r0, r0
     f4c:	00040000 	andeq	r0, r4, r0
     f50:	9f5001f3 	svcls	0x005001f3
	...
     f60:	08000e3a 	stmdaeq	r0, {r1, r3, r4, r5, r9, sl, fp}
     f64:	08000e44 	stmdaeq	r0, {r2, r6, r9, sl, fp}
     f68:	44510001 	ldrbmi	r0, [r1], #-1
     f6c:	4c08000e 	stcmi	0, cr0, [r8], {14}
     f70:	0408000e 	streq	r0, [r8], #-14
     f74:	5101f300 	mrspl	pc, SP_irq	; <UNPREDICTABLE>
     f78:	0000009f 	muleq	r0, pc, r0	; <UNPREDICTABLE>
     f7c:	00000000 	andeq	r0, r0, r0
     f80:	3c000000 	stccc	0, cr0, [r0], {-0}
     f84:	4c08000e 	stcmi	0, cr0, [r8], {14}
     f88:	0108000e 	tsteq	r8, lr
     f8c:	00005300 	andeq	r5, r0, r0, lsl #6
	...
     fa4:	00010000 	andeq	r0, r1, r0
     fa8:	00000050 	andeq	r0, r0, r0, asr r0
     fac:	00000000 	andeq	r0, r0, r0
     fb0:	f3000400 	vshl.u8	d0, d0, d0
     fb4:	009f5001 	addseq	r5, pc, r1
     fb8:	00000000 	andeq	r0, r0, r0
     fbc:	01000000 	mrseq	r0, (UNDEF: 0)
     fc0:	00005000 	andeq	r5, r0, r0
     fc4:	00000000 	andeq	r0, r0, r0
     fc8:	00040000 	andeq	r0, r4, r0
     fcc:	9f5001f3 	svcls	0x005001f3
	...
     fe0:	00010000 	andeq	r0, r1, r0
     fe4:	00000050 	andeq	r0, r0, r0, asr r0
	...
     ff4:	7d000200 	sfmvc	f0, 4, [r0, #-0]
	...
    1000:	7d000200 	sfmvc	f0, 4, [r0, #-0]
    1004:	00000014 	andeq	r0, r0, r4, lsl r0
    1008:	00000000 	andeq	r0, r0, r0
    100c:	7d000200 	sfmvc	f0, 4, [r0, #-0]
	...
    1018:	00000200 	andeq	r0, r0, r0, lsl #4
	...
    1024:	30000200 	andcc	r0, r0, r0, lsl #4
    1028:	0000009f 	muleq	r0, pc, r0	; <UNPREDICTABLE>
    102c:	00000000 	andeq	r0, r0, r0
    1030:	53000100 	movwpl	r0, #256	; 0x100
	...
    1054:	00570001 	subseq	r0, r7, r1
    1058:	00000000 	andeq	r0, r0, r0
    105c:	06000000 	streq	r0, [r0], -r0
    1060:	71007200 	mrsvc	r7, R8_usr
    1064:	009f1a00 	addseq	r1, pc, r0, lsl #20
    1068:	00000000 	andeq	r0, r0, r0
    106c:	08000000 	stmdaeq	r0, {}	; <UNPREDICTABLE>
    1070:	00733100 	rsbseq	r3, r3, r0, lsl #2
    1074:	1a007124 	bne	1d50c <_Min_Stack_Size+0x1d10c>
    1078:	0000009f 	muleq	r0, pc, r0	; <UNPREDICTABLE>
    107c:	00000000 	andeq	r0, r0, r0
    1080:	31000800 	tstcc	r0, r0, lsl #16
    1084:	71247f73 			; <UNDEFINED> instruction: 0x71247f73
    1088:	009f1a00 	addseq	r1, pc, r0, lsl #20
    108c:	00000000 	andeq	r0, r0, r0
    1090:	06000000 	streq	r0, [r0], -r0
    1094:	71007200 	mrsvc	r7, R8_usr
    1098:	009f1a00 	addseq	r1, pc, r0, lsl #20
    109c:	00000000 	andeq	r0, r0, r0
    10a0:	01000000 	mrseq	r0, (UNDEF: 0)
    10a4:	00005700 	andeq	r5, r0, r0, lsl #14
    10a8:	00000000 	andeq	r0, r0, r0
    10ac:	00060000 	andeq	r0, r6, r0
    10b0:	00710072 	rsbseq	r0, r1, r2, ror r0
    10b4:	00009f1a 	andeq	r9, r0, sl, lsl pc
    10b8:	00000000 	andeq	r0, r0, r0
    10bc:	00080000 	andeq	r0, r8, r0
    10c0:	247f7331 	ldrbtcs	r7, [pc], #-817	; 10c8 <_Min_Stack_Size+0xcc8>
    10c4:	9f1a0071 	svcls	0x001a0071
	...
    10d4:	00000001 	andeq	r0, r0, r1
    10d8:	00000000 	andeq	r0, r0, r0
    10dc:	00010000 	andeq	r0, r1, r0
    10e0:	00000054 	andeq	r0, r0, r4, asr r0
    10e4:	00000000 	andeq	r0, r0, r0
    10e8:	54000100 	strpl	r0, [r0], #-256	; 0xffffff00
	...
    10f4:	00560001 	subseq	r0, r6, r1
    10f8:	00000000 	andeq	r0, r0, r0
    10fc:	5c000000 	stcpl	0, cr0, [r0], {-0}
    1100:	5e08000c 	cdppl	0, 0, cr0, cr8, cr12, {0}
    1104:	0208000c 	andeq	r0, r8, #12
    1108:	5e007d00 	cdppl	13, 0, cr7, cr0, cr0, {0}
    110c:	6008000c 	andvs	r0, r8, ip
    1110:	0208000c 	andeq	r0, r8, #12
    1114:	60147d00 	andsvs	r7, r4, r0, lsl #26
    1118:	1e08000c 	cdpne	0, 0, cr0, cr8, cr12, {0}
    111c:	0208000e 	andeq	r0, r8, #14
    1120:	1e207d00 	cdpne	13, 2, cr7, cr0, cr0, {0}
    1124:	3008000e 	andcc	r0, r8, lr
    1128:	0208000e 	andeq	r0, r8, #14
    112c:	00147d00 	andseq	r7, r4, r0, lsl #26
    1130:	00000000 	andeq	r0, r0, r0
    1134:	01000000 	mrseq	r0, (UNDEF: 0)
    1138:	60000000 	andvs	r0, r0, r0
    113c:	6408000c 	strvs	r0, [r8], #-12
    1140:	0208000c 	andeq	r0, r8, #12
    1144:	649f3000 	ldrvs	r3, [pc], #0	; 114c <_Min_Stack_Size+0xd4c>
    1148:	3008000c 	andcc	r0, r8, ip
    114c:	0108000e 	tsteq	r8, lr
    1150:	00005300 	andeq	r5, r0, r0, lsl #6
	...
    1160:	08000c64 	stmdaeq	r0, {r2, r5, r6, sl, fp}
    1164:	08000d26 	stmdaeq	r0, {r1, r2, r5, r8, sl, fp}
    1168:	3a520001 	bcc	1481174 <_Min_Stack_Size+0x1480d74>
    116c:	3e08000d 	cdpcc	0, 0, cr0, cr8, cr13, {0}
    1170:	0608000d 	streq	r0, [r8], -sp
    1174:	72007c00 	andvc	r7, r0, #0, 24
    1178:	3e9f1a00 	vfnmscc.f32	s2, s30, s0
    117c:	1c08000d 	stcne	0, cr0, [r8], {13}
    1180:	0108000e 	tsteq	r8, lr
    1184:	00005200 	andeq	r5, r0, r0, lsl #4
	...
    11c0:	0c660000 	stcleq	0, cr0, [r6], #-0
    11c4:	0c760800 	ldcleq	8, cr0, [r6], #-0
    11c8:	00010800 	andeq	r0, r1, r0, lsl #16
    11cc:	000c7655 	andeq	r7, ip, r5, asr r6
    11d0:	000c7e08 	andeq	r7, ip, r8, lsl #28
    11d4:	54000108 	strpl	r0, [r0], #-264	; 0xfffffef8
    11d8:	08000c7e 	stmdaeq	r0, {r1, r2, r3, r4, r5, r6, sl, fp}
    11dc:	08000c8a 	stmdaeq	r0, {r1, r3, r7, sl, fp}
    11e0:	8a5c0001 	bhi	17011ec <_Min_Stack_Size+0x1700dec>
    11e4:	8e08000c 	cdphi	0, 0, cr0, cr8, cr12, {0}
    11e8:	0108000c 	tsteq	r8, ip
    11ec:	0c965400 	cfldrseq	mvf5, [r6], {0}
    11f0:	0ca80800 	stceq	8, cr0, [r8]
    11f4:	00010800 	andeq	r0, r1, r0, lsl #16
    11f8:	000ca856 	andeq	sl, ip, r6, asr r8
    11fc:	000cb208 	andeq	fp, ip, r8, lsl #4
    1200:	5e000108 	adfpls	f0, f0, #0.0
    1204:	08000cb2 	stmdaeq	r0, {r1, r4, r5, r7, sl, fp}
    1208:	08000cb8 	stmdaeq	r0, {r3, r4, r5, r7, sl, fp}
    120c:	b8540001 	ldmdalt	r4, {r0}^
    1210:	c408000c 	strgt	r0, [r8], #-12
    1214:	0108000c 	tsteq	r8, ip
    1218:	0cc45500 	cfstr64eq	mvdx5, [r4], {0}
    121c:	0cd00800 	ldcleq	8, cr0, [r0], {0}
    1220:	00010800 	andeq	r0, r1, r0, lsl #16
    1224:	000cd054 	andeq	sp, ip, r4, asr r0
    1228:	000cd208 	andeq	sp, ip, r8, lsl #4
    122c:	7c000708 	stcvc	7, cr0, [r0], {8}
    1230:	75243200 	strvc	r3, [r4, #-512]!	; 0xfffffe00
    1234:	0cd22200 	lfmeq	f2, 2, [r2], {0}
    1238:	0cd80800 	ldcleq	8, cr0, [r8], {0}
    123c:	00010800 	andeq	r0, r1, r0, lsl #16
    1240:	000cd855 	andeq	sp, ip, r5, asr r8
    1244:	000cea08 	andeq	lr, ip, r8, lsl #20
    1248:	56000108 	strpl	r0, [r0], -r8, lsl #2
    124c:	08000cea 	stmdaeq	r0, {r1, r3, r5, r6, r7, sl, fp}
    1250:	08000cee 	stmdaeq	r0, {r1, r2, r3, r5, r6, r7, sl, fp}
    1254:	ee550001 	cdp	0, 5, cr0, cr5, cr1, {0}
    1258:	0008000c 	andeq	r0, r8, ip
    125c:	0108000d 	tsteq	r8, sp
    1260:	0d005600 	stceq	6, cr5, [r0, #-0]
    1264:	0d040800 	stceq	8, cr0, [r4, #-0]
    1268:	00010800 	andeq	r0, r1, r0, lsl #16
    126c:	000d0455 	andeq	r0, sp, r5, asr r4
    1270:	000d1608 	andeq	r1, sp, r8, lsl #12
    1274:	56000108 	strpl	r0, [r0], -r8, lsl #2
    1278:	08000d16 	stmdaeq	r0, {r1, r2, r4, r8, sl, fp}
    127c:	08000d18 	stmdaeq	r0, {r3, r4, r8, sl, fp}
    1280:	18550001 	ldmdane	r5, {r0}^
    1284:	2808000d 	stmdacs	r8, {r0, r2, r3}
    1288:	0108000d 	tsteq	r8, sp
    128c:	0d585400 	cfldrdeq	mvd5, [r8, #-0]
    1290:	0d660800 	stcleq	8, cr0, [r6, #-0]
    1294:	00010800 	andeq	r0, r1, r0, lsl #16
    1298:	000d6654 	andeq	r6, sp, r4, asr r6
    129c:	000d6e08 	andeq	r6, sp, r8, lsl #28
    12a0:	5c000108 	stfpls	f0, [r0], {8}
    12a4:	08000d6e 	stmdaeq	r0, {r1, r2, r3, r5, r6, r8, sl, fp}
    12a8:	08000d70 	stmdaeq	r0, {r4, r5, r6, r8, sl, fp}
    12ac:	7c540001 	mrrcvc	0, 0, r0, r4, cr1
    12b0:	8c08000d 	stchi	0, cr0, [r8], {13}
    12b4:	0108000d 	tsteq	r8, sp
    12b8:	0d8c5400 	cfstrseq	mvf5, [ip]
    12bc:	0d9a0800 	ldceq	8, cr0, [sl]
    12c0:	00010800 	andeq	r0, r1, r0, lsl #16
    12c4:	000d9a5c 	andeq	r9, sp, ip, asr sl
    12c8:	000d9e08 	andeq	r9, sp, r8, lsl #28
    12cc:	54000108 	strpl	r0, [r0], #-264	; 0xfffffef8
    12d0:	08000d9e 	stmdaeq	r0, {r1, r2, r3, r4, r7, r8, sl, fp}
    12d4:	08000dae 	stmdaeq	r0, {r1, r2, r3, r5, r7, r8, sl, fp}
    12d8:	00700002 	rsbseq	r0, r0, r2
    12dc:	08000dc6 	stmdaeq	r0, {r1, r2, r6, r7, r8, sl, fp}
    12e0:	08000e1c 	stmdaeq	r0, {r2, r3, r4, r9, sl, fp}
    12e4:	00550001 	subseq	r0, r5, r1
	...
    12f4:	02000000 	andeq	r0, r0, #0
    12f8:	00007d00 	andeq	r7, r0, r0, lsl #26
    12fc:	00000000 	andeq	r0, r0, r0
    1300:	02000000 	andeq	r0, r0, #0
    1304:	00087d00 	andeq	r7, r8, r0, lsl #26
	...
    1318:	53000100 	movwpl	r0, #256	; 0x100
	...
    1354:	00500001 	subseq	r0, r0, r1
    1358:	00000000 	andeq	r0, r0, r0
    135c:	04000000 	streq	r0, [r0], #-0
    1360:	5001f300 	andpl	pc, r1, r0, lsl #6
    1364:	0000009f 	muleq	r0, pc, r0	; <UNPREDICTABLE>
    1368:	00000000 	andeq	r0, r0, r0
    136c:	50000100 	andpl	r0, r0, r0, lsl #2
	...
    1378:	01f30004 	mvnseq	r0, r4
    137c:	00009f50 	andeq	r9, r0, r0, asr pc
    1380:	00000000 	andeq	r0, r0, r0
    1384:	00010000 	andeq	r0, r1, r0
    1388:	00000050 	andeq	r0, r0, r0, asr r0
    138c:	00000000 	andeq	r0, r0, r0
    1390:	f3000400 	vshl.u8	d0, d0, d0
    1394:	009f5001 	addseq	r5, pc, r1
    1398:	00000000 	andeq	r0, r0, r0
    139c:	01000000 	mrseq	r0, (UNDEF: 0)
    13a0:	00005000 	andeq	r5, r0, r0
    13a4:	00000000 	andeq	r0, r0, r0
    13a8:	00040000 	andeq	r0, r4, r0
    13ac:	9f5001f3 	svcls	0x005001f3
	...
    13b8:	00500001 	subseq	r0, r0, r1
    13bc:	00000000 	andeq	r0, r0, r0
    13c0:	04000000 	streq	r0, [r0], #-0
    13c4:	5001f300 	andpl	pc, r1, r0, lsl #6
    13c8:	0000009f 	muleq	r0, pc, r0	; <UNPREDICTABLE>
    13cc:	00000000 	andeq	r0, r0, r0
    13d0:	50000100 	andpl	r0, r0, r0, lsl #2
	...
    13dc:	01f30004 	mvnseq	r0, r4
    13e0:	00009f50 	andeq	r9, r0, r0, asr pc
    13e4:	00000000 	andeq	r0, r0, r0
    13e8:	00010000 	andeq	r0, r1, r0
    13ec:	00000050 	andeq	r0, r0, r0, asr r0
    13f0:	00000000 	andeq	r0, r0, r0
    13f4:	f3000400 	vshl.u8	d0, d0, d0
    13f8:	009f5001 	addseq	r5, pc, r1
    13fc:	00000000 	andeq	r0, r0, r0
    1400:	01000000 	mrseq	r0, (UNDEF: 0)
    1404:	00005000 	andeq	r5, r0, r0
    1408:	00000000 	andeq	r0, r0, r0
    140c:	00040000 	andeq	r0, r4, r0
    1410:	9f5001f3 	svcls	0x005001f3
	...
    141c:	00500001 	subseq	r0, r0, r1
    1420:	00000000 	andeq	r0, r0, r0
    1424:	04000000 	streq	r0, [r0], #-0
    1428:	5001f300 	andpl	pc, r1, r0, lsl #6
    142c:	0000009f 	muleq	r0, pc, r0	; <UNPREDICTABLE>
    1430:	00000000 	andeq	r0, r0, r0
    1434:	50000100 	andpl	r0, r0, r0, lsl #2
	...
    1440:	01f30004 	mvnseq	r0, r4
    1444:	00009f50 	andeq	r9, r0, r0, asr pc
    1448:	00000000 	andeq	r0, r0, r0
    144c:	00020000 	andeq	r0, r2, r0
	...
    1458:	00020000 	andeq	r0, r2, r0
    145c:	00009f30 	andeq	r9, r0, r0, lsr pc
    1460:	00000000 	andeq	r0, r0, r0
    1464:	00010000 	andeq	r0, r1, r0
    1468:	00000050 	andeq	r0, r0, r0, asr r0
	...
    1498:	50000100 	andpl	r0, r0, r0, lsl #2
	...
    14a4:	01f30004 	mvnseq	r0, r4
    14a8:	00009f50 	andeq	r9, r0, r0, asr pc
    14ac:	00000000 	andeq	r0, r0, r0
    14b0:	00010000 	andeq	r0, r1, r0
    14b4:	00000050 	andeq	r0, r0, r0, asr r0
    14b8:	00000000 	andeq	r0, r0, r0
    14bc:	f3000400 	vshl.u8	d0, d0, d0
    14c0:	009f5001 	addseq	r5, pc, r1
    14c4:	00000000 	andeq	r0, r0, r0
    14c8:	01000000 	mrseq	r0, (UNDEF: 0)
    14cc:	00005000 	andeq	r5, r0, r0
    14d0:	00000000 	andeq	r0, r0, r0
    14d4:	00040000 	andeq	r0, r4, r0
    14d8:	9f5001f3 	svcls	0x005001f3
	...
    14e4:	00500001 	subseq	r0, r0, r1
    14e8:	00000000 	andeq	r0, r0, r0
    14ec:	04000000 	streq	r0, [r0], #-0
    14f0:	5001f300 	andpl	pc, r1, r0, lsl #6
    14f4:	0000009f 	muleq	r0, pc, r0	; <UNPREDICTABLE>
    14f8:	00000000 	andeq	r0, r0, r0
    14fc:	50000100 	andpl	r0, r0, r0, lsl #2
	...
    1508:	01f30004 	mvnseq	r0, r4
    150c:	00009f50 	andeq	r9, r0, r0, asr pc
    1510:	00000000 	andeq	r0, r0, r0
    1514:	00010000 	andeq	r0, r1, r0
    1518:	00000050 	andeq	r0, r0, r0, asr r0
    151c:	00000000 	andeq	r0, r0, r0
    1520:	f3000400 	vshl.u8	d0, d0, d0
    1524:	009f5001 	addseq	r5, pc, r1
    1528:	00000000 	andeq	r0, r0, r0
    152c:	01000000 	mrseq	r0, (UNDEF: 0)
    1530:	00005000 	andeq	r5, r0, r0
    1534:	00000000 	andeq	r0, r0, r0
    1538:	00040000 	andeq	r0, r4, r0
    153c:	9f5001f3 	svcls	0x005001f3
	...
    1548:	00500001 	subseq	r0, r0, r1
    154c:	00000000 	andeq	r0, r0, r0
    1550:	04000000 	streq	r0, [r0], #-0
    1554:	5001f300 	andpl	pc, r1, r0, lsl #6
    1558:	0000009f 	muleq	r0, pc, r0	; <UNPREDICTABLE>
	...
    1584:	01000000 	mrseq	r0, (UNDEF: 0)
    1588:	00005100 	andeq	r5, r0, r0, lsl #2
    158c:	00000000 	andeq	r0, r0, r0
    1590:	00040000 	andeq	r0, r4, r0
    1594:	9f5101f3 	svcls	0x005101f3
	...
    15a0:	00510001 	subseq	r0, r1, r1
    15a4:	00000000 	andeq	r0, r0, r0
    15a8:	04000000 	streq	r0, [r0], #-0
    15ac:	5101f300 	mrspl	pc, SP_irq	; <UNPREDICTABLE>
    15b0:	0000009f 	muleq	r0, pc, r0	; <UNPREDICTABLE>
    15b4:	00000000 	andeq	r0, r0, r0
    15b8:	51000100 	mrspl	r0, (UNDEF: 16)
	...
    15c4:	01f30004 	mvnseq	r0, r4
    15c8:	00009f51 	andeq	r9, r0, r1, asr pc
    15cc:	00000000 	andeq	r0, r0, r0
    15d0:	00010000 	andeq	r0, r1, r0
    15d4:	00000051 	andeq	r0, r0, r1, asr r0
    15d8:	00000000 	andeq	r0, r0, r0
    15dc:	f3000400 	vshl.u8	d0, d0, d0
    15e0:	009f5101 	addseq	r5, pc, r1, lsl #2
    15e4:	00000000 	andeq	r0, r0, r0
    15e8:	01000000 	mrseq	r0, (UNDEF: 0)
    15ec:	00005100 	andeq	r5, r0, r0, lsl #2
    15f0:	00000000 	andeq	r0, r0, r0
    15f4:	00040000 	andeq	r0, r4, r0
    15f8:	9f5101f3 	svcls	0x005101f3
	...
    1604:	00510001 	subseq	r0, r1, r1
    1608:	00000000 	andeq	r0, r0, r0
    160c:	04000000 	streq	r0, [r0], #-0
    1610:	5101f300 	mrspl	pc, SP_irq	; <UNPREDICTABLE>
    1614:	0000009f 	muleq	r0, pc, r0	; <UNPREDICTABLE>
    1618:	00000000 	andeq	r0, r0, r0
    161c:	51000100 	mrspl	r0, (UNDEF: 16)
	...
    1628:	01f30004 	mvnseq	r0, r4
    162c:	00009f51 	andeq	r9, r0, r1, asr pc
    1630:	00000000 	andeq	r0, r0, r0
    1634:	00010000 	andeq	r0, r1, r0
    1638:	00000051 	andeq	r0, r0, r1, asr r0
    163c:	00000000 	andeq	r0, r0, r0
    1640:	00000200 	andeq	r0, r0, r0, lsl #4
	...
    164c:	30000200 	andcc	r0, r0, r0, lsl #4
    1650:	0000009f 	muleq	r0, pc, r0	; <UNPREDICTABLE>
    1654:	00000000 	andeq	r0, r0, r0
    1658:	50000100 	andpl	r0, r0, r0, lsl #2
	...
    168c:	00500001 	subseq	r0, r0, r1
    1690:	00000000 	andeq	r0, r0, r0
    1694:	04000000 	streq	r0, [r0], #-0
    1698:	5001f300 	andpl	pc, r1, r0, lsl #6
    169c:	0000009f 	muleq	r0, pc, r0	; <UNPREDICTABLE>
    16a0:	00000000 	andeq	r0, r0, r0
    16a4:	50000100 	andpl	r0, r0, r0, lsl #2
	...
    16b0:	01f30004 	mvnseq	r0, r4
    16b4:	00009f50 	andeq	r9, r0, r0, asr pc
    16b8:	00000000 	andeq	r0, r0, r0
    16bc:	00010000 	andeq	r0, r1, r0
    16c0:	00000050 	andeq	r0, r0, r0, asr r0
    16c4:	00000000 	andeq	r0, r0, r0
    16c8:	f3000400 	vshl.u8	d0, d0, d0
    16cc:	009f5001 	addseq	r5, pc, r1
    16d0:	00000000 	andeq	r0, r0, r0
    16d4:	01000000 	mrseq	r0, (UNDEF: 0)
    16d8:	00005000 	andeq	r5, r0, r0
    16dc:	00000000 	andeq	r0, r0, r0
    16e0:	00040000 	andeq	r0, r4, r0
    16e4:	9f5001f3 	svcls	0x005001f3
	...
    16f0:	00500001 	subseq	r0, r0, r1
    16f4:	00000000 	andeq	r0, r0, r0
    16f8:	04000000 	streq	r0, [r0], #-0
    16fc:	5001f300 	andpl	pc, r1, r0, lsl #6
    1700:	0000009f 	muleq	r0, pc, r0	; <UNPREDICTABLE>
    1704:	00000000 	andeq	r0, r0, r0
    1708:	50000100 	andpl	r0, r0, r0, lsl #2
	...
    1714:	01f30004 	mvnseq	r0, r4
    1718:	00009f50 	andeq	r9, r0, r0, asr pc
    171c:	00000000 	andeq	r0, r0, r0
    1720:	00010000 	andeq	r0, r1, r0
    1724:	00000050 	andeq	r0, r0, r0, asr r0
    1728:	00000000 	andeq	r0, r0, r0
    172c:	f3000400 	vshl.u8	d0, d0, d0
    1730:	009f5001 	addseq	r5, pc, r1
    1734:	00000000 	andeq	r0, r0, r0
    1738:	01000000 	mrseq	r0, (UNDEF: 0)
    173c:	00005000 	andeq	r5, r0, r0
    1740:	00000000 	andeq	r0, r0, r0
    1744:	00040000 	andeq	r0, r4, r0
    1748:	9f5001f3 	svcls	0x005001f3
	...
    1778:	00010000 	andeq	r0, r1, r0
    177c:	00000051 	andeq	r0, r0, r1, asr r0
    1780:	00000000 	andeq	r0, r0, r0
    1784:	f3000400 	vshl.u8	d0, d0, d0
    1788:	009f5101 	addseq	r5, pc, r1, lsl #2
    178c:	00000000 	andeq	r0, r0, r0
    1790:	01000000 	mrseq	r0, (UNDEF: 0)
    1794:	00005100 	andeq	r5, r0, r0, lsl #2
    1798:	00000000 	andeq	r0, r0, r0
    179c:	00040000 	andeq	r0, r4, r0
    17a0:	9f5101f3 	svcls	0x005101f3
	...
    17ac:	00510001 	subseq	r0, r1, r1
    17b0:	00000000 	andeq	r0, r0, r0
    17b4:	04000000 	streq	r0, [r0], #-0
    17b8:	5101f300 	mrspl	pc, SP_irq	; <UNPREDICTABLE>
    17bc:	0000009f 	muleq	r0, pc, r0	; <UNPREDICTABLE>
    17c0:	00000000 	andeq	r0, r0, r0
    17c4:	51000100 	mrspl	r0, (UNDEF: 16)
	...
    17d0:	01f30004 	mvnseq	r0, r4
    17d4:	00009f51 	andeq	r9, r0, r1, asr pc
    17d8:	00000000 	andeq	r0, r0, r0
    17dc:	00010000 	andeq	r0, r1, r0
    17e0:	00000051 	andeq	r0, r0, r1, asr r0
    17e4:	00000000 	andeq	r0, r0, r0
    17e8:	f3000400 	vshl.u8	d0, d0, d0
    17ec:	009f5101 	addseq	r5, pc, r1, lsl #2
    17f0:	00000000 	andeq	r0, r0, r0
    17f4:	01000000 	mrseq	r0, (UNDEF: 0)
    17f8:	00005100 	andeq	r5, r0, r0, lsl #2
    17fc:	00000000 	andeq	r0, r0, r0
    1800:	00040000 	andeq	r0, r4, r0
    1804:	9f5101f3 	svcls	0x005101f3
	...
    1810:	00510001 	subseq	r0, r1, r1
    1814:	00000000 	andeq	r0, r0, r0
    1818:	04000000 	streq	r0, [r0], #-0
    181c:	5101f300 	mrspl	pc, SP_irq	; <UNPREDICTABLE>
    1820:	0000009f 	muleq	r0, pc, r0	; <UNPREDICTABLE>
    1824:	00000000 	andeq	r0, r0, r0
    1828:	51000100 	mrspl	r0, (UNDEF: 16)
	...
    1834:	00000002 	andeq	r0, r0, r2
	...
    1840:	9f300002 	svcls	0x00300002
	...
    184c:	00500001 	subseq	r0, r0, r1
	...
    187c:	01000000 	mrseq	r0, (UNDEF: 0)
    1880:	00005000 	andeq	r5, r0, r0
    1884:	00000000 	andeq	r0, r0, r0
    1888:	00040000 	andeq	r0, r4, r0
    188c:	9f5001f3 	svcls	0x005001f3
	...
    1898:	00500001 	subseq	r0, r0, r1
    189c:	00000000 	andeq	r0, r0, r0
    18a0:	04000000 	streq	r0, [r0], #-0
    18a4:	5001f300 	andpl	pc, r1, r0, lsl #6
    18a8:	0000009f 	muleq	r0, pc, r0	; <UNPREDICTABLE>
    18ac:	00000000 	andeq	r0, r0, r0
    18b0:	50000100 	andpl	r0, r0, r0, lsl #2
	...
    18bc:	01f30004 	mvnseq	r0, r4
    18c0:	00009f50 	andeq	r9, r0, r0, asr pc
    18c4:	00000000 	andeq	r0, r0, r0
    18c8:	00010000 	andeq	r0, r1, r0
    18cc:	00000050 	andeq	r0, r0, r0, asr r0
    18d0:	00000000 	andeq	r0, r0, r0
    18d4:	f3000400 	vshl.u8	d0, d0, d0
    18d8:	009f5001 	addseq	r5, pc, r1
    18dc:	00000000 	andeq	r0, r0, r0
    18e0:	01000000 	mrseq	r0, (UNDEF: 0)
    18e4:	00005000 	andeq	r5, r0, r0
    18e8:	00000000 	andeq	r0, r0, r0
    18ec:	00040000 	andeq	r0, r4, r0
    18f0:	9f5001f3 	svcls	0x005001f3
	...
    18fc:	00500001 	subseq	r0, r0, r1
    1900:	00000000 	andeq	r0, r0, r0
    1904:	04000000 	streq	r0, [r0], #-0
    1908:	5001f300 	andpl	pc, r1, r0, lsl #6
    190c:	0000009f 	muleq	r0, pc, r0	; <UNPREDICTABLE>
    1910:	00000000 	andeq	r0, r0, r0
    1914:	50000100 	andpl	r0, r0, r0, lsl #2
	...
    1920:	01f30004 	mvnseq	r0, r4
    1924:	00009f50 	andeq	r9, r0, r0, asr pc
    1928:	00000000 	andeq	r0, r0, r0
    192c:	00010000 	andeq	r0, r1, r0
    1930:	00000050 	andeq	r0, r0, r0, asr r0
    1934:	00000000 	andeq	r0, r0, r0
    1938:	f3000400 	vshl.u8	d0, d0, d0
    193c:	009f5001 	addseq	r5, pc, r1
	...
    196c:	51000100 	mrspl	r0, (UNDEF: 16)
	...
    1978:	01f30004 	mvnseq	r0, r4
    197c:	00009f51 	andeq	r9, r0, r1, asr pc
    1980:	00000000 	andeq	r0, r0, r0
    1984:	00010000 	andeq	r0, r1, r0
    1988:	00000051 	andeq	r0, r0, r1, asr r0
    198c:	00000000 	andeq	r0, r0, r0
    1990:	f3000400 	vshl.u8	d0, d0, d0
    1994:	009f5101 	addseq	r5, pc, r1, lsl #2
    1998:	00000000 	andeq	r0, r0, r0
    199c:	01000000 	mrseq	r0, (UNDEF: 0)
    19a0:	00005100 	andeq	r5, r0, r0, lsl #2
    19a4:	00000000 	andeq	r0, r0, r0
    19a8:	00040000 	andeq	r0, r4, r0
    19ac:	9f5101f3 	svcls	0x005101f3
	...
    19b8:	00510001 	subseq	r0, r1, r1
    19bc:	00000000 	andeq	r0, r0, r0
    19c0:	04000000 	streq	r0, [r0], #-0
    19c4:	5101f300 	mrspl	pc, SP_irq	; <UNPREDICTABLE>
    19c8:	0000009f 	muleq	r0, pc, r0	; <UNPREDICTABLE>
    19cc:	00000000 	andeq	r0, r0, r0
    19d0:	51000100 	mrspl	r0, (UNDEF: 16)
	...
    19dc:	01f30004 	mvnseq	r0, r4
    19e0:	00009f51 	andeq	r9, r0, r1, asr pc
    19e4:	00000000 	andeq	r0, r0, r0
    19e8:	00010000 	andeq	r0, r1, r0
    19ec:	00000051 	andeq	r0, r0, r1, asr r0
    19f0:	00000000 	andeq	r0, r0, r0
    19f4:	f3000400 	vshl.u8	d0, d0, d0
    19f8:	009f5101 	addseq	r5, pc, r1, lsl #2
    19fc:	00000000 	andeq	r0, r0, r0
    1a00:	01000000 	mrseq	r0, (UNDEF: 0)
    1a04:	00005100 	andeq	r5, r0, r0, lsl #2
    1a08:	00000000 	andeq	r0, r0, r0
    1a0c:	00040000 	andeq	r0, r4, r0
    1a10:	9f5101f3 	svcls	0x005101f3
	...
    1a1c:	00510001 	subseq	r0, r1, r1
    1a20:	00000000 	andeq	r0, r0, r0
    1a24:	02000000 	andeq	r0, r0, #0
	...
    1a30:	02000000 	andeq	r0, r0, #0
    1a34:	009f3000 	addseq	r3, pc, r0
    1a38:	00000000 	andeq	r0, r0, r0
    1a3c:	01000000 	mrseq	r0, (UNDEF: 0)
    1a40:	00005000 	andeq	r5, r0, r0
	...
    1a70:	00010000 	andeq	r0, r1, r0
    1a74:	00000050 	andeq	r0, r0, r0, asr r0
    1a78:	00000000 	andeq	r0, r0, r0
    1a7c:	f3000400 	vshl.u8	d0, d0, d0
    1a80:	009f5001 	addseq	r5, pc, r1
    1a84:	00000000 	andeq	r0, r0, r0
    1a88:	01000000 	mrseq	r0, (UNDEF: 0)
    1a8c:	00005000 	andeq	r5, r0, r0
    1a90:	00000000 	andeq	r0, r0, r0
    1a94:	00040000 	andeq	r0, r4, r0
    1a98:	9f5001f3 	svcls	0x005001f3
	...
    1aa4:	00500001 	subseq	r0, r0, r1
    1aa8:	00000000 	andeq	r0, r0, r0
    1aac:	04000000 	streq	r0, [r0], #-0
    1ab0:	5001f300 	andpl	pc, r1, r0, lsl #6
    1ab4:	0000009f 	muleq	r0, pc, r0	; <UNPREDICTABLE>
    1ab8:	00000000 	andeq	r0, r0, r0
    1abc:	50000100 	andpl	r0, r0, r0, lsl #2
	...
    1ac8:	01f30004 	mvnseq	r0, r4
    1acc:	00009f50 	andeq	r9, r0, r0, asr pc
    1ad0:	00000000 	andeq	r0, r0, r0
    1ad4:	00010000 	andeq	r0, r1, r0
    1ad8:	00000050 	andeq	r0, r0, r0, asr r0
    1adc:	00000000 	andeq	r0, r0, r0
    1ae0:	f3000400 	vshl.u8	d0, d0, d0
    1ae4:	009f5001 	addseq	r5, pc, r1
    1ae8:	00000000 	andeq	r0, r0, r0
    1aec:	01000000 	mrseq	r0, (UNDEF: 0)
    1af0:	00005000 	andeq	r5, r0, r0
    1af4:	00000000 	andeq	r0, r0, r0
    1af8:	00040000 	andeq	r0, r4, r0
    1afc:	9f5001f3 	svcls	0x005001f3
	...
    1b08:	00500001 	subseq	r0, r0, r1
    1b0c:	00000000 	andeq	r0, r0, r0
    1b10:	04000000 	streq	r0, [r0], #-0
    1b14:	5001f300 	andpl	pc, r1, r0, lsl #6
    1b18:	0000009f 	muleq	r0, pc, r0	; <UNPREDICTABLE>
    1b1c:	00000000 	andeq	r0, r0, r0
    1b20:	50000100 	andpl	r0, r0, r0, lsl #2
	...
    1b2c:	01f30004 	mvnseq	r0, r4
    1b30:	00009f50 	andeq	r9, r0, r0, asr pc
	...
    1b60:	00510001 	subseq	r0, r1, r1
    1b64:	00000000 	andeq	r0, r0, r0
    1b68:	04000000 	streq	r0, [r0], #-0
    1b6c:	5101f300 	mrspl	pc, SP_irq	; <UNPREDICTABLE>
    1b70:	0000009f 	muleq	r0, pc, r0	; <UNPREDICTABLE>
    1b74:	00000000 	andeq	r0, r0, r0
    1b78:	51000100 	mrspl	r0, (UNDEF: 16)
	...
    1b84:	01f30004 	mvnseq	r0, r4
    1b88:	00009f51 	andeq	r9, r0, r1, asr pc
    1b8c:	00000000 	andeq	r0, r0, r0
    1b90:	00010000 	andeq	r0, r1, r0
    1b94:	00000051 	andeq	r0, r0, r1, asr r0
    1b98:	00000000 	andeq	r0, r0, r0
    1b9c:	f3000400 	vshl.u8	d0, d0, d0
    1ba0:	009f5101 	addseq	r5, pc, r1, lsl #2
    1ba4:	00000000 	andeq	r0, r0, r0
    1ba8:	01000000 	mrseq	r0, (UNDEF: 0)
    1bac:	00005100 	andeq	r5, r0, r0, lsl #2
    1bb0:	00000000 	andeq	r0, r0, r0
    1bb4:	00040000 	andeq	r0, r4, r0
    1bb8:	9f5101f3 	svcls	0x005101f3
	...
    1bc4:	00510001 	subseq	r0, r1, r1
    1bc8:	00000000 	andeq	r0, r0, r0
    1bcc:	04000000 	streq	r0, [r0], #-0
    1bd0:	5101f300 	mrspl	pc, SP_irq	; <UNPREDICTABLE>
    1bd4:	0000009f 	muleq	r0, pc, r0	; <UNPREDICTABLE>
    1bd8:	00000000 	andeq	r0, r0, r0
    1bdc:	51000100 	mrspl	r0, (UNDEF: 16)
	...
    1be8:	01f30004 	mvnseq	r0, r4
    1bec:	00009f51 	andeq	r9, r0, r1, asr pc
    1bf0:	00000000 	andeq	r0, r0, r0
    1bf4:	00010000 	andeq	r0, r1, r0
    1bf8:	00000051 	andeq	r0, r0, r1, asr r0
    1bfc:	00000000 	andeq	r0, r0, r0
    1c00:	f3000400 	vshl.u8	d0, d0, d0
    1c04:	009f5101 	addseq	r5, pc, r1, lsl #2
    1c08:	00000000 	andeq	r0, r0, r0
    1c0c:	01000000 	mrseq	r0, (UNDEF: 0)
    1c10:	00005100 	andeq	r5, r0, r0, lsl #2
    1c14:	00000000 	andeq	r0, r0, r0
    1c18:	00020000 	andeq	r0, r2, r0
	...
    1c24:	00020000 	andeq	r0, r2, r0
    1c28:	00009f30 	andeq	r9, r0, r0, lsr pc
    1c2c:	00000000 	andeq	r0, r0, r0
    1c30:	00010000 	andeq	r0, r1, r0
    1c34:	00000050 	andeq	r0, r0, r0, asr r0
	...
    1c58:	000e4c00 	andeq	r4, lr, r0, lsl #24
    1c5c:	000e6e08 	andeq	r6, lr, r8, lsl #28
    1c60:	50000108 	andpl	r0, r0, r8, lsl #2
    1c64:	08000e6e 	stmdaeq	r0, {r1, r2, r3, r5, r6, r9, sl, fp}
    1c68:	08000e70 	stmdaeq	r0, {r4, r5, r6, r9, sl, fp}
    1c6c:	01f30004 	mvnseq	r0, r4
    1c70:	0e709f50 	mrceq	15, 3, r9, cr0, cr0, {2}
    1c74:	0ebc0800 	cdpeq	8, 11, cr0, cr12, cr0, {0}
    1c78:	00010800 	andeq	r0, r1, r0, lsl #16
    1c7c:	000ebc50 	andeq	fp, lr, r0, asr ip
    1c80:	000ebe08 	andeq	fp, lr, r8, lsl #28
    1c84:	f3000408 	vshl.u8	d0, d8, d0
    1c88:	be9f5001 	cdplt	0, 9, cr5, cr15, cr1, {0}
    1c8c:	d408000e 	strle	r0, [r8], #-14
    1c90:	0108000e 	tsteq	r8, lr
    1c94:	0ed45000 	cdpeq	0, 13, cr5, cr4, cr0, {0}
    1c98:	0ed60800 	cdpeq	8, 13, cr0, cr6, cr0, {0}
    1c9c:	00040800 	andeq	r0, r4, r0, lsl #16
    1ca0:	9f5001f3 	svcls	0x005001f3
    1ca4:	08000ed6 	stmdaeq	r0, {r1, r2, r4, r6, r7, r9, sl, fp}
    1ca8:	08000ef4 	stmdaeq	r0, {r2, r4, r5, r6, r7, r9, sl, fp}
    1cac:	f4500001 			; <UNDEFINED> instruction: 0xf4500001
    1cb0:	f608000e 			; <UNDEFINED> instruction: 0xf608000e
    1cb4:	0408000e 	streq	r0, [r8], #-14
    1cb8:	5001f300 	andpl	pc, r1, r0, lsl #6
    1cbc:	000ef69f 	muleq	lr, pc, r6	; <UNPREDICTABLE>
    1cc0:	000f4208 	andeq	r4, pc, r8, lsl #4
    1cc4:	50000108 	andpl	r0, r0, r8, lsl #2
    1cc8:	08000f42 	stmdaeq	r0, {r1, r6, r8, r9, sl, fp}
    1ccc:	08000f44 	stmdaeq	r0, {r2, r6, r8, r9, sl, fp}
    1cd0:	01f30004 	mvnseq	r0, r4
    1cd4:	0f449f50 	svceq	0x00449f50
    1cd8:	0f460800 	svceq	0x00460800
    1cdc:	00010800 	andeq	r0, r1, r0, lsl #16
    1ce0:	000f4650 	andeq	r4, pc, r0, asr r6	; <UNPREDICTABLE>
    1ce4:	000f4808 	andeq	r4, pc, r8, lsl #16
    1ce8:	f3000408 	vshl.u8	d0, d8, d0
    1cec:	489f5001 	ldmmi	pc, {r0, ip, lr}	; <UNPREDICTABLE>
    1cf0:	4a08000f 	bmi	201d34 <_Min_Stack_Size+0x201934>
    1cf4:	0108000f 	tsteq	r8, pc
    1cf8:	0f4a5000 	svceq	0x004a5000
    1cfc:	0f580800 	svceq	0x00580800
    1d00:	00040800 	andeq	r0, r4, r0, lsl #16
    1d04:	9f5001f3 	svcls	0x005001f3
	...
    1d14:	08000e9e 	stmdaeq	r0, {r1, r2, r3, r4, r7, r9, sl, fp}
    1d18:	08000eb2 	stmdaeq	r0, {r1, r4, r5, r7, r9, sl, fp}
    1d1c:	24530001 	ldrbcs	r0, [r3], #-1
    1d20:	3808000f 	stmdacc	r8, {r0, r1, r2, r3}
    1d24:	0108000f 	tsteq	r8, pc
    1d28:	00005300 	andeq	r5, r0, r0, lsl #6
	...
    1d3c:	00010000 	andeq	r0, r1, r0
    1d40:	00000050 	andeq	r0, r0, r0, asr r0
    1d44:	00000000 	andeq	r0, r0, r0
    1d48:	f3000400 	vshl.u8	d0, d0, d0
    1d4c:	009f5001 	addseq	r5, pc, r1
	...
    1d5c:	02000000 	andeq	r0, r0, #0
    1d60:	00007d00 	andeq	r7, r0, r0, lsl #26
    1d64:	00000000 	andeq	r0, r0, r0
    1d68:	02000000 	andeq	r0, r0, #0
    1d6c:	00087d00 	andeq	r7, r8, r0, lsl #26
	...
    1d80:	01000000 	mrseq	r0, (UNDEF: 0)
    1d84:	00005000 	andeq	r5, r0, r0
    1d88:	00000000 	andeq	r0, r0, r0
    1d8c:	00040000 	andeq	r0, r4, r0
    1d90:	9f5001f3 	svcls	0x005001f3
	...
    1d9c:	00000002 	andeq	r0, r0, r2
	...
    1da8:	00500001 	subseq	r0, r0, r1
    1dac:	00000000 	andeq	r0, r0, r0
    1db0:	04000000 	streq	r0, [r0], #-0
    1db4:	5001f300 	andpl	pc, r1, r0, lsl #6
    1db8:	0000009f 	muleq	r0, pc, r0	; <UNPREDICTABLE>
	...
    1dcc:	50000100 	andpl	r0, r0, r0, lsl #2
	...
    1dd8:	01f30004 	mvnseq	r0, r4
    1ddc:	00009f50 	andeq	r9, r0, r0, asr pc
    1de0:	00000000 	andeq	r0, r0, r0
    1de4:	00030000 	andeq	r0, r3, r0
	...
    1df0:	00010000 	andeq	r0, r1, r0
    1df4:	00000050 	andeq	r0, r0, r0, asr r0
    1df8:	00000000 	andeq	r0, r0, r0
    1dfc:	f3000400 	vshl.u8	d0, d0, d0
    1e00:	009f5001 	addseq	r5, pc, r1
	...
    1e14:	01000000 	mrseq	r0, (UNDEF: 0)
    1e18:	00005000 	andeq	r5, r0, r0
    1e1c:	00000000 	andeq	r0, r0, r0
    1e20:	00040000 	andeq	r0, r4, r0
    1e24:	9f5001f3 	svcls	0x005001f3
	...
    1e30:	00000003 	andeq	r0, r0, r3
	...
    1e3c:	00500001 	subseq	r0, r0, r1
    1e40:	00000000 	andeq	r0, r0, r0
    1e44:	04000000 	streq	r0, [r0], #-0
    1e48:	5001f300 	andpl	pc, r1, r0, lsl #6
    1e4c:	0000009f 	muleq	r0, pc, r0	; <UNPREDICTABLE>
	...
    1e60:	50000100 	andpl	r0, r0, r0, lsl #2
	...
    1e6c:	01f30004 	mvnseq	r0, r4
    1e70:	00009f50 	andeq	r9, r0, r0, asr pc
    1e74:	00000000 	andeq	r0, r0, r0
    1e78:	00030000 	andeq	r0, r3, r0
	...
    1e84:	00010000 	andeq	r0, r1, r0
    1e88:	00000050 	andeq	r0, r0, r0, asr r0
    1e8c:	00000000 	andeq	r0, r0, r0
    1e90:	f3000400 	vshl.u8	d0, d0, d0
    1e94:	009f5001 	addseq	r5, pc, r1
	...
    1ea4:	02000000 	andeq	r0, r0, #0
    1ea8:	00007d00 	andeq	r7, r0, r0, lsl #26
    1eac:	00000000 	andeq	r0, r0, r0
    1eb0:	02000000 	andeq	r0, r0, #0
    1eb4:	00087d00 	andeq	r7, r8, r0, lsl #26
	...
    1ec8:	01000000 	mrseq	r0, (UNDEF: 0)
    1ecc:	00005000 	andeq	r5, r0, r0
    1ed0:	00000000 	andeq	r0, r0, r0
    1ed4:	00040000 	andeq	r0, r4, r0
    1ed8:	9f5001f3 	svcls	0x005001f3
	...
    1ef4:	00510001 	subseq	r0, r1, r1
    1ef8:	00000000 	andeq	r0, r0, r0
    1efc:	04000000 	streq	r0, [r0], #-0
    1f00:	5101f300 	mrspl	pc, SP_irq	; <UNPREDICTABLE>
    1f04:	0000009f 	muleq	r0, pc, r0	; <UNPREDICTABLE>
    1f08:	00000000 	andeq	r0, r0, r0
    1f0c:	51000100 	mrspl	r0, (UNDEF: 16)
	...
    1f18:	01f30004 	mvnseq	r0, r4
    1f1c:	00009f51 	andeq	r9, r0, r1, asr pc
    1f20:	00000000 	andeq	r0, r0, r0
    1f24:	00020000 	andeq	r0, r2, r0
	...
    1f34:	00500001 	subseq	r0, r0, r1
    1f38:	00000000 	andeq	r0, r0, r0
    1f3c:	04000000 	streq	r0, [r0], #-0
    1f40:	5001f300 	andpl	pc, r1, r0, lsl #6
    1f44:	0000009f 	muleq	r0, pc, r0	; <UNPREDICTABLE>
    1f48:	00000000 	andeq	r0, r0, r0
    1f4c:	f3000400 	vshl.u8	d0, d0, d0
    1f50:	009f5001 	addseq	r5, pc, r1
	...
    1f64:	01000000 	mrseq	r0, (UNDEF: 0)
    1f68:	00005300 	andeq	r5, r0, r0, lsl #6
    1f6c:	00000000 	andeq	r0, r0, r0
    1f70:	00010000 	andeq	r0, r1, r0
    1f74:	00000053 	andeq	r0, r0, r3, asr r0
	...
    1f88:	52000100 	andpl	r0, r0, #0, 2
	...
    1f94:	00520001 	subseq	r0, r2, r1
	...
    1fac:	51000100 	mrspl	r0, (UNDEF: 16)
	...
    1fb8:	01f30004 	mvnseq	r0, r4
    1fbc:	00009f51 	andeq	r9, r0, r1, asr pc
    1fc0:	00000000 	andeq	r0, r0, r0
    1fc4:	00040000 	andeq	r0, r4, r0
    1fc8:	9f5101f3 	svcls	0x005101f3
	...
    1fe0:	00500001 	subseq	r0, r0, r1
    1fe4:	00000000 	andeq	r0, r0, r0
    1fe8:	01000000 	mrseq	r0, (UNDEF: 0)
    1fec:	00005000 	andeq	r5, r0, r0
	...
    2008:	00510001 	subseq	r0, r1, r1
    200c:	00000000 	andeq	r0, r0, r0
    2010:	03000000 	movweq	r0, #0
    2014:	9f7c7400 	svcls	0x007c7400
	...
    2020:	01f30006 	mvnseq	r0, r6
    2024:	9f1a3751 	svcls	0x001a3751
	...
    2030:	00510001 	subseq	r0, r1, r1
    2034:	00000000 	andeq	r0, r0, r0
    2038:	03000000 	movweq	r0, #0
    203c:	9f7c7400 	svcls	0x007c7400
	...
    2054:	00010000 	andeq	r0, r1, r0
    2058:	0000005c 	andeq	r0, r0, ip, asr r0
    205c:	00000000 	andeq	r0, r0, r0
    2060:	34001d00 	strcc	r1, [r0], #-3328	; 0xfffff300
    2064:	205101f3 	ldrshcs	r0, [r1], #-19	; 0xffffffed
    2068:	01f31a37 	mvnseq	r1, r7, lsr sl
    206c:	1a372051 	bne	dca1b8 <_Min_Stack_Size+0xdc9db8>
    2070:	22244b40 	eorcs	r4, r4, #64, 22	; 0x10000
    2074:	0000040c 	andeq	r0, r0, ip, lsl #8
    2078:	01282a80 	smlawbeq	r8, r0, sl, r2
    207c:	9f131600 	svcls	0x00131600
	...
    2088:	005c0001 	subseq	r0, ip, r1
	...
    209c:	51000100 	mrspl	r0, (UNDEF: 16)
	...
    20ac:	0ffc0000 	svceq	0x00fc0000
    20b0:	0ffe0800 	svceq	0x00fe0800
    20b4:	00010800 	andeq	r0, r1, r0, lsl #16
    20b8:	000ffe50 	andeq	pc, pc, r0, asr lr	; <UNPREDICTABLE>
    20bc:	00101408 	andseq	r1, r0, r8, lsl #8
    20c0:	70000308 	andvc	r0, r0, r8, lsl #6
    20c4:	10149f01 	andsne	r9, r4, r1, lsl #30
    20c8:	10240800 	eorne	r0, r4, r0, lsl #16
    20cc:	00040800 	andeq	r0, r4, r0, lsl #16
    20d0:	9f5001f3 	svcls	0x005001f3
	...
    20dc:	00000002 	andeq	r0, r0, r2
    20e0:	0ffc0000 	svceq	0x00fc0000
    20e4:	0ffe0800 	svceq	0x00fe0800
    20e8:	00010800 	andeq	r0, r1, r0, lsl #16
    20ec:	000ffe50 	andeq	pc, pc, r0, asr lr	; <UNPREDICTABLE>
    20f0:	00101408 	andseq	r1, r0, r8, lsl #8
    20f4:	70000308 	andvc	r0, r0, r8, lsl #6
    20f8:	10149f01 	andsne	r9, r4, r1, lsl #30
    20fc:	101e0800 	andsne	r0, lr, r0, lsl #16
    2100:	00040800 	andeq	r0, r4, r0, lsl #16
    2104:	9f5001f3 	svcls	0x005001f3
	...
    2110:	100a0001 	andne	r0, sl, r1
    2114:	10120800 	andsne	r0, r2, r0, lsl #16
    2118:	00020800 	andeq	r0, r2, r0, lsl #16
    211c:	00009f3f 	andeq	r9, r0, pc, lsr pc
    2120:	00000000 	andeq	r0, r0, r0
    2124:	00010000 	andeq	r0, r1, r0
    2128:	0800100a 	stmdaeq	r0, {r1, r3, ip}
    212c:	08001012 	stmdaeq	r0, {r1, r4, ip}
    2130:	ff090003 			; <UNDEFINED> instruction: 0xff090003
    2134:	0000009f 	muleq	r0, pc, r0	; <UNPREDICTABLE>
	...
    2148:	50000100 	andpl	r0, r0, r0, lsl #2
	...
    2154:	01f30004 	mvnseq	r0, r4
    2158:	00009f50 	andeq	r9, r0, r0, asr pc
    215c:	00000000 	andeq	r0, r0, r0
    2160:	00030000 	andeq	r0, r3, r0
	...
    216c:	00010000 	andeq	r0, r1, r0
    2170:	00000050 	andeq	r0, r0, r0, asr r0
    2174:	00000000 	andeq	r0, r0, r0
    2178:	f3000400 	vshl.u8	d0, d0, d0
    217c:	009f5001 	addseq	r5, pc, r1
	...
    2190:	01000000 	mrseq	r0, (UNDEF: 0)
    2194:	00005000 	andeq	r5, r0, r0
    2198:	00000000 	andeq	r0, r0, r0
    219c:	00040000 	andeq	r0, r4, r0
    21a0:	9f5001f3 	svcls	0x005001f3
	...
    21ac:	01000003 	tsteq	r0, r3
	...
    21b8:	00500001 	subseq	r0, r0, r1
    21bc:	00000000 	andeq	r0, r0, r0
    21c0:	04000000 	streq	r0, [r0], #-0
    21c4:	5001f300 	andpl	pc, r1, r0, lsl #6
    21c8:	0000009f 	muleq	r0, pc, r0	; <UNPREDICTABLE>
    21cc:	00000000 	andeq	r0, r0, r0
    21d0:	000f8c00 	andeq	r8, pc, r0, lsl #24
    21d4:	000f8e08 	andeq	r8, pc, r8, lsl #28
    21d8:	7d000208 	sfmvc	f0, 4, [r0, #-32]	; 0xffffffe0
    21dc:	000f8e00 	andeq	r8, pc, r0, lsl #28
    21e0:	000ffc08 	andeq	pc, pc, r8, lsl #24
    21e4:	7d000208 	sfmvc	f0, 4, [r0, #-32]	; 0xffffffe0
    21e8:	00000004 	andeq	r0, r0, r4
	...
    21f8:	000f8c00 	andeq	r8, pc, r0, lsl #24
    21fc:	000fd408 	andeq	sp, pc, r8, lsl #8
    2200:	50000108 	andpl	r0, r0, r8, lsl #2
    2204:	08000fd4 	stmdaeq	r0, {r2, r4, r6, r7, r8, r9, sl, fp}
    2208:	08000fe0 	stmdaeq	r0, {r5, r6, r7, r8, r9, sl, fp}
    220c:	01f30004 	mvnseq	r0, r4
    2210:	0fe09f50 	svceq	0x00e09f50
    2214:	0fe80800 	svceq	0x00e80800
    2218:	00010800 	andeq	r0, r1, r0, lsl #16
    221c:	000fe850 	andeq	lr, pc, r0, asr r8	; <UNPREDICTABLE>
    2220:	000ffc08 	andeq	pc, pc, r8, lsl #24
    2224:	f3000408 	vshl.u8	d0, d8, d0
    2228:	009f5001 	addseq	r5, pc, r1
	...
    2238:	8c000000 	stchi	0, cr0, [r0], {-0}
    223c:	bc08000f 	stclt	0, cr0, [r8], {15}
    2240:	0108000f 	tsteq	r8, pc
    2244:	0fbc5100 	svceq	0x00bc5100
    2248:	0fe00800 	svceq	0x00e00800
    224c:	00040800 	andeq	r0, r4, r0, lsl #16
    2250:	9f5101f3 	svcls	0x005101f3
    2254:	08000fe0 	stmdaeq	r0, {r5, r6, r7, r8, r9, sl, fp}
    2258:	08000fe4 	stmdaeq	r0, {r2, r5, r6, r7, r8, r9, sl, fp}
    225c:	e4510001 	ldrb	r0, [r1], #-1
    2260:	fc08000f 	stc2	0, cr0, [r8], {15}
    2264:	0408000f 	streq	r0, [r8], #-15
    2268:	5101f300 	mrspl	pc, SP_irq	; <UNPREDICTABLE>
    226c:	0000009f 	muleq	r0, pc, r0	; <UNPREDICTABLE>
	...
    227c:	000f9600 	andeq	r9, pc, r0, lsl #12
    2280:	000fb008 	andeq	fp, pc, r8
    2284:	53000108 	movwpl	r0, #264	; 0x108
    2288:	08000fb0 	stmdaeq	r0, {r4, r5, r7, r8, r9, sl, fp}
    228c:	08000fb4 	stmdaeq	r0, {r2, r4, r5, r7, r8, r9, sl, fp}
    2290:	7c7e0003 	ldclvc	0, cr0, [lr], #-12
    2294:	000fe09f 	muleq	pc, pc, r0	; <UNPREDICTABLE>
    2298:	000fe208 	andeq	lr, pc, r8, lsl #4
    229c:	53000108 	movwpl	r0, #264	; 0x108
    22a0:	08000fe2 	stmdaeq	r0, {r1, r5, r6, r7, r8, r9, sl, fp}
    22a4:	08000fe4 	stmdaeq	r0, {r2, r5, r6, r7, r8, r9, sl, fp}
    22a8:	7c7e0003 	ldclvc	0, cr0, [lr], #-12
    22ac:	0000009f 	muleq	r0, pc, r0	; <UNPREDICTABLE>
    22b0:	00000000 	andeq	r0, r0, r0
    22b4:	00000200 	andeq	r0, r0, r0, lsl #4
    22b8:	000f9600 	andeq	r9, pc, r0, lsl #12
    22bc:	000fc808 	andeq	ip, pc, r8, lsl #16
    22c0:	52000108 	andpl	r0, r0, #8, 2
    22c4:	08000fe0 	stmdaeq	r0, {r5, r6, r7, r8, r9, sl, fp}
    22c8:	08000fe4 	stmdaeq	r0, {r2, r5, r6, r7, r8, r9, sl, fp}
    22cc:	00520001 	subseq	r0, r2, r1
    22d0:	00000000 	andeq	r0, r0, r0
    22d4:	02000000 	andeq	r0, r0, #0
    22d8:	00000000 	andeq	r0, r0, r0
    22dc:	000f9600 	andeq	r9, pc, r0, lsl #12
    22e0:	000fbc08 	andeq	fp, pc, r8, lsl #24
    22e4:	51000108 	tstpl	r0, r8, lsl #2
    22e8:	08000fbc 	stmdaeq	r0, {r2, r3, r4, r5, r7, r8, r9, sl, fp}
    22ec:	08000fc8 	stmdaeq	r0, {r3, r6, r7, r8, r9, sl, fp}
    22f0:	01f30004 	mvnseq	r0, r4
    22f4:	0fe09f51 	svceq	0x00e09f51
    22f8:	0fe40800 	svceq	0x00e40800
    22fc:	00010800 	andeq	r0, r1, r0, lsl #16
    2300:	00000051 	andeq	r0, r0, r1, asr r0
    2304:	00000000 	andeq	r0, r0, r0
    2308:	00000200 	andeq	r0, r0, r0, lsl #4
    230c:	00000000 	andeq	r0, r0, r0
    2310:	000f9600 	andeq	r9, pc, r0, lsl #12
    2314:	000fb008 	andeq	fp, pc, r8
    2318:	53000108 	movwpl	r0, #264	; 0x108
    231c:	08000fb0 	stmdaeq	r0, {r4, r5, r7, r8, r9, sl, fp}
    2320:	08000fb4 	stmdaeq	r0, {r2, r4, r5, r7, r8, r9, sl, fp}
    2324:	7c7e0003 	ldclvc	0, cr0, [lr], #-12
    2328:	000fe09f 	muleq	pc, pc, r0	; <UNPREDICTABLE>
    232c:	000fe208 	andeq	lr, pc, r8, lsl #4
    2330:	53000108 	movwpl	r0, #264	; 0x108
    2334:	08000fe2 	stmdaeq	r0, {r1, r5, r6, r7, r8, r9, sl, fp}
    2338:	08000fe4 	stmdaeq	r0, {r2, r5, r6, r7, r8, r9, sl, fp}
    233c:	7c7e0003 	ldclvc	0, cr0, [lr], #-12
    2340:	0000009f 	muleq	r0, pc, r0	; <UNPREDICTABLE>
    2344:	00000000 	andeq	r0, r0, r0
    2348:	00000400 	andeq	r0, r0, r0, lsl #8
    234c:	00000000 	andeq	r0, r0, r0
    2350:	000f9600 	andeq	r9, pc, r0, lsl #12
    2354:	000fb008 	andeq	fp, pc, r8
    2358:	53000108 	movwpl	r0, #264	; 0x108
    235c:	08000fb0 	stmdaeq	r0, {r4, r5, r7, r8, r9, sl, fp}
    2360:	08000fb4 	stmdaeq	r0, {r2, r4, r5, r7, r8, r9, sl, fp}
    2364:	7c7e0003 	ldclvc	0, cr0, [lr], #-12
    2368:	000fe09f 	muleq	pc, pc, r0	; <UNPREDICTABLE>
    236c:	000fe208 	andeq	lr, pc, r8, lsl #4
    2370:	53000108 	movwpl	r0, #264	; 0x108
    2374:	08000fe2 	stmdaeq	r0, {r1, r5, r6, r7, r8, r9, sl, fp}
    2378:	08000fe4 	stmdaeq	r0, {r2, r5, r6, r7, r8, r9, sl, fp}
    237c:	7c7e0003 	ldclvc	0, cr0, [lr], #-12
    2380:	0000009f 	muleq	r0, pc, r0	; <UNPREDICTABLE>
	...
    238c:	000fa400 	andeq	sl, pc, r0, lsl #8
    2390:	000fb808 	andeq	fp, pc, r8, lsl #16
    2394:	5c000108 	stfpls	f0, [r0], {8}
    2398:	08000fe0 	stmdaeq	r0, {r5, r6, r7, r8, r9, sl, fp}
    239c:	08000fe4 	stmdaeq	r0, {r2, r5, r6, r7, r8, r9, sl, fp}
    23a0:	005c0001 	subseq	r0, ip, r1
	...
    23ac:	000fb000 	andeq	fp, pc, r0
    23b0:	000fc208 	andeq	ip, pc, r8, lsl #4
    23b4:	53000108 	movwpl	r0, #264	; 0x108
	...
    23c4:	08000fc8 	stmdaeq	r0, {r3, r6, r7, r8, r9, sl, fp}
    23c8:	08000fce 	stmdaeq	r0, {r1, r2, r3, r6, r7, r8, r9, sl, fp}
    23cc:	e4510001 	ldrb	r0, [r1], #-1
    23d0:	ea08000f 	b	202414 <_Min_Stack_Size+0x202014>
    23d4:	0108000f 	tsteq	r8, pc
    23d8:	00005100 	andeq	r5, r0, r0, lsl #2
	...
    23e8:	0fc80000 	svceq	0x00c80000
    23ec:	0fd40800 	svceq	0x00d40800
    23f0:	00010800 	andeq	r0, r1, r0, lsl #16
    23f4:	000fd450 	andeq	sp, pc, r0, asr r4	; <UNPREDICTABLE>
    23f8:	000fdc08 	andeq	sp, pc, r8, lsl #24
    23fc:	f3000408 	vshl.u8	d0, d8, d0
    2400:	e49f5001 	ldr	r5, [pc], #1	; 2408 <_Min_Stack_Size+0x2008>
    2404:	e808000f 	stmda	r8, {r0, r1, r2, r3}
    2408:	0108000f 	tsteq	r8, pc
    240c:	0fe85000 	svceq	0x00e85000
    2410:	0ff00800 	svceq	0x00f00800
    2414:	00040800 	andeq	r0, r4, r0, lsl #16
    2418:	9f5001f3 	svcls	0x005001f3
	...
    2428:	08000f68 	stmdaeq	r0, {r3, r5, r6, r8, r9, sl, fp}
    242c:	08000f76 	stmdaeq	r0, {r1, r2, r4, r5, r6, r8, r9, sl, fp}
    2430:	76500001 	ldrbvc	r0, [r0], -r1
    2434:	8c08000f 	stchi	0, cr0, [r8], {15}
    2438:	0408000f 	streq	r0, [r8], #-15
    243c:	5001f300 	andpl	pc, r1, r0, lsl #6
    2440:	0000009f 	muleq	r0, pc, r0	; <UNPREDICTABLE>
    2444:	00000000 	andeq	r0, r0, r0
    2448:	00000300 	andeq	r0, r0, r0, lsl #6
    244c:	000f6800 	andeq	r6, pc, r0, lsl #16
    2450:	000f7608 	andeq	r7, pc, r8, lsl #12
    2454:	50000108 	andpl	r0, r0, r8, lsl #2
    2458:	08000f76 	stmdaeq	r0, {r1, r2, r4, r5, r6, r8, r9, sl, fp}
    245c:	08000f86 	stmdaeq	r0, {r1, r2, r7, r8, r9, sl, fp}
    2460:	01f30004 	mvnseq	r0, r4
    2464:	00009f50 	andeq	r9, r0, r0, asr pc
	...
    2474:	08000f6c 	stmdaeq	r0, {r2, r3, r5, r6, r8, r9, sl, fp}
    2478:	08000f70 	stmdaeq	r0, {r4, r5, r6, r8, r9, sl, fp}
    247c:	74530001 	ldrbvc	r0, [r3], #-1
    2480:	7c08000f 	stcvc	0, cr0, [r8], {15}
    2484:	0108000f 	tsteq	r8, pc
    2488:	0f845300 	svceq	0x00845300
    248c:	0f860800 	svceq	0x00860800
    2490:	00010800 	andeq	r0, r1, r0, lsl #16
    2494:	00000053 	andeq	r0, r0, r3, asr r0
    2498:	00000000 	andeq	r0, r0, r0
    249c:	00000600 	andeq	r0, r0, r0, lsl #12
    24a0:	000f6800 	andeq	r6, pc, r0, lsl #16
    24a4:	000f7608 	andeq	r7, pc, r8, lsl #12
    24a8:	70000508 	andvc	r0, r0, r8, lsl #10
    24ac:	9f1a3700 	svcls	0x001a3700
    24b0:	08000f76 	stmdaeq	r0, {r1, r2, r4, r5, r6, r8, r9, sl, fp}
    24b4:	08000f8c 	stmdaeq	r0, {r2, r3, r7, r8, r9, sl, fp}
    24b8:	01f30006 	mvnseq	r0, r6
    24bc:	9f1a3750 	svcls	0x001a3750
	...

Disassembly of section .debug_aranges:

00000000 <.debug_aranges>:
   0:	00000024 	andeq	r0, r0, r4, lsr #32
   4:	00000002 	andeq	r0, r0, r2
   8:	00040000 	andeq	r0, r4, r0
	...
  14:	00000010 	andeq	r0, r0, r0, lsl r0
  18:	08000218 	stmdaeq	r0, {r3, r4, r9}
  1c:	00000064 	andeq	r0, r0, r4, rrx
	...
  28:	0000002c 	andeq	r0, r0, ip, lsr #32
  2c:	032f0002 			; <UNDEFINED> instruction: 0x032f0002
  30:	00040000 	andeq	r0, r4, r0
  34:	00000000 	andeq	r0, r0, r0
  38:	0800027c 	stmdaeq	r0, {r2, r3, r4, r5, r6, r9}
  3c:	00000004 	andeq	r0, r0, r4
  40:	08000280 	stmdaeq	r0, {r7, r9}
  44:	00000072 	andeq	r0, r0, r2, ror r0
  48:	080002f2 	stmdaeq	r0, {r1, r4, r5, r6, r7, r9}
  4c:	00000014 	andeq	r0, r0, r4, lsl r0
	...
  58:	0000001c 	andeq	r0, r0, ip, lsl r0
  5c:	06e30002 	strbteq	r0, [r3], r2
  60:	00040000 	andeq	r0, r4, r0
  64:	00000000 	andeq	r0, r0, r0
  68:	08000308 	stmdaeq	r0, {r3, r8, r9}
  6c:	00000074 	andeq	r0, r0, r4, ror r0
	...
  78:	0000005c 	andeq	r0, r0, ip, asr r0
  7c:	0c4d0002 	mcrreq	0, 0, r0, sp, cr2
  80:	00040000 	andeq	r0, r4, r0
  84:	00000000 	andeq	r0, r0, r0
  88:	0800037c 	stmdaeq	r0, {r2, r3, r4, r5, r6, r8, r9}
  8c:	00000002 	andeq	r0, r0, r2
  90:	0800037e 	stmdaeq	r0, {r1, r2, r3, r4, r5, r6, r8, r9}
  94:	00000002 	andeq	r0, r0, r2
  98:	08000380 	stmdaeq	r0, {r7, r8, r9}
  9c:	00000002 	andeq	r0, r0, r2
  a0:	08000382 	stmdaeq	r0, {r1, r7, r8, r9}
  a4:	00000002 	andeq	r0, r0, r2
  a8:	08000384 	stmdaeq	r0, {r2, r7, r8, r9}
  ac:	00000002 	andeq	r0, r0, r2
  b0:	08000386 	stmdaeq	r0, {r1, r2, r7, r8, r9}
  b4:	00000002 	andeq	r0, r0, r2
  b8:	08000388 	stmdaeq	r0, {r3, r7, r8, r9}
  bc:	00000002 	andeq	r0, r0, r2
  c0:	0800038a 	stmdaeq	r0, {r1, r3, r7, r8, r9}
  c4:	00000002 	andeq	r0, r0, r2
  c8:	0800038c 	stmdaeq	r0, {r2, r3, r7, r8, r9}
  cc:	00000008 	andeq	r0, r0, r8
	...
  d8:	0000001c 	andeq	r0, r0, ip, lsl r0
  dc:	0da80002 	stceq	0, cr0, [r8, #8]!
  e0:	00040000 	andeq	r0, r4, r0
  e4:	00000000 	andeq	r0, r0, r0
  e8:	08000394 	stmdaeq	r0, {r2, r4, r7, r8, r9}
  ec:	00000038 	andeq	r0, r0, r8, lsr r0
	...
  f8:	00000024 	andeq	r0, r0, r4, lsr #32
  fc:	11490002 	cmpne	r9, r2
 100:	00040000 	andeq	r0, r4, r0
 104:	00000000 	andeq	r0, r0, r0
 108:	080003cc 	stmdaeq	r0, {r2, r3, r6, r7, r8, r9}
 10c:	00000014 	andeq	r0, r0, r4, lsl r0
 110:	00000000 	andeq	r0, r0, r0
 114:	00000090 	muleq	r0, r0, r0
	...
 120:	0000012c 	andeq	r0, r0, ip, lsr #2
 124:	17920002 	ldrne	r0, [r2, r2]
 128:	00040000 	andeq	r0, r4, r0
	...
 134:	00000002 	andeq	r0, r0, r2
 138:	00000000 	andeq	r0, r0, r0
 13c:	00000002 	andeq	r0, r0, r2
 140:	00000000 	andeq	r0, r0, r0
 144:	0000002c 	andeq	r0, r0, ip, lsr #32
 148:	080003e0 	stmdaeq	r0, {r5, r6, r7, r8, r9}
 14c:	00000050 	andeq	r0, r0, r0, asr r0
 150:	08000430 	stmdaeq	r0, {r4, r5, sl}
 154:	0000001e 	andeq	r0, r0, lr, lsl r0
 158:	08000450 	stmdaeq	r0, {r4, r6, sl}
 15c:	00000018 	andeq	r0, r0, r8, lsl r0
 160:	08000468 	stmdaeq	r0, {r3, r5, r6, sl}
 164:	0000000c 	andeq	r0, r0, ip
 168:	00000000 	andeq	r0, r0, r0
 16c:	0000000c 	andeq	r0, r0, ip
 170:	00000000 	andeq	r0, r0, r0
 174:	0000002c 	andeq	r0, r0, ip, lsr #32
 178:	00000000 	andeq	r0, r0, r0
 17c:	0000000c 	andeq	r0, r0, ip
 180:	08000474 	stmdaeq	r0, {r2, r4, r5, r6, sl}
 184:	00000028 	andeq	r0, r0, r8, lsr #32
 188:	00000000 	andeq	r0, r0, r0
 18c:	0000000e 	andeq	r0, r0, lr
 190:	00000000 	andeq	r0, r0, r0
 194:	0000000e 	andeq	r0, r0, lr
 198:	00000000 	andeq	r0, r0, r0
 19c:	00000008 	andeq	r0, r0, r8
 1a0:	00000000 	andeq	r0, r0, r0
 1a4:	0000000c 	andeq	r0, r0, ip
 1a8:	00000000 	andeq	r0, r0, r0
 1ac:	00000010 	andeq	r0, r0, r0, lsl r0
 1b0:	00000000 	andeq	r0, r0, r0
 1b4:	00000010 	andeq	r0, r0, r0, lsl r0
 1b8:	00000000 	andeq	r0, r0, r0
 1bc:	00000010 	andeq	r0, r0, r0, lsl r0
 1c0:	00000000 	andeq	r0, r0, r0
 1c4:	00000010 	andeq	r0, r0, r0, lsl r0
 1c8:	00000000 	andeq	r0, r0, r0
 1cc:	00000010 	andeq	r0, r0, r0, lsl r0
 1d0:	00000000 	andeq	r0, r0, r0
 1d4:	00000010 	andeq	r0, r0, r0, lsl r0
 1d8:	00000000 	andeq	r0, r0, r0
 1dc:	00000010 	andeq	r0, r0, r0, lsl r0
 1e0:	00000000 	andeq	r0, r0, r0
 1e4:	00000018 	andeq	r0, r0, r8, lsl r0
 1e8:	00000000 	andeq	r0, r0, r0
 1ec:	00000010 	andeq	r0, r0, r0, lsl r0
 1f0:	00000000 	andeq	r0, r0, r0
 1f4:	00000010 	andeq	r0, r0, r0, lsl r0
 1f8:	00000000 	andeq	r0, r0, r0
 1fc:	00000014 	andeq	r0, r0, r4, lsl r0
 200:	00000000 	andeq	r0, r0, r0
 204:	00000014 	andeq	r0, r0, r4, lsl r0
 208:	00000000 	andeq	r0, r0, r0
 20c:	00000014 	andeq	r0, r0, r4, lsl r0
 210:	00000000 	andeq	r0, r0, r0
 214:	00000034 	andeq	r0, r0, r4, lsr r0
 218:	00000000 	andeq	r0, r0, r0
 21c:	00000010 	andeq	r0, r0, r0, lsl r0
 220:	00000000 	andeq	r0, r0, r0
 224:	00000010 	andeq	r0, r0, r0, lsl r0
 228:	00000000 	andeq	r0, r0, r0
 22c:	00000010 	andeq	r0, r0, r0, lsl r0
 230:	00000000 	andeq	r0, r0, r0
 234:	00000010 	andeq	r0, r0, r0, lsl r0
 238:	00000000 	andeq	r0, r0, r0
 23c:	00000010 	andeq	r0, r0, r0, lsl r0
 240:	00000000 	andeq	r0, r0, r0
 244:	00000010 	andeq	r0, r0, r0, lsl r0
	...
 250:	00000094 	muleq	r0, r4, r0
 254:	24af0002 	strtcs	r0, [pc], #2	; 25c <_Min_Heap_Size+0x5c>
 258:	00040000 	andeq	r0, r4, r0
 25c:	00000000 	andeq	r0, r0, r0
 260:	0800049c 	stmdaeq	r0, {r2, r3, r4, r7, sl}
 264:	00000058 	andeq	r0, r0, r8, asr r0
 268:	00000000 	andeq	r0, r0, r0
 26c:	000000cc 	andeq	r0, r0, ip, asr #1
 270:	080004f4 	stmdaeq	r0, {r2, r4, r5, r6, r7, sl}
 274:	000004e8 	andeq	r0, r0, r8, ror #9
 278:	00000000 	andeq	r0, r0, r0
 27c:	0000005c 	andeq	r0, r0, ip, asr r0
 280:	080009dc 	stmdaeq	r0, {r2, r3, r4, r6, r7, r8, fp}
 284:	00000088 	andeq	r0, r0, r8, lsl #1
 288:	08000a64 	stmdaeq	r0, {r2, r5, r6, r9, fp}
 28c:	000001f8 	strdeq	r0, [r0], -r8
 290:	00000000 	andeq	r0, r0, r0
 294:	0000000c 	andeq	r0, r0, ip
 298:	00000000 	andeq	r0, r0, r0
 29c:	00000024 	andeq	r0, r0, r4, lsr #32
 2a0:	00000000 	andeq	r0, r0, r0
 2a4:	00000024 	andeq	r0, r0, r4, lsr #32
 2a8:	00000000 	andeq	r0, r0, r0
 2ac:	000000f4 	strdeq	r0, [r0], -r4
 2b0:	00000000 	andeq	r0, r0, r0
 2b4:	0000003c 	andeq	r0, r0, ip, lsr r0
 2b8:	00000000 	andeq	r0, r0, r0
 2bc:	00000010 	andeq	r0, r0, r0, lsl r0
 2c0:	00000000 	andeq	r0, r0, r0
 2c4:	00000014 	andeq	r0, r0, r4, lsl r0
 2c8:	00000000 	andeq	r0, r0, r0
 2cc:	00000014 	andeq	r0, r0, r4, lsl r0
 2d0:	00000000 	andeq	r0, r0, r0
 2d4:	00000002 	andeq	r0, r0, r2
 2d8:	00000000 	andeq	r0, r0, r0
 2dc:	00000020 	andeq	r0, r0, r0, lsr #32
	...
 2e8:	00000054 	andeq	r0, r0, r4, asr r0
 2ec:	34fa0002 	ldrbtcc	r0, [sl], #2
 2f0:	00040000 	andeq	r0, r4, r0
 2f4:	00000000 	andeq	r0, r0, r0
 2f8:	08000c5c 	stmdaeq	r0, {r2, r3, r4, r6, sl, fp}
 2fc:	000001d4 	ldrdeq	r0, [r0], -r4
 300:	00000000 	andeq	r0, r0, r0
 304:	0000011c 	andeq	r0, r0, ip, lsl r1
 308:	00000000 	andeq	r0, r0, r0
 30c:	0000000e 	andeq	r0, r0, lr
 310:	08000e30 	stmdaeq	r0, {r4, r5, r9, sl, fp}
 314:	0000000a 	andeq	r0, r0, sl
 318:	08000e3a 	stmdaeq	r0, {r1, r3, r4, r5, r9, sl, fp}
 31c:	00000012 	andeq	r0, r0, r2, lsl r0
 320:	00000000 	andeq	r0, r0, r0
 324:	0000002e 	andeq	r0, r0, lr, lsr #32
 328:	00000000 	andeq	r0, r0, r0
 32c:	00000002 	andeq	r0, r0, r2
 330:	00000000 	andeq	r0, r0, r0
 334:	0000001c 	andeq	r0, r0, ip, lsl r0
	...
 340:	0000013c 	andeq	r0, r0, ip, lsr r1
 344:	3e270002 	cdpcc	0, 2, cr0, cr7, cr2, {0}
 348:	00040000 	andeq	r0, r4, r0
	...
 354:	00000024 	andeq	r0, r0, r4, lsr #32
 358:	08000e4c 	stmdaeq	r0, {r2, r3, r6, r9, sl, fp}
 35c:	0000010c 	andeq	r0, r0, ip, lsl #2
 360:	00000000 	andeq	r0, r0, r0
 364:	0000001c 	andeq	r0, r0, ip, lsl r0
 368:	00000000 	andeq	r0, r0, r0
 36c:	00000010 	andeq	r0, r0, r0, lsl r0
 370:	00000000 	andeq	r0, r0, r0
 374:	00000010 	andeq	r0, r0, r0, lsl r0
 378:	00000000 	andeq	r0, r0, r0
 37c:	00000010 	andeq	r0, r0, r0, lsl r0
 380:	00000000 	andeq	r0, r0, r0
 384:	000000bc 	strheq	r0, [r0], -ip
 388:	00000000 	andeq	r0, r0, r0
 38c:	00000084 	andeq	r0, r0, r4, lsl #1
 390:	00000000 	andeq	r0, r0, r0
 394:	000000bc 	strheq	r0, [r0], -ip
 398:	00000000 	andeq	r0, r0, r0
 39c:	00000088 	andeq	r0, r0, r8, lsl #1
 3a0:	00000000 	andeq	r0, r0, r0
 3a4:	00000010 	andeq	r0, r0, r0, lsl r0
 3a8:	00000000 	andeq	r0, r0, r0
 3ac:	00000010 	andeq	r0, r0, r0, lsl r0
 3b0:	00000000 	andeq	r0, r0, r0
 3b4:	00000010 	andeq	r0, r0, r0, lsl r0
 3b8:	00000000 	andeq	r0, r0, r0
 3bc:	00000010 	andeq	r0, r0, r0, lsl r0
 3c0:	00000000 	andeq	r0, r0, r0
 3c4:	00000010 	andeq	r0, r0, r0, lsl r0
 3c8:	00000000 	andeq	r0, r0, r0
 3cc:	00000010 	andeq	r0, r0, r0, lsl r0
 3d0:	00000000 	andeq	r0, r0, r0
 3d4:	00000010 	andeq	r0, r0, r0, lsl r0
 3d8:	00000000 	andeq	r0, r0, r0
 3dc:	00000010 	andeq	r0, r0, r0, lsl r0
 3e0:	00000000 	andeq	r0, r0, r0
 3e4:	00000010 	andeq	r0, r0, r0, lsl r0
 3e8:	00000000 	andeq	r0, r0, r0
 3ec:	00000010 	andeq	r0, r0, r0, lsl r0
 3f0:	00000000 	andeq	r0, r0, r0
 3f4:	00000010 	andeq	r0, r0, r0, lsl r0
 3f8:	00000000 	andeq	r0, r0, r0
 3fc:	00000010 	andeq	r0, r0, r0, lsl r0
 400:	00000000 	andeq	r0, r0, r0
 404:	000001ec 	andeq	r0, r0, ip, ror #3
 408:	00000000 	andeq	r0, r0, r0
 40c:	00000010 	andeq	r0, r0, r0, lsl r0
 410:	00000000 	andeq	r0, r0, r0
 414:	00000054 	andeq	r0, r0, r4, asr r0
 418:	00000000 	andeq	r0, r0, r0
 41c:	00000038 	andeq	r0, r0, r8, lsr r0
 420:	00000000 	andeq	r0, r0, r0
 424:	0000003c 	andeq	r0, r0, ip, lsr r0
 428:	00000000 	andeq	r0, r0, r0
 42c:	00000024 	andeq	r0, r0, r4, lsr #32
 430:	00000000 	andeq	r0, r0, r0
 434:	00000002 	andeq	r0, r0, r2
 438:	00000000 	andeq	r0, r0, r0
 43c:	00000002 	andeq	r0, r0, r2
 440:	00000000 	andeq	r0, r0, r0
 444:	00000002 	andeq	r0, r0, r2
 448:	00000000 	andeq	r0, r0, r0
 44c:	00000002 	andeq	r0, r0, r2
 450:	00000000 	andeq	r0, r0, r0
 454:	00000078 	andeq	r0, r0, r8, ror r0
 458:	00000000 	andeq	r0, r0, r0
 45c:	00000010 	andeq	r0, r0, r0, lsl r0
 460:	00000000 	andeq	r0, r0, r0
 464:	00000010 	andeq	r0, r0, r0, lsl r0
 468:	00000000 	andeq	r0, r0, r0
 46c:	00000010 	andeq	r0, r0, r0, lsl r0
 470:	08000f58 	stmdaeq	r0, {r3, r4, r6, r8, r9, sl, fp}
 474:	00000010 	andeq	r0, r0, r0, lsl r0
	...
 480:	000000a4 	andeq	r0, r0, r4, lsr #1
 484:	49470002 	stmdbmi	r7, {r1}^
 488:	00040000 	andeq	r0, r4, r0
 48c:	00000000 	andeq	r0, r0, r0
 490:	08000f68 	stmdaeq	r0, {r3, r5, r6, r8, r9, sl, fp}
 494:	00000024 	andeq	r0, r0, r4, lsr #32
 498:	08000f8c 	stmdaeq	r0, {r2, r3, r7, r8, r9, sl, fp}
 49c:	00000070 	andeq	r0, r0, r0, ror r0
 4a0:	00000000 	andeq	r0, r0, r0
 4a4:	0000001c 	andeq	r0, r0, ip, lsl r0
 4a8:	00000000 	andeq	r0, r0, r0
 4ac:	00000024 	andeq	r0, r0, r4, lsr #32
 4b0:	00000000 	andeq	r0, r0, r0
 4b4:	00000024 	andeq	r0, r0, r4, lsr #32
 4b8:	08000ffc 	stmdaeq	r0, {r2, r3, r4, r5, r6, r7, r8, r9, sl, fp}
 4bc:	00000028 	andeq	r0, r0, r8, lsr #32
 4c0:	00000000 	andeq	r0, r0, r0
 4c4:	00000010 	andeq	r0, r0, r0, lsl r0
 4c8:	00000000 	andeq	r0, r0, r0
 4cc:	00000060 	andeq	r0, r0, r0, rrx
 4d0:	00000000 	andeq	r0, r0, r0
 4d4:	0000001c 	andeq	r0, r0, ip, lsl r0
 4d8:	00000000 	andeq	r0, r0, r0
 4dc:	00000024 	andeq	r0, r0, r4, lsr #32
 4e0:	00000000 	andeq	r0, r0, r0
 4e4:	0000001c 	andeq	r0, r0, ip, lsl r0
 4e8:	00000000 	andeq	r0, r0, r0
 4ec:	00000024 	andeq	r0, r0, r4, lsr #32
 4f0:	00000000 	andeq	r0, r0, r0
 4f4:	00000020 	andeq	r0, r0, r0, lsr #32
 4f8:	00000000 	andeq	r0, r0, r0
 4fc:	00000002 	andeq	r0, r0, r2
 500:	00000000 	andeq	r0, r0, r0
 504:	00000008 	andeq	r0, r0, r8
 508:	00000000 	andeq	r0, r0, r0
 50c:	00000018 	andeq	r0, r0, r8, lsl r0
 510:	00000000 	andeq	r0, r0, r0
 514:	00000014 	andeq	r0, r0, r4, lsl r0
 518:	00000000 	andeq	r0, r0, r0
 51c:	00000060 	andeq	r0, r0, r0, rrx
	...
 528:	00000024 	andeq	r0, r0, r4, lsr #32
 52c:	5aee0002 	bpl	ffb8053c <BootRAM+0xdd70cdd>
 530:	00040000 	andeq	r0, r4, r0
 534:	00000000 	andeq	r0, r0, r0
 538:	08001024 	stmdaeq	r0, {r2, r5, ip}
 53c:	00000050 	andeq	r0, r0, r0, asr r0
 540:	08001074 	stmdaeq	r0, {r2, r4, r5, r6, ip}
 544:	00000002 	andeq	r0, r0, r2
	...

Disassembly of section .debug_ranges:

00000000 <.debug_ranges>:
   0:	00000001 	andeq	r0, r0, r1
   4:	00000001 	andeq	r0, r0, r1
   8:	08000218 	stmdaeq	r0, {r3, r4, r9}
   c:	0800027c 	stmdaeq	r0, {r2, r3, r4, r5, r6, r9}
	...
  18:	0800027c 	stmdaeq	r0, {r2, r3, r4, r5, r6, r9}
  1c:	08000280 	stmdaeq	r0, {r7, r9}
  20:	08000280 	stmdaeq	r0, {r7, r9}
  24:	080002f2 	stmdaeq	r0, {r1, r4, r5, r6, r7, r9}
  28:	080002f2 	stmdaeq	r0, {r1, r4, r5, r6, r7, r9}
  2c:	08000306 	stmdaeq	r0, {r1, r2, r8, r9}
	...
  38:	08000308 	stmdaeq	r0, {r3, r8, r9}
  3c:	0800037c 	stmdaeq	r0, {r2, r3, r4, r5, r6, r8, r9}
	...
  48:	0800037c 	stmdaeq	r0, {r2, r3, r4, r5, r6, r8, r9}
  4c:	0800037e 	stmdaeq	r0, {r1, r2, r3, r4, r5, r6, r8, r9}
  50:	0800037e 	stmdaeq	r0, {r1, r2, r3, r4, r5, r6, r8, r9}
  54:	08000380 	stmdaeq	r0, {r7, r8, r9}
  58:	08000380 	stmdaeq	r0, {r7, r8, r9}
  5c:	08000382 	stmdaeq	r0, {r1, r7, r8, r9}
  60:	08000382 	stmdaeq	r0, {r1, r7, r8, r9}
  64:	08000384 	stmdaeq	r0, {r2, r7, r8, r9}
  68:	08000384 	stmdaeq	r0, {r2, r7, r8, r9}
  6c:	08000386 	stmdaeq	r0, {r1, r2, r7, r8, r9}
  70:	08000386 	stmdaeq	r0, {r1, r2, r7, r8, r9}
  74:	08000388 	stmdaeq	r0, {r3, r7, r8, r9}
  78:	08000388 	stmdaeq	r0, {r3, r7, r8, r9}
  7c:	0800038a 	stmdaeq	r0, {r1, r3, r7, r8, r9}
  80:	0800038a 	stmdaeq	r0, {r1, r3, r7, r8, r9}
  84:	0800038c 	stmdaeq	r0, {r2, r3, r7, r8, r9}
  88:	0800038c 	stmdaeq	r0, {r2, r3, r7, r8, r9}
  8c:	08000394 	stmdaeq	r0, {r2, r4, r7, r8, r9}
	...
  98:	08000394 	stmdaeq	r0, {r2, r4, r7, r8, r9}
  9c:	080003cc 	stmdaeq	r0, {r2, r3, r6, r7, r8, r9}
	...
  a8:	080003cc 	stmdaeq	r0, {r2, r3, r6, r7, r8, r9}
  ac:	080003e0 	stmdaeq	r0, {r5, r6, r7, r8, r9}
  b0:	00000001 	andeq	r0, r0, r1
  b4:	00000001 	andeq	r0, r0, r1
	...
  c0:	00000001 	andeq	r0, r0, r1
  c4:	00000001 	andeq	r0, r0, r1
  c8:	00000001 	andeq	r0, r0, r1
  cc:	00000001 	andeq	r0, r0, r1
  d0:	00000001 	andeq	r0, r0, r1
  d4:	00000001 	andeq	r0, r0, r1
  d8:	080003e0 	stmdaeq	r0, {r5, r6, r7, r8, r9}
  dc:	08000430 	stmdaeq	r0, {r4, r5, sl}
  e0:	08000430 	stmdaeq	r0, {r4, r5, sl}
  e4:	0800044e 	stmdaeq	r0, {r1, r2, r3, r6, sl}
  e8:	08000450 	stmdaeq	r0, {r4, r6, sl}
  ec:	08000468 	stmdaeq	r0, {r3, r5, r6, sl}
  f0:	08000468 	stmdaeq	r0, {r3, r5, r6, sl}
  f4:	08000474 	stmdaeq	r0, {r2, r4, r5, r6, sl}
  f8:	00000001 	andeq	r0, r0, r1
  fc:	00000001 	andeq	r0, r0, r1
 100:	00000001 	andeq	r0, r0, r1
 104:	00000001 	andeq	r0, r0, r1
 108:	00000001 	andeq	r0, r0, r1
 10c:	00000001 	andeq	r0, r0, r1
 110:	08000474 	stmdaeq	r0, {r2, r4, r5, r6, sl}
 114:	0800049c 	stmdaeq	r0, {r2, r3, r4, r7, sl}
 118:	00000001 	andeq	r0, r0, r1
 11c:	00000001 	andeq	r0, r0, r1
 120:	00000001 	andeq	r0, r0, r1
 124:	00000001 	andeq	r0, r0, r1
 128:	00000001 	andeq	r0, r0, r1
 12c:	00000001 	andeq	r0, r0, r1
 130:	00000001 	andeq	r0, r0, r1
 134:	00000001 	andeq	r0, r0, r1
 138:	00000001 	andeq	r0, r0, r1
 13c:	00000001 	andeq	r0, r0, r1
 140:	00000001 	andeq	r0, r0, r1
 144:	00000001 	andeq	r0, r0, r1
 148:	00000001 	andeq	r0, r0, r1
 14c:	00000001 	andeq	r0, r0, r1
 150:	00000001 	andeq	r0, r0, r1
 154:	00000001 	andeq	r0, r0, r1
 158:	00000001 	andeq	r0, r0, r1
 15c:	00000001 	andeq	r0, r0, r1
 160:	00000001 	andeq	r0, r0, r1
 164:	00000001 	andeq	r0, r0, r1
 168:	00000001 	andeq	r0, r0, r1
 16c:	00000001 	andeq	r0, r0, r1
 170:	00000001 	andeq	r0, r0, r1
 174:	00000001 	andeq	r0, r0, r1
 178:	00000001 	andeq	r0, r0, r1
 17c:	00000001 	andeq	r0, r0, r1
 180:	00000001 	andeq	r0, r0, r1
 184:	00000001 	andeq	r0, r0, r1
 188:	00000001 	andeq	r0, r0, r1
 18c:	00000001 	andeq	r0, r0, r1
 190:	00000001 	andeq	r0, r0, r1
 194:	00000001 	andeq	r0, r0, r1
 198:	00000001 	andeq	r0, r0, r1
 19c:	00000001 	andeq	r0, r0, r1
 1a0:	00000001 	andeq	r0, r0, r1
 1a4:	00000001 	andeq	r0, r0, r1
 1a8:	00000001 	andeq	r0, r0, r1
 1ac:	00000001 	andeq	r0, r0, r1
 1b0:	00000001 	andeq	r0, r0, r1
 1b4:	00000001 	andeq	r0, r0, r1
 1b8:	00000001 	andeq	r0, r0, r1
 1bc:	00000001 	andeq	r0, r0, r1
 1c0:	00000001 	andeq	r0, r0, r1
 1c4:	00000001 	andeq	r0, r0, r1
 1c8:	00000001 	andeq	r0, r0, r1
 1cc:	00000001 	andeq	r0, r0, r1
 1d0:	00000001 	andeq	r0, r0, r1
 1d4:	00000001 	andeq	r0, r0, r1
	...
 1e0:	080006e8 	stmdaeq	r0, {r3, r5, r6, r7, r9, sl}
 1e4:	080007ea 	stmdaeq	r0, {r1, r3, r5, r6, r7, r8, r9, sl}
 1e8:	08000824 	stmdaeq	r0, {r2, r5, fp}
 1ec:	08000830 	stmdaeq	r0, {r4, r5, fp}
	...
 1f8:	0800049c 	stmdaeq	r0, {r2, r3, r4, r7, sl}
 1fc:	080004f4 	stmdaeq	r0, {r2, r4, r5, r6, r7, sl}
 200:	00000001 	andeq	r0, r0, r1
 204:	00000001 	andeq	r0, r0, r1
 208:	080004f4 	stmdaeq	r0, {r2, r4, r5, r6, r7, sl}
 20c:	080009dc 	stmdaeq	r0, {r2, r3, r4, r6, r7, r8, fp}
 210:	00000001 	andeq	r0, r0, r1
 214:	00000001 	andeq	r0, r0, r1
 218:	080009dc 	stmdaeq	r0, {r2, r3, r4, r6, r7, r8, fp}
 21c:	08000a64 	stmdaeq	r0, {r2, r5, r6, r9, fp}
 220:	08000a64 	stmdaeq	r0, {r2, r5, r6, r9, fp}
 224:	08000c5c 	stmdaeq	r0, {r2, r3, r4, r6, sl, fp}
 228:	00000001 	andeq	r0, r0, r1
 22c:	00000001 	andeq	r0, r0, r1
 230:	00000001 	andeq	r0, r0, r1
 234:	00000001 	andeq	r0, r0, r1
 238:	00000001 	andeq	r0, r0, r1
 23c:	00000001 	andeq	r0, r0, r1
 240:	00000001 	andeq	r0, r0, r1
 244:	00000001 	andeq	r0, r0, r1
 248:	00000001 	andeq	r0, r0, r1
 24c:	00000001 	andeq	r0, r0, r1
 250:	00000001 	andeq	r0, r0, r1
 254:	00000001 	andeq	r0, r0, r1
 258:	00000001 	andeq	r0, r0, r1
 25c:	00000001 	andeq	r0, r0, r1
 260:	00000001 	andeq	r0, r0, r1
 264:	00000001 	andeq	r0, r0, r1
 268:	00000001 	andeq	r0, r0, r1
 26c:	00000001 	andeq	r0, r0, r1
 270:	00000001 	andeq	r0, r0, r1
 274:	00000001 	andeq	r0, r0, r1
	...
 280:	08000c5c 	stmdaeq	r0, {r2, r3, r4, r6, sl, fp}
 284:	08000e30 	stmdaeq	r0, {r4, r5, r9, sl, fp}
 288:	00000001 	andeq	r0, r0, r1
 28c:	00000001 	andeq	r0, r0, r1
 290:	00000001 	andeq	r0, r0, r1
 294:	00000001 	andeq	r0, r0, r1
 298:	08000e30 	stmdaeq	r0, {r4, r5, r9, sl, fp}
 29c:	08000e3a 	stmdaeq	r0, {r1, r3, r4, r5, r9, sl, fp}
 2a0:	08000e3a 	stmdaeq	r0, {r1, r3, r4, r5, r9, sl, fp}
 2a4:	08000e4c 	stmdaeq	r0, {r2, r3, r6, r9, sl, fp}
 2a8:	00000001 	andeq	r0, r0, r1
 2ac:	00000001 	andeq	r0, r0, r1
 2b0:	00000001 	andeq	r0, r0, r1
 2b4:	00000001 	andeq	r0, r0, r1
 2b8:	00000001 	andeq	r0, r0, r1
 2bc:	00000001 	andeq	r0, r0, r1
	...
 2c8:	00000001 	andeq	r0, r0, r1
 2cc:	00000001 	andeq	r0, r0, r1
 2d0:	08000e4c 	stmdaeq	r0, {r2, r3, r6, r9, sl, fp}
 2d4:	08000f58 	stmdaeq	r0, {r3, r4, r6, r8, r9, sl, fp}
 2d8:	00000001 	andeq	r0, r0, r1
 2dc:	00000001 	andeq	r0, r0, r1
 2e0:	00000001 	andeq	r0, r0, r1
 2e4:	00000001 	andeq	r0, r0, r1
 2e8:	00000001 	andeq	r0, r0, r1
 2ec:	00000001 	andeq	r0, r0, r1
 2f0:	00000001 	andeq	r0, r0, r1
 2f4:	00000001 	andeq	r0, r0, r1
 2f8:	00000001 	andeq	r0, r0, r1
 2fc:	00000001 	andeq	r0, r0, r1
 300:	00000001 	andeq	r0, r0, r1
 304:	00000001 	andeq	r0, r0, r1
 308:	00000001 	andeq	r0, r0, r1
 30c:	00000001 	andeq	r0, r0, r1
 310:	00000001 	andeq	r0, r0, r1
 314:	00000001 	andeq	r0, r0, r1
 318:	00000001 	andeq	r0, r0, r1
 31c:	00000001 	andeq	r0, r0, r1
 320:	00000001 	andeq	r0, r0, r1
 324:	00000001 	andeq	r0, r0, r1
 328:	00000001 	andeq	r0, r0, r1
 32c:	00000001 	andeq	r0, r0, r1
 330:	00000001 	andeq	r0, r0, r1
 334:	00000001 	andeq	r0, r0, r1
 338:	00000001 	andeq	r0, r0, r1
 33c:	00000001 	andeq	r0, r0, r1
 340:	00000001 	andeq	r0, r0, r1
 344:	00000001 	andeq	r0, r0, r1
 348:	00000001 	andeq	r0, r0, r1
 34c:	00000001 	andeq	r0, r0, r1
 350:	00000001 	andeq	r0, r0, r1
 354:	00000001 	andeq	r0, r0, r1
 358:	00000001 	andeq	r0, r0, r1
 35c:	00000001 	andeq	r0, r0, r1
 360:	00000001 	andeq	r0, r0, r1
 364:	00000001 	andeq	r0, r0, r1
 368:	00000001 	andeq	r0, r0, r1
 36c:	00000001 	andeq	r0, r0, r1
 370:	00000001 	andeq	r0, r0, r1
 374:	00000001 	andeq	r0, r0, r1
 378:	00000001 	andeq	r0, r0, r1
 37c:	00000001 	andeq	r0, r0, r1
 380:	00000001 	andeq	r0, r0, r1
 384:	00000001 	andeq	r0, r0, r1
 388:	00000001 	andeq	r0, r0, r1
 38c:	00000001 	andeq	r0, r0, r1
 390:	00000001 	andeq	r0, r0, r1
 394:	00000001 	andeq	r0, r0, r1
 398:	00000001 	andeq	r0, r0, r1
 39c:	00000001 	andeq	r0, r0, r1
 3a0:	00000001 	andeq	r0, r0, r1
 3a4:	00000001 	andeq	r0, r0, r1
 3a8:	00000001 	andeq	r0, r0, r1
 3ac:	00000001 	andeq	r0, r0, r1
 3b0:	00000001 	andeq	r0, r0, r1
 3b4:	00000001 	andeq	r0, r0, r1
 3b8:	00000001 	andeq	r0, r0, r1
 3bc:	00000001 	andeq	r0, r0, r1
 3c0:	00000001 	andeq	r0, r0, r1
 3c4:	00000001 	andeq	r0, r0, r1
 3c8:	00000001 	andeq	r0, r0, r1
 3cc:	00000001 	andeq	r0, r0, r1
 3d0:	00000001 	andeq	r0, r0, r1
 3d4:	00000001 	andeq	r0, r0, r1
 3d8:	00000001 	andeq	r0, r0, r1
 3dc:	00000001 	andeq	r0, r0, r1
 3e0:	00000001 	andeq	r0, r0, r1
 3e4:	00000001 	andeq	r0, r0, r1
 3e8:	08000f58 	stmdaeq	r0, {r3, r4, r6, r8, r9, sl, fp}
 3ec:	08000f68 	stmdaeq	r0, {r3, r5, r6, r8, r9, sl, fp}
	...
 3f8:	08000f96 	stmdaeq	r0, {r1, r2, r4, r7, r8, r9, sl, fp}
 3fc:	08000fc8 	stmdaeq	r0, {r3, r6, r7, r8, r9, sl, fp}
 400:	08000fe0 	stmdaeq	r0, {r5, r6, r7, r8, r9, sl, fp}
 404:	08000fe4 	stmdaeq	r0, {r2, r5, r6, r7, r8, r9, sl, fp}
	...
 410:	08000fc8 	stmdaeq	r0, {r3, r6, r7, r8, r9, sl, fp}
 414:	08000fdc 	stmdaeq	r0, {r2, r3, r4, r6, r7, r8, r9, sl, fp}
 418:	08000fe4 	stmdaeq	r0, {r2, r5, r6, r7, r8, r9, sl, fp}
 41c:	08000ff0 	stmdaeq	r0, {r4, r5, r6, r7, r8, r9, sl, fp}
	...
 428:	00000001 	andeq	r0, r0, r1
 42c:	00000001 	andeq	r0, r0, r1
 430:	00000001 	andeq	r0, r0, r1
 434:	00000001 	andeq	r0, r0, r1
	...
 440:	00000001 	andeq	r0, r0, r1
 444:	00000001 	andeq	r0, r0, r1
 448:	00000001 	andeq	r0, r0, r1
 44c:	00000001 	andeq	r0, r0, r1
	...
 458:	08000f68 	stmdaeq	r0, {r3, r5, r6, r8, r9, sl, fp}
 45c:	08000f8c 	stmdaeq	r0, {r2, r3, r7, r8, r9, sl, fp}
 460:	08000f8c 	stmdaeq	r0, {r2, r3, r7, r8, r9, sl, fp}
 464:	08000ffc 	stmdaeq	r0, {r2, r3, r4, r5, r6, r7, r8, r9, sl, fp}
 468:	00000001 	andeq	r0, r0, r1
 46c:	00000001 	andeq	r0, r0, r1
 470:	00000001 	andeq	r0, r0, r1
 474:	00000001 	andeq	r0, r0, r1
 478:	00000001 	andeq	r0, r0, r1
 47c:	00000001 	andeq	r0, r0, r1
 480:	08000ffc 	stmdaeq	r0, {r2, r3, r4, r5, r6, r7, r8, r9, sl, fp}
 484:	08001024 	stmdaeq	r0, {r2, r5, ip}
 488:	00000001 	andeq	r0, r0, r1
 48c:	00000001 	andeq	r0, r0, r1
 490:	00000001 	andeq	r0, r0, r1
 494:	00000001 	andeq	r0, r0, r1
 498:	00000001 	andeq	r0, r0, r1
 49c:	00000001 	andeq	r0, r0, r1
 4a0:	00000001 	andeq	r0, r0, r1
 4a4:	00000001 	andeq	r0, r0, r1
 4a8:	00000001 	andeq	r0, r0, r1
 4ac:	00000001 	andeq	r0, r0, r1
 4b0:	00000001 	andeq	r0, r0, r1
 4b4:	00000001 	andeq	r0, r0, r1
 4b8:	00000001 	andeq	r0, r0, r1
 4bc:	00000001 	andeq	r0, r0, r1
 4c0:	00000001 	andeq	r0, r0, r1
 4c4:	00000001 	andeq	r0, r0, r1
 4c8:	00000001 	andeq	r0, r0, r1
 4cc:	00000001 	andeq	r0, r0, r1
 4d0:	00000001 	andeq	r0, r0, r1
 4d4:	00000001 	andeq	r0, r0, r1
 4d8:	00000001 	andeq	r0, r0, r1
 4dc:	00000001 	andeq	r0, r0, r1
 4e0:	00000001 	andeq	r0, r0, r1
 4e4:	00000001 	andeq	r0, r0, r1
	...
 4f0:	ffffffff 			; <UNDEFINED> instruction: 0xffffffff
 4f4:	00000000 	andeq	r0, r0, r0
 4f8:	08001024 	stmdaeq	r0, {r2, r5, ip}
 4fc:	08001074 	stmdaeq	r0, {r2, r4, r5, r6, ip}
 500:	08001074 	stmdaeq	r0, {r2, r4, r5, r6, ip}
 504:	08001076 	stmdaeq	r0, {r1, r2, r4, r5, r6, ip}
	...

Disassembly of section .debug_line:

00000000 <.debug_line>:
       0:	00000273 	andeq	r0, r0, r3, ror r2
       4:	018f0003 	orreq	r0, pc, r3
       8:	01020000 	mrseq	r0, (UNDEF: 2)
       c:	000d0efb 	strdeq	r0, [sp], -fp
      10:	01010101 	tsteq	r1, r1, lsl #2
      14:	01000000 	mrseq	r0, (UNDEF: 0)
      18:	62010000 	andvs	r0, r1, #0
      1c:	6c746f6f 	ldclvs	15, cr6, [r4], #-444	; 0xfffffe44
      20:	0064616f 	rsbeq	r6, r4, pc, ror #2
      24:	76697244 	strbtvc	r7, [r9], -r4, asr #4
      28:	2f737265 	svccs	0x00737265
      2c:	49534d43 	ldmdbmi	r3, {r0, r1, r6, r8, sl, fp, lr}^
      30:	6e492f53 	mcrvs	15, 2, r2, cr9, cr3, {2}
      34:	64756c63 	ldrbtvs	r6, [r5], #-3171	; 0xfffff39d
      38:	3a640065 	bcc	19001d4 <_Min_Stack_Size+0x18ffdd4>
      3c:	6f72705c 	svcvs	0x0072705c
      40:	6d617267 	sfmvs	f7, 2, [r1, #-412]!	; 0xfffffe64
      44:	6c696620 	stclvs	6, cr6, [r9], #-128	; 0xffffff80
      48:	675c7365 	ldrbvs	r7, [ip, -r5, ror #6]
      4c:	612d6363 			; <UNDEFINED> instruction: 0x612d6363
      50:	6e2d6d72 	mcrvs	13, 1, r6, cr13, cr2, {3}
      54:	2d656e6f 	stclcs	14, cr6, [r5, #-444]!	; 0xfffffe44
      58:	69626165 	stmdbvs	r2!, {r0, r2, r5, r6, r8, sp, lr}^
      5c:	2e30312d 	rsfcssp	f3, f0, #5.0
      60:	30322d33 	eorscc	r2, r2, r3, lsr sp
      64:	312e3132 			; <UNDEFINED> instruction: 0x312e3132
      68:	72615c30 	rsbvc	r5, r1, #48, 24	; 0x3000
      6c:	6f6e2d6d 	svcvs	0x006e2d6d
      70:	652d656e 	strvs	r6, [sp, #-1390]!	; 0xfffffa92
      74:	5c696261 	sfmpl	f6, 2, [r9], #-388	; 0xfffffe7c
      78:	6c636e69 	stclvs	14, cr6, [r3], #-420	; 0xfffffe5c
      7c:	5c656475 	cfstrdpl	mvd6, [r5], #-468	; 0xfffffe2c
      80:	6863616d 	stmdavs	r3!, {r0, r2, r3, r5, r6, r8, sp, lr}^
      84:	00656e69 	rsbeq	r6, r5, r9, ror #28
      88:	705c3a64 	subsvc	r3, ip, r4, ror #20
      8c:	72676f72 	rsbvc	r6, r7, #456	; 0x1c8
      90:	66206d61 	strtvs	r6, [r0], -r1, ror #26
      94:	73656c69 	cmnvc	r5, #26880	; 0x6900
      98:	6363675c 	cmnvs	r3, #92, 14	; 0x1700000
      9c:	6d72612d 	ldfvse	f6, [r2, #-180]!	; 0xffffff4c
      a0:	6e6f6e2d 	cdpvs	14, 6, cr6, cr15, cr13, {1}
      a4:	61652d65 	cmnvs	r5, r5, ror #26
      a8:	312d6962 			; <UNDEFINED> instruction: 0x312d6962
      ac:	2d332e30 	ldccs	14, cr2, [r3, #-192]!	; 0xffffff40
      b0:	31323032 	teqcc	r2, r2, lsr r0
      b4:	5c30312e 	ldfpls	f3, [r0], #-184	; 0xffffff48
      b8:	2d6d7261 	sfmcs	f7, 2, [sp, #-388]!	; 0xfffffe7c
      bc:	656e6f6e 	strbvs	r6, [lr, #-3950]!	; 0xfffff092
      c0:	6261652d 	rsbvs	r6, r1, #188743680	; 0xb400000
      c4:	6e695c69 	cdpvs	12, 6, cr5, cr9, cr9, {3}
      c8:	64756c63 	ldrbtvs	r6, [r5], #-3171	; 0xfffff39d
      cc:	79735c65 	ldmdbvc	r3!, {r0, r2, r5, r6, sl, fp, ip, lr}^
      d0:	72440073 	subvc	r0, r4, #115	; 0x73
      d4:	72657669 	rsbvc	r7, r5, #110100480	; 0x6900000
      d8:	4d432f73 	stclmi	15, cr2, [r3, #-460]	; 0xfffffe34
      dc:	2f534953 	svccs	0x00534953
      e0:	69766544 	ldmdbvs	r6!, {r2, r6, r8, sl, sp, lr}^
      e4:	532f6563 			; <UNDEFINED> instruction: 0x532f6563
      e8:	54532f54 	ldrbpl	r2, [r3], #-3924	; 0xfffff0ac
      ec:	4732334d 	ldrmi	r3, [r2, -sp, asr #6]!
      f0:	2f787834 	svccs	0x00787834
      f4:	6c636e49 	stclvs	14, cr6, [r3], #-292	; 0xfffffedc
      f8:	00656475 	rsbeq	r6, r5, r5, ror r4
      fc:	76697244 	strbtvc	r7, [r9], -r4, asr #4
     100:	2f737265 	svccs	0x00737265
     104:	334d5453 	movtcc	r5, #54355	; 0xd453
     108:	78344732 	ldmdavc	r4!, {r1, r4, r5, r8, r9, sl, lr}
     10c:	41485f78 	hvcmi	34296	; 0x85f8
     110:	72445f4c 	subvc	r5, r4, #76, 30	; 0x130
     114:	72657669 	rsbvc	r7, r5, #110100480	; 0x6900000
     118:	636e492f 	cmnvs	lr, #770048	; 0xbc000
     11c:	6f620000 	svcvs	0x00620000
     120:	6f6c746f 	svcvs	0x006c746f
     124:	632e6461 			; <UNDEFINED> instruction: 0x632e6461
     128:	00000100 	andeq	r0, r0, r0, lsl #2
     12c:	69736d63 	ldmdbvs	r3!, {r0, r1, r5, r6, r8, sl, fp, sp, lr}^
     130:	63675f73 	cmnvs	r7, #460	; 0x1cc
     134:	00682e63 	rsbeq	r2, r8, r3, ror #28
     138:	5f000002 	svcpl	0x00000002
     13c:	61666564 	cmnvs	r6, r4, ror #10
     140:	5f746c75 	svcpl	0x00746c75
     144:	65707974 	ldrbvs	r7, [r0, #-2420]!	; 0xfffff68c
     148:	00682e73 	rsbeq	r2, r8, r3, ror lr
     14c:	5f000003 	svcpl	0x00000003
     150:	69647473 	stmdbvs	r4!, {r0, r1, r4, r5, r6, sl, ip, sp, lr}^
     154:	682e746e 	stmdavs	lr!, {r1, r2, r3, r5, r6, sl, ip, sp, lr}
     158:	00000400 	andeq	r0, r0, r0, lsl #8
     15c:	336d7473 	cmncc	sp, #1929379840	; 0x73000000
     160:	37346732 			; <UNDEFINED> instruction: 0x37346732
     164:	2e787833 	mrccs	8, 3, r7, cr8, cr3, {1}
     168:	00050068 	andeq	r0, r5, r8, rrx
     16c:	6d747300 	ldclvs	3, cr7, [r4, #-0]
     170:	34673233 	strbtcc	r3, [r7], #-563	; 0xfffffdcd
     174:	685f7878 	ldmdavs	pc, {r3, r4, r5, r6, fp, ip, sp, lr}^	; <UNPREDICTABLE>
     178:	682e6c61 	stmdavs	lr!, {r0, r5, r6, sl, fp, sp, lr}
     17c:	00000600 	andeq	r0, r0, r0, lsl #12
     180:	336d7473 	cmncc	sp, #1929379840	; 0x73000000
     184:	78346732 	ldmdavc	r4!, {r1, r4, r5, r8, r9, sl, sp, lr}
     188:	61685f78 	smcvs	34296	; 0x85f8
     18c:	70675f6c 	rsbvc	r5, r7, ip, ror #30
     190:	682e6f69 	stmdavs	lr!, {r0, r3, r5, r6, r8, r9, sl, fp, sp, lr}
     194:	00000600 	andeq	r0, r0, r0, lsl #12
     198:	00010500 	andeq	r0, r1, r0, lsl #10
     19c:	00000205 	andeq	r0, r0, r5, lsl #4
     1a0:	0c030000 	stceq	0, cr0, [r3], {-0}
     1a4:	13050501 	movwne	r0, #21761	; 0x5501
     1a8:	1b050204 	blne	1409c0 <_Min_Stack_Size+0x1405c0>
     1ac:	2e038003 	cdpcs	0, 0, cr8, cr3, cr3, {0}
     1b0:	06140305 	ldreq	r0, [r4], -r5, lsl #6
     1b4:	0501042e 	streq	r0, [r1, #-1070]	; 0xfffffbd2
     1b8:	7cff0301 	ldclvc	3, cr0, [pc], #4	; 1c4 <_Min_Heap_Size-0x3c>
     1bc:	00040201 	andeq	r0, r4, r1, lsl #4
     1c0:	01050101 	tsteq	r5, r1, lsl #2
     1c4:	18020500 	stmdane	r2, {r8, sl}
     1c8:	03080002 	movweq	r0, #32770	; 0x8002
     1cc:	02050111 	andeq	r0, r5, #1073741828	; 0x40000004
     1d0:	15050521 	strne	r0, [r5, #-1313]	; 0xfffffadf
     1d4:	01060a05 	tsteq	r6, r5, lsl #20
     1d8:	052e2505 	streq	r2, [lr, #-1285]!	; 0xfffffafb
     1dc:	09056607 	stmdbeq	r5, {r0, r1, r2, r9, sl, sp, lr}
     1e0:	01040200 	mrseq	r0, R12_usr
     1e4:	0d053e06 	stceq	14, cr3, [r5, #-24]	; 0xffffffe8
     1e8:	01040200 	mrseq	r0, R12_usr
     1ec:	04020014 	streq	r0, [r2], #-20	; 0xffffffec
     1f0:	0f053d01 	svceq	0x00053d01
     1f4:	01040200 	mrseq	r0, R12_usr
     1f8:	27050547 	strcs	r0, [r5, -r7, asr #10]
     1fc:	01061805 	tsteq	r6, r5, lsl #16
     200:	30060505 	andcc	r0, r6, r5, lsl #10
     204:	1b050204 	blne	140a1c <_Min_Stack_Size+0x14061c>
     208:	2002ed03 	andcs	lr, r2, r3, lsl #26
     20c:	06140305 	ldreq	r0, [r4], -r5, lsl #6
     210:	0501042e 	streq	r0, [r1, #-1070]	; 0xfffffbd2
     214:	94030605 	strls	r0, [r3], #-1541	; 0xfffff9fb
     218:	0204017d 	andeq	r0, r4, #1073741855	; 0x4000001f
     21c:	bb031b05 	bllt	c6e38 <_Min_Stack_Size+0xc6a38>
     220:	03050103 	movweq	r0, #20739	; 0x5103
     224:	043c0614 	ldrteq	r0, [ip], #-1556	; 0xfffff9ec
     228:	06050501 	streq	r0, [r5], -r1, lsl #10
     22c:	017cc403 	cmneq	ip, r3, lsl #8
     230:	05010905 	streq	r0, [r1, #-2309]	; 0xfffff6fb
     234:	05010617 	streq	r0, [r1, #-1559]	; 0xfffff9e9
     238:	09052005 	stmdbeq	r5, {r0, r2, sp}
     23c:	03040200 	movweq	r0, #16896	; 0x4200
     240:	02002206 	andeq	r2, r0, #1610612736	; 0x60000000
     244:	054b0304 	strbeq	r0, [fp, #-772]	; 0xfffffcfc
     248:	04020023 	streq	r0, [r2], #-35	; 0xffffffdd
     24c:	24054703 	strcs	r4, [r5], #-1795	; 0xfffff8fd
     250:	03040200 	movweq	r0, #16896	; 0x4200
     254:	02000106 	andeq	r0, r0, #-2147483647	; 0x80000001
     258:	05200304 	streq	r0, [r0, #-772]!	; 0xfffffcfc
     25c:	0402001d 	streq	r0, [r2], #-29	; 0xffffffe3
     260:	05200601 	streq	r0, [r0, #-1537]!	; 0xfffff9ff
     264:	04020005 	streq	r0, [r2], #-5
     268:	06010601 	streq	r0, [r1], -r1, lsl #12
     26c:	06010534 			; <UNDEFINED> instruction: 0x06010534
     270:	06022021 	streq	r2, [r2], -r1, lsr #32
     274:	cd010100 	stfgts	f0, [r1, #-0]
     278:	03000002 	movweq	r0, #2
     27c:	0001ae00 	andeq	sl, r1, r0, lsl #28
     280:	fb010200 	blx	40a8a <_Min_Stack_Size+0x4068a>
     284:	01000d0e 	tsteq	r0, lr, lsl #26
     288:	00010101 	andeq	r0, r1, r1, lsl #2
     28c:	00010000 	andeq	r0, r1, r0
     290:	72530100 	subsvc	r0, r3, #0, 2
     294:	72440063 	subvc	r0, r4, #99	; 0x63
     298:	72657669 	rsbvc	r7, r5, #110100480	; 0x6900000
     29c:	4d432f73 	stclmi	15, cr2, [r3, #-460]	; 0xfffffe34
     2a0:	2f534953 	svccs	0x00534953
     2a4:	6c636e49 	stclvs	14, cr6, [r3], #-292	; 0xfffffedc
     2a8:	00656475 	rsbeq	r6, r5, r5, ror r4
     2ac:	705c3a64 	subsvc	r3, ip, r4, ror #20
     2b0:	72676f72 	rsbvc	r6, r7, #456	; 0x1c8
     2b4:	66206d61 	strtvs	r6, [r0], -r1, ror #26
     2b8:	73656c69 	cmnvc	r5, #26880	; 0x6900
     2bc:	6363675c 	cmnvs	r3, #92, 14	; 0x1700000
     2c0:	6d72612d 	ldfvse	f6, [r2, #-180]!	; 0xffffff4c
     2c4:	6e6f6e2d 	cdpvs	14, 6, cr6, cr15, cr13, {1}
     2c8:	61652d65 	cmnvs	r5, r5, ror #26
     2cc:	312d6962 			; <UNDEFINED> instruction: 0x312d6962
     2d0:	2d332e30 	ldccs	14, cr2, [r3, #-192]!	; 0xffffff40
     2d4:	31323032 	teqcc	r2, r2, lsr r0
     2d8:	5c30312e 	ldfpls	f3, [r0], #-184	; 0xffffff48
     2dc:	2d6d7261 	sfmcs	f7, 2, [sp, #-388]!	; 0xfffffe7c
     2e0:	656e6f6e 	strbvs	r6, [lr, #-3950]!	; 0xfffff092
     2e4:	6261652d 	rsbvs	r6, r1, #188743680	; 0xb400000
     2e8:	6e695c69 	cdpvs	12, 6, cr5, cr9, cr9, {3}
     2ec:	64756c63 	ldrbtvs	r6, [r5], #-3171	; 0xfffff39d
     2f0:	616d5c65 	cmnvs	sp, r5, ror #24
     2f4:	6e696863 	cdpvs	8, 6, cr6, cr9, cr3, {3}
     2f8:	3a640065 	bcc	1900494 <_Min_Stack_Size+0x1900094>
     2fc:	6f72705c 	svcvs	0x0072705c
     300:	6d617267 	sfmvs	f7, 2, [r1, #-412]!	; 0xfffffe64
     304:	6c696620 	stclvs	6, cr6, [r9], #-128	; 0xffffff80
     308:	675c7365 	ldrbvs	r7, [ip, -r5, ror #6]
     30c:	612d6363 			; <UNDEFINED> instruction: 0x612d6363
     310:	6e2d6d72 	mcrvs	13, 1, r6, cr13, cr2, {3}
     314:	2d656e6f 	stclcs	14, cr6, [r5, #-444]!	; 0xfffffe44
     318:	69626165 	stmdbvs	r2!, {r0, r2, r5, r6, r8, sp, lr}^
     31c:	2e30312d 	rsfcssp	f3, f0, #5.0
     320:	30322d33 	eorscc	r2, r2, r3, lsr sp
     324:	312e3132 			; <UNDEFINED> instruction: 0x312e3132
     328:	72615c30 	rsbvc	r5, r1, #48, 24	; 0x3000
     32c:	6f6e2d6d 	svcvs	0x006e2d6d
     330:	652d656e 	strvs	r6, [sp, #-1390]!	; 0xfffffa92
     334:	5c696261 	sfmpl	f6, 2, [r9], #-388	; 0xfffffe7c
     338:	6c636e69 	stclvs	14, cr6, [r3], #-420	; 0xfffffe5c
     33c:	5c656475 	cfstrdpl	mvd6, [r5], #-468	; 0xfffffe2c
     340:	00737973 	rsbseq	r7, r3, r3, ror r9
     344:	76697244 	strbtvc	r7, [r9], -r4, asr #4
     348:	2f737265 	svccs	0x00737265
     34c:	334d5453 	movtcc	r5, #54355	; 0xd453
     350:	78344732 	ldmdavc	r4!, {r1, r4, r5, r8, r9, sl, lr}
     354:	41485f78 	hvcmi	34296	; 0x85f8
     358:	72445f4c 	subvc	r5, r4, #76, 30	; 0x130
     35c:	72657669 	rsbvc	r7, r5, #110100480	; 0x6900000
     360:	636e492f 	cmnvs	lr, #770048	; 0xbc000
     364:	636e4900 	cmnvs	lr, #0, 18
     368:	6f6f6200 	svcvs	0x006f6200
     36c:	616f6c74 	smcvs	63172	; 0xf6c4
     370:	6d000064 	stcvs	0, cr0, [r0, #-400]	; 0xfffffe70
     374:	2e6e6961 	vnmulcs.f16	s13, s28, s3	; <UNPREDICTABLE>
     378:	00010063 	andeq	r0, r1, r3, rrx
     37c:	736d6300 	cmnvc	sp, #0, 6
     380:	675f7369 	ldrbvs	r7, [pc, -r9, ror #6]
     384:	682e6363 	stmdavs	lr!, {r0, r1, r5, r6, r8, r9, sp, lr}
     388:	00000200 	andeq	r0, r0, r0, lsl #4
     38c:	6665645f 			; <UNDEFINED> instruction: 0x6665645f
     390:	746c7561 	strbtvc	r7, [ip], #-1377	; 0xfffffa9f
     394:	7079745f 	rsbsvc	r7, r9, pc, asr r4
     398:	682e7365 	stmdavs	lr!, {r0, r2, r5, r6, r8, r9, ip, sp, lr}
     39c:	00000300 	andeq	r0, r0, r0, lsl #6
     3a0:	6474735f 	ldrbtvs	r7, [r4], #-863	; 0xfffffca1
     3a4:	2e746e69 	cdpcs	14, 7, cr6, cr4, cr9, {3}
     3a8:	00040068 	andeq	r0, r4, r8, rrx
     3ac:	6d747300 	ldclvs	3, cr7, [r4, #-0]
     3b0:	34673233 	strbtcc	r3, [r7], #-563	; 0xfffffdcd
     3b4:	685f7878 	ldmdavs	pc, {r3, r4, r5, r6, fp, ip, sp, lr}^	; <UNPREDICTABLE>
     3b8:	725f6c61 	subsvc	r6, pc, #24832	; 0x6100
     3bc:	682e6363 	stmdavs	lr!, {r0, r1, r5, r6, r8, r9, sp, lr}
     3c0:	00000500 	andeq	r0, r0, r0, lsl #10
     3c4:	336d7473 	cmncc	sp, #1929379840	; 0x73000000
     3c8:	78346732 	ldmdavc	r4!, {r1, r4, r5, r8, r9, sl, sp, lr}
     3cc:	61685f78 	smcvs	34296	; 0x85f8
     3d0:	77705f6c 	ldrbvc	r5, [r0, -ip, ror #30]!
     3d4:	78655f72 	stmdavc	r5!, {r1, r4, r5, r6, r8, r9, sl, fp, ip, lr}^
     3d8:	0500682e 	streq	r6, [r0, #-2094]	; 0xfffff7d2
     3dc:	74730000 	ldrbtvc	r0, [r3], #-0
     3e0:	6732336d 	ldrvs	r3, [r2, -sp, ror #6]!
     3e4:	5f787834 	svcpl	0x00787834
     3e8:	2e6c6168 	powcsez	f6, f4, #0.0
     3ec:	00050068 	andeq	r0, r5, r8, rrx
     3f0:	69706700 	ldmdbvs	r0!, {r8, r9, sl, sp, lr}^
     3f4:	00682e6f 	rsbeq	r2, r8, pc, ror #28
     3f8:	62000006 	andvs	r0, r0, #6
     3fc:	6c746f6f 	ldclvs	15, cr6, [r4], #-444	; 0xfffffe44
     400:	2e64616f 	powcssz	f6, f4, #10.0
     404:	00070068 	andeq	r0, r7, r8, rrx
     408:	6d747300 	ldclvs	3, cr7, [r4, #-0]
     40c:	34673233 	strbtcc	r3, [r7], #-563	; 0xfffffdcd
     410:	685f7878 	ldmdavs	pc, {r3, r4, r5, r6, fp, ip, sp, lr}^	; <UNPREDICTABLE>
     414:	645f6c61 	ldrbvs	r6, [pc], #-3169	; 41c <_Min_Stack_Size+0x1c>
     418:	682e6665 	stmdavs	lr!, {r0, r2, r5, r6, r9, sl, sp, lr}
     41c:	00000500 	andeq	r0, r0, r0, lsl #10
     420:	6975623c 	ldmdbvs	r5!, {r2, r3, r4, r5, r9, sp, lr}^
     424:	692d746c 	pushvs	{r2, r3, r5, r6, sl, ip, sp, lr}
     428:	00003e6e 	andeq	r3, r0, lr, ror #28
     42c:	05000000 	streq	r0, [r0, #-0]
     430:	02050001 	andeq	r0, r5, #1
     434:	0800027c 	stmdaeq	r0, {r2, r3, r4, r5, r6, r9}
     438:	0101a203 	tsteq	r1, r3, lsl #4
     43c:	04150305 	ldreq	r0, [r5], #-773	; 0xfffffcfb
     440:	031b0502 	tsteq	fp, #8388608	; 0x800000
     444:	03050129 	movweq	r0, #20777	; 0x5129
     448:	00010414 	andeq	r0, r1, r4, lsl r4
     44c:	03010402 	movweq	r0, #5122	; 0x1402
     450:	02002056 	andeq	r2, r0, #86	; 0x56
     454:	05140104 	ldreq	r0, [r4, #-260]	; 0xfffffefc
     458:	04020009 	streq	r0, [r2], #-9
     45c:	01021001 	tsteq	r2, r1
     460:	05010100 	streq	r0, [r1, #-256]	; 0xffffff00
     464:	02050001 	andeq	r0, r5, #1
     468:	08000280 	stmdaeq	r0, {r7, r9}
     46c:	0100f003 	tsteq	r0, r3	; <UNPREDICTABLE>
     470:	052f0305 	streq	r0, [pc, #-773]!	; 173 <_Min_Heap_Size-0x8d>
     474:	05010616 	streq	r0, [r1, #-1558]	; 0xfffff9ea
     478:	05590603 	ldrbeq	r0, [r9, #-1539]	; 0xfffff9fd
     47c:	05010616 	streq	r0, [r1, #-1558]	; 0xfffff9ea
     480:	336a0603 	cmncc	sl, #3145728	; 0x300000
     484:	01062405 	tsteq	r6, r5, lsl #8
     488:	2f060305 	svccs	0x00060305
     48c:	01061e05 	tsteq	r6, r5, lsl #28
     490:	3d060305 	stccc	3, cr0, [r6, #-20]	; 0xffffffec
     494:	01061e05 	tsteq	r6, r5, lsl #28
     498:	2f060305 	svccs	0x00060305
     49c:	01062205 	tsteq	r6, r5, lsl #4
     4a0:	2f060305 	svccs	0x00060305
     4a4:	01062305 	tsteq	r6, r5, lsl #6
     4a8:	2f060305 	svccs	0x00060305
     4ac:	01061e05 	tsteq	r6, r5, lsl #28
     4b0:	21060305 	tstcs	r6, r5, lsl #6
     4b4:	01061e05 	tsteq	r6, r5, lsl #28
     4b8:	2f060305 	svccs	0x00060305
     4bc:	01061e05 	tsteq	r6, r5, lsl #28
     4c0:	21060305 	tstcs	r6, r5, lsl #6
     4c4:	01061e05 	tsteq	r6, r5, lsl #28
     4c8:	21060305 	tstcs	r6, r5, lsl #6
     4cc:	01061e05 	tsteq	r6, r5, lsl #28
     4d0:	21060305 	tstcs	r6, r5, lsl #6
     4d4:	01060705 	tsteq	r6, r5, lsl #14
     4d8:	053c0605 	ldreq	r0, [ip, #-1541]!	; 0xfffff9fb
     4dc:	05270603 	streq	r0, [r7, #-1539]!	; 0xfffff9fd
     4e0:	0501061f 	streq	r0, [r1, #-1567]	; 0xfffff9e1
     4e4:	05300603 	ldreq	r0, [r0, #-1539]!	; 0xfffff9fd
     4e8:	05010622 	streq	r0, [r1, #-1570]	; 0xfffff9de
     4ec:	052f0603 	streq	r0, [pc, #-1539]!	; fffffef1 <BootRAM+0xe1f0692>
     4f0:	05010623 	streq	r0, [r1, #-1571]	; 0xfffff9dd
     4f4:	052f0603 	streq	r0, [pc, #-1539]!	; fffffef9 <BootRAM+0xe1f069a>
     4f8:	05010624 	streq	r0, [r1, #-1572]	; 0xfffff9dc
     4fc:	05210603 	streq	r0, [r1, #-1539]!	; 0xfffff9fd
     500:	05010624 	streq	r0, [r1, #-1572]	; 0xfffff9dc
     504:	05220603 	streq	r0, [r2, #-1539]!	; 0xfffff9fd
     508:	05010607 	streq	r0, [r1, #-1543]	; 0xfffff9f9
     50c:	01055806 	tsteq	r5, r6, lsl #16
     510:	06050524 	streq	r0, [r5], -r4, lsr #10
     514:	033c7003 	teqeq	ip, #3
     518:	02022e0e 	andeq	r2, r2, #14, 28	; 0xe0
     51c:	05010100 	streq	r0, [r1, #-256]	; 0xffffff00
     520:	02050001 	andeq	r0, r5, #1
     524:	080002f2 	stmdaeq	r0, {r1, r4, r5, r6, r7, r9}
     528:	0100c403 	tsteq	r0, r3, lsl #8
     52c:	35280305 	strcc	r0, [r8, #-773]!	; 0xfffffcfb
     530:	02003135 	andeq	r3, r0, #1073741837	; 0x4000000d
     534:	00330104 	eorseq	r0, r3, r4, lsl #2
     538:	17010402 	strne	r0, [r1, -r2, lsl #8]
     53c:	02000905 	andeq	r0, r0, #81920	; 0x14000
     540:	020d0104 	andeq	r0, sp, #4, 2
     544:	01010001 	tsteq	r1, r1
     548:	000001a7 	andeq	r0, r0, r7, lsr #3
     54c:	014e0003 	cmpeq	lr, r3
     550:	01020000 	mrseq	r0, (UNDEF: 2)
     554:	000d0efb 	strdeq	r0, [sp], -fp
     558:	01010101 	tsteq	r1, r1, lsl #2
     55c:	01000000 	mrseq	r0, (UNDEF: 0)
     560:	53010000 	movwpl	r0, #4096	; 0x1000
     564:	64006372 	strvs	r6, [r0], #-882	; 0xfffffc8e
     568:	72705c3a 	rsbsvc	r5, r0, #14848	; 0x3a00
     56c:	6172676f 	cmnvs	r2, pc, ror #14
     570:	6966206d 	stmdbvs	r6!, {r0, r2, r3, r5, r6, sp}^
     574:	5c73656c 	cfldr64pl	mvdx6, [r3], #-432	; 0xfffffe50
     578:	2d636367 	stclcs	3, cr6, [r3, #-412]!	; 0xfffffe64
     57c:	2d6d7261 	sfmcs	f7, 2, [sp, #-388]!	; 0xfffffe7c
     580:	656e6f6e 	strbvs	r6, [lr, #-3950]!	; 0xfffff092
     584:	6261652d 	rsbvs	r6, r1, #188743680	; 0xb400000
     588:	30312d69 	eorscc	r2, r1, r9, ror #26
     58c:	322d332e 	eorcc	r3, sp, #-1207959552	; 0xb8000000
     590:	2e313230 	mrccs	2, 1, r3, cr1, cr0, {1}
     594:	615c3031 	cmpvs	ip, r1, lsr r0
     598:	6e2d6d72 	mcrvs	13, 1, r6, cr13, cr2, {3}
     59c:	2d656e6f 	stclcs	14, cr6, [r5, #-444]!	; 0xfffffe44
     5a0:	69626165 	stmdbvs	r2!, {r0, r2, r5, r6, r8, sp, lr}^
     5a4:	636e695c 	cmnvs	lr, #92, 18	; 0x170000
     5a8:	6564756c 	strbvs	r7, [r4, #-1388]!	; 0xfffffa94
     5ac:	63616d5c 	cmnvs	r1, #92, 26	; 0x1700
     5b0:	656e6968 	strbvs	r6, [lr, #-2408]!	; 0xfffff698
     5b4:	5c3a6400 	cfldrspl	mvf6, [sl], #-0
     5b8:	676f7270 			; <UNDEFINED> instruction: 0x676f7270
     5bc:	206d6172 	rsbcs	r6, sp, r2, ror r1
     5c0:	656c6966 	strbvs	r6, [ip, #-2406]!	; 0xfffff69a
     5c4:	63675c73 	cmnvs	r7, #29440	; 0x7300
     5c8:	72612d63 	rsbvc	r2, r1, #6336	; 0x18c0
     5cc:	6f6e2d6d 	svcvs	0x006e2d6d
     5d0:	652d656e 	strvs	r6, [sp, #-1390]!	; 0xfffffa92
     5d4:	2d696261 	sfmcs	f6, 2, [r9, #-388]!	; 0xfffffe7c
     5d8:	332e3031 			; <UNDEFINED> instruction: 0x332e3031
     5dc:	3230322d 	eorscc	r3, r0, #-805306366	; 0xd0000002
     5e0:	30312e31 	eorscc	r2, r1, r1, lsr lr
     5e4:	6d72615c 	ldfvse	f6, [r2, #-368]!	; 0xfffffe90
     5e8:	6e6f6e2d 	cdpvs	14, 6, cr6, cr15, cr13, {1}
     5ec:	61652d65 	cmnvs	r5, r5, ror #26
     5f0:	695c6962 	ldmdbvs	ip, {r1, r5, r6, r8, fp, sp, lr}^
     5f4:	756c636e 	strbvc	r6, [ip, #-878]!	; 0xfffffc92
     5f8:	735c6564 	cmpvc	ip, #100, 10	; 0x19000000
     5fc:	44007379 	strmi	r7, [r0], #-889	; 0xfffffc87
     600:	65766972 	ldrbvs	r6, [r6, #-2418]!	; 0xfffff68e
     604:	432f7372 			; <UNDEFINED> instruction: 0x432f7372
     608:	5349534d 	movtpl	r5, #37709	; 0x934d
     60c:	7665442f 	strbtvc	r4, [r5], -pc, lsr #8
     610:	2f656369 	svccs	0x00656369
     614:	532f5453 			; <UNDEFINED> instruction: 0x532f5453
     618:	32334d54 	eorscc	r4, r3, #84, 26	; 0x1500
     61c:	78783447 	ldmdavc	r8!, {r0, r1, r2, r6, sl, ip, sp}^
     620:	636e492f 	cmnvs	lr, #770048	; 0xbc000
     624:	6564756c 	strbvs	r7, [r4, #-1388]!	; 0xfffffa94
     628:	69724400 	ldmdbvs	r2!, {sl, lr}^
     62c:	73726576 	cmnvc	r2, #494927872	; 0x1d800000
     630:	4d54532f 	ldclmi	3, cr5, [r4, #-188]	; 0xffffff44
     634:	34473233 	strbcc	r3, [r7], #-563	; 0xfffffdcd
     638:	485f7878 	ldmdami	pc, {r3, r4, r5, r6, fp, ip, sp, lr}^	; <UNPREDICTABLE>
     63c:	445f4c41 	ldrbmi	r4, [pc], #-3137	; 644 <_Min_Stack_Size+0x244>
     640:	65766972 	ldrbvs	r6, [r6, #-2418]!	; 0xfffff68e
     644:	6e492f72 	mcrvs	15, 2, r2, cr9, cr2, {3}
     648:	67000063 	strvs	r0, [r0, -r3, rrx]
     64c:	2e6f6970 			; <UNDEFINED> instruction: 0x2e6f6970
     650:	00010063 	andeq	r0, r1, r3, rrx
     654:	65645f00 	strbvs	r5, [r4, #-3840]!	; 0xfffff100
     658:	6c756166 	ldfvse	f6, [r5], #-408	; 0xfffffe68
     65c:	79745f74 	ldmdbvc	r4!, {r2, r4, r5, r6, r8, r9, sl, fp, ip, lr}^
     660:	2e736570 	mrccs	5, 3, r6, cr3, cr0, {3}
     664:	00020068 	andeq	r0, r2, r8, rrx
     668:	74735f00 	ldrbtvc	r5, [r3], #-3840	; 0xfffff100
     66c:	746e6964 	strbtvc	r6, [lr], #-2404	; 0xfffff69c
     670:	0300682e 	movweq	r6, #2094	; 0x82e
     674:	74730000 	ldrbtvc	r0, [r3], #-0
     678:	6732336d 	ldrvs	r3, [r2, -sp, ror #6]!
     67c:	78333734 	ldmdavc	r3!, {r2, r4, r5, r8, r9, sl, ip, sp}
     680:	00682e78 	rsbeq	r2, r8, r8, ror lr
     684:	73000004 	movwvc	r0, #4
     688:	32336d74 	eorscc	r6, r3, #116, 26	; 0x1d00
     68c:	78783467 	ldmdavc	r8!, {r0, r1, r2, r5, r6, sl, ip, sp}^
     690:	6c61685f 	stclvs	8, cr6, [r1], #-380	; 0xfffffe84
     694:	6970675f 	ldmdbvs	r0!, {r0, r1, r2, r3, r4, r6, r8, r9, sl, sp, lr}^
     698:	00682e6f 	rsbeq	r2, r8, pc, ror #28
     69c:	00000005 	andeq	r0, r0, r5
     6a0:	05000105 	streq	r0, [r0, #-261]	; 0xfffffefb
     6a4:	00030802 	andeq	r0, r3, r2, lsl #16
     6a8:	012a0308 			; <UNDEFINED> instruction: 0x012a0308
     6ac:	05300305 	ldreq	r0, [r0, #-773]!	; 0xfffffcfb
     6b0:	05010614 	streq	r0, [r1, #-1556]	; 0xfffff9ec
     6b4:	01690603 	cmneq	r9, r3, lsl #12
     6b8:	204a5801 	subcs	r5, sl, r1, lsl #16
     6bc:	4a010113 	bmi	40b10 <_Min_Stack_Size+0x40710>
     6c0:	0113204a 	tsteq	r3, sl, asr #32
     6c4:	204a4a01 	subcs	r4, sl, r1, lsl #20
     6c8:	17056915 	smladne	r5, r5, r9, r6
     6cc:	03050106 	movweq	r0, #20742	; 0x5106
     6d0:	18052f06 	stmdane	r5, {r1, r2, r8, r9, sl, fp, sp}
     6d4:	03050106 	movweq	r0, #20742	; 0x5106
     6d8:	18052f06 	stmdane	r5, {r1, r2, r8, r9, sl, fp, sp}
     6dc:	03050106 	movweq	r0, #20742	; 0x5106
     6e0:	19052106 	stmdbne	r5, {r1, r2, r8, sp}
     6e4:	03050106 	movweq	r0, #20742	; 0x5106
     6e8:	01052106 	tsteq	r5, r6, lsl #2
     6ec:	06024c06 	streq	r4, [r2], -r6, lsl #24
     6f0:	70010100 	andvc	r0, r1, r0, lsl #2
     6f4:	03000001 	movweq	r0, #1
     6f8:	00005d00 	andeq	r5, r0, r0, lsl #26
     6fc:	fb010200 	blx	40f06 <_Min_Stack_Size+0x40b06>
     700:	01000d0e 	tsteq	r0, lr, lsl #26
     704:	00010101 	andeq	r0, r1, r1, lsl #2
     708:	00010000 	andeq	r0, r1, r0
     70c:	72530100 	subsvc	r0, r3, #0, 2
     710:	72440063 	subvc	r0, r4, #99	; 0x63
     714:	72657669 	rsbvc	r7, r5, #110100480	; 0x6900000
     718:	54532f73 	ldrbpl	r2, [r3], #-3955	; 0xfffff08d
     71c:	4732334d 	ldrmi	r3, [r2, -sp, asr #6]!
     720:	5f787834 	svcpl	0x00787834
     724:	5f4c4148 	svcpl	0x004c4148
     728:	76697244 	strbtvc	r7, [r9], -r4, asr #4
     72c:	492f7265 	stmdbmi	pc!, {r0, r2, r5, r6, r9, ip, sp, lr}	; <UNPREDICTABLE>
     730:	0000636e 	andeq	r6, r0, lr, ror #6
     734:	336d7473 	cmncc	sp, #1929379840	; 0x73000000
     738:	78346732 	ldmdavc	r4!, {r1, r4, r5, r8, r9, sl, sp, lr}
     73c:	74695f78 	strbtvc	r5, [r9], #-3960	; 0xfffff088
     740:	0100632e 	tsteq	r0, lr, lsr #6
     744:	74730000 	ldrbtvc	r0, [r3], #-0
     748:	6732336d 	ldrvs	r3, [r2, -sp, ror #6]!
     74c:	5f787834 	svcpl	0x00787834
     750:	2e6c6168 	powcsez	f6, f4, #0.0
     754:	00020068 	andeq	r0, r2, r8, rrx
     758:	01050000 	mrseq	r0, (UNDEF: 5)
     75c:	7c020500 	cfstr32vc	mvfx0, [r2], {-0}
     760:	03080003 	movweq	r0, #32771	; 0x8003
     764:	050100c5 	streq	r0, [r1, #-197]	; 0xffffff3b
     768:	04020004 	streq	r0, [r2], #-4
     76c:	03051701 	movweq	r1, #22273	; 0x5701
     770:	01040200 	mrseq	r0, R12_usr
     774:	000a0514 	andeq	r0, sl, r4, lsl r5
     778:	10010402 	andne	r0, r1, r2, lsl #8
     77c:	01000102 	tsteq	r0, r2, lsl #2
     780:	00010501 	andeq	r0, r1, r1, lsl #10
     784:	037e0205 	cmneq	lr, #1342177280	; 0x50000000
     788:	d4030800 	strle	r0, [r3], #-2048	; 0xfffff800
     78c:	03050100 	movweq	r0, #20736	; 0x5100
     790:	01040200 	mrseq	r0, R12_usr
     794:	04020016 	streq	r0, [r2], #-22	; 0xffffffea
     798:	09051601 	stmdbeq	r5, {r0, r9, sl, ip}
     79c:	01040200 	mrseq	r0, R12_usr
     7a0:	0001020e 	andeq	r0, r1, lr, lsl #4
     7a4:	01050101 	tsteq	r5, r1, lsl #2
     7a8:	80020500 	andhi	r0, r2, r0, lsl #10
     7ac:	03080003 	movweq	r0, #32771	; 0x8003
     7b0:	050100e3 	streq	r0, [r1, #-227]	; 0xffffff1d
     7b4:	04020003 	streq	r0, [r2], #-3
     7b8:	02001601 	andeq	r1, r0, #1048576	; 0x100000
     7bc:	05160104 	ldreq	r0, [r6, #-260]	; 0xfffffefc
     7c0:	04020009 	streq	r0, [r2], #-9
     7c4:	01020e01 	tsteq	r2, r1, lsl #28
     7c8:	05010100 	streq	r0, [r1, #-256]	; 0xffffff00
     7cc:	02050001 	andeq	r0, r5, #1
     7d0:	08000382 	stmdaeq	r0, {r1, r7, r8, r9}
     7d4:	0100f203 	tsteq	r0, r3, lsl #4	; <UNPREDICTABLE>
     7d8:	02000305 	andeq	r0, r0, #335544320	; 0x14000000
     7dc:	00160104 	andseq	r0, r6, r4, lsl #2
     7e0:	16010402 	strne	r0, [r1], -r2, lsl #8
     7e4:	02000905 	andeq	r0, r0, #81920	; 0x14000
     7e8:	020e0104 	andeq	r0, lr, #4, 2
     7ec:	01010001 	tsteq	r1, r1
     7f0:	05000105 	streq	r0, [r0, #-261]	; 0xfffffefb
     7f4:	00038402 	andeq	r8, r3, r2, lsl #8
     7f8:	01810308 	orreq	r0, r1, r8, lsl #6
     7fc:	00030501 	andeq	r0, r3, r1, lsl #10
     800:	16010402 	strne	r0, [r1], -r2, lsl #8
     804:	01040200 	mrseq	r0, R12_usr
     808:	00090516 	andeq	r0, r9, r6, lsl r5
     80c:	0e010402 	cdpeq	4, 0, cr0, cr1, cr2, {0}
     810:	01000102 	tsteq	r0, r2, lsl #2
     814:	00010501 	andeq	r0, r1, r1, lsl #10
     818:	03860205 	orreq	r0, r6, #1342177280	; 0x50000000
     81c:	90030800 	andls	r0, r3, r0, lsl #16
     820:	02190101 	andseq	r0, r9, #1073741824	; 0x40000000
     824:	01010001 	tsteq	r1, r1
     828:	05000105 	streq	r0, [r0, #-261]	; 0xfffffefb
     82c:	00038802 	andeq	r8, r3, r2, lsl #16
     830:	019d0308 	orrseq	r0, sp, r8, lsl #6
     834:	01021901 	tsteq	r2, r1, lsl #18
     838:	05010100 	streq	r0, [r1, #-256]	; 0xffffff00
     83c:	02050001 	andeq	r0, r5, #1
     840:	0800038a 	stmdaeq	r0, {r1, r3, r7, r8, r9}
     844:	0101aa03 	tsteq	r1, r3, lsl #20
     848:	00010219 	andeq	r0, r1, r9, lsl r2
     84c:	01050101 	tsteq	r5, r1, lsl #2
     850:	8c020500 	cfstr32hi	mvfx0, [r2], {-0}
     854:	03080003 	movweq	r0, #32771	; 0x8003
     858:	050101b7 	streq	r0, [r1, #-439]	; 0xfffffe49
     85c:	01052403 	tsteq	r5, r3, lsl #8
     860:	01023206 	tsteq	r2, r6, lsl #4
     864:	88010100 	stmdahi	r1, {r8}
     868:	03000001 	movweq	r0, #1
     86c:	00015d00 	andeq	r5, r1, r0, lsl #26
     870:	fb010200 	blx	4107a <_Min_Stack_Size+0x40c7a>
     874:	01000d0e 	tsteq	r0, lr, lsl #26
     878:	00010101 	andeq	r0, r1, r1, lsl #2
     87c:	00010000 	andeq	r0, r1, r0
     880:	72530100 	subsvc	r0, r3, #0, 2
     884:	3a640063 	bcc	1900a18 <_Min_Stack_Size+0x1900618>
     888:	6f72705c 	svcvs	0x0072705c
     88c:	6d617267 	sfmvs	f7, 2, [r1, #-412]!	; 0xfffffe64
     890:	6c696620 	stclvs	6, cr6, [r9], #-128	; 0xffffff80
     894:	675c7365 	ldrbvs	r7, [ip, -r5, ror #6]
     898:	612d6363 			; <UNDEFINED> instruction: 0x612d6363
     89c:	6e2d6d72 	mcrvs	13, 1, r6, cr13, cr2, {3}
     8a0:	2d656e6f 	stclcs	14, cr6, [r5, #-444]!	; 0xfffffe44
     8a4:	69626165 	stmdbvs	r2!, {r0, r2, r5, r6, r8, sp, lr}^
     8a8:	2e30312d 	rsfcssp	f3, f0, #5.0
     8ac:	30322d33 	eorscc	r2, r2, r3, lsr sp
     8b0:	312e3132 			; <UNDEFINED> instruction: 0x312e3132
     8b4:	72615c30 	rsbvc	r5, r1, #48, 24	; 0x3000
     8b8:	6f6e2d6d 	svcvs	0x006e2d6d
     8bc:	652d656e 	strvs	r6, [sp, #-1390]!	; 0xfffffa92
     8c0:	5c696261 	sfmpl	f6, 2, [r9], #-388	; 0xfffffe7c
     8c4:	6c636e69 	stclvs	14, cr6, [r3], #-420	; 0xfffffe5c
     8c8:	5c656475 	cfstrdpl	mvd6, [r5], #-468	; 0xfffffe2c
     8cc:	6863616d 	stmdavs	r3!, {r0, r2, r3, r5, r6, r8, sp, lr}^
     8d0:	00656e69 	rsbeq	r6, r5, r9, ror #28
     8d4:	705c3a64 	subsvc	r3, ip, r4, ror #20
     8d8:	72676f72 	rsbvc	r6, r7, #456	; 0x1c8
     8dc:	66206d61 	strtvs	r6, [r0], -r1, ror #26
     8e0:	73656c69 	cmnvc	r5, #26880	; 0x6900
     8e4:	6363675c 	cmnvs	r3, #92, 14	; 0x1700000
     8e8:	6d72612d 	ldfvse	f6, [r2, #-180]!	; 0xffffff4c
     8ec:	6e6f6e2d 	cdpvs	14, 6, cr6, cr15, cr13, {1}
     8f0:	61652d65 	cmnvs	r5, r5, ror #26
     8f4:	312d6962 			; <UNDEFINED> instruction: 0x312d6962
     8f8:	2d332e30 	ldccs	14, cr2, [r3, #-192]!	; 0xffffff40
     8fc:	31323032 	teqcc	r2, r2, lsr r0
     900:	5c30312e 	ldfpls	f3, [r0], #-184	; 0xffffff48
     904:	2d6d7261 	sfmcs	f7, 2, [sp, #-388]!	; 0xfffffe7c
     908:	656e6f6e 	strbvs	r6, [lr, #-3950]!	; 0xfffff092
     90c:	6261652d 	rsbvs	r6, r1, #188743680	; 0xb400000
     910:	6e695c69 	cdpvs	12, 6, cr5, cr9, cr9, {3}
     914:	64756c63 	ldrbtvs	r6, [r5], #-3171	; 0xfffff39d
     918:	79735c65 	ldmdbvc	r3!, {r0, r2, r5, r6, sl, fp, ip, lr}^
     91c:	72440073 	subvc	r0, r4, #115	; 0x73
     920:	72657669 	rsbvc	r7, r5, #110100480	; 0x6900000
     924:	4d432f73 	stclmi	15, cr2, [r3, #-460]	; 0xfffffe34
     928:	2f534953 	svccs	0x00534953
     92c:	69766544 	ldmdbvs	r6!, {r2, r6, r8, sl, sp, lr}^
     930:	532f6563 			; <UNDEFINED> instruction: 0x532f6563
     934:	54532f54 	ldrbpl	r2, [r3], #-3924	; 0xfffff0ac
     938:	4732334d 	ldrmi	r3, [r2, -sp, asr #6]!
     93c:	2f787834 	svccs	0x00787834
     940:	6c636e49 	stclvs	14, cr6, [r3], #-292	; 0xfffffedc
     944:	00656475 	rsbeq	r6, r5, r5, ror r4
     948:	76697244 	strbtvc	r7, [r9], -r4, asr #4
     94c:	2f737265 	svccs	0x00737265
     950:	334d5453 	movtcc	r5, #54355	; 0xd453
     954:	78344732 	ldmdavc	r4!, {r1, r4, r5, r8, r9, sl, lr}
     958:	41485f78 	hvcmi	34296	; 0x85f8
     95c:	72445f4c 	subvc	r5, r4, #76, 30	; 0x130
     960:	72657669 	rsbvc	r7, r5, #110100480	; 0x6900000
     964:	636e492f 	cmnvs	lr, #770048	; 0xbc000
     968:	74730000 	ldrbtvc	r0, [r3], #-0
     96c:	6732336d 	ldrvs	r3, [r2, -sp, ror #6]!
     970:	5f787834 	svcpl	0x00787834
     974:	5f6c6168 	svcpl	0x006c6168
     978:	2e70736d 	cdpcs	3, 7, cr7, cr0, cr13, {3}
     97c:	00010063 	andeq	r0, r1, r3, rrx
     980:	65645f00 	strbvs	r5, [r4, #-3840]!	; 0xfffff100
     984:	6c756166 	ldfvse	f6, [r5], #-408	; 0xfffffe68
     988:	79745f74 	ldmdbvc	r4!, {r2, r4, r5, r6, r8, r9, sl, fp, ip, lr}^
     98c:	2e736570 	mrccs	5, 3, r6, cr3, cr0, {3}
     990:	00020068 	andeq	r0, r2, r8, rrx
     994:	74735f00 	ldrbtvc	r5, [r3], #-3840	; 0xfffff100
     998:	746e6964 	strbtvc	r6, [lr], #-2404	; 0xfffff69c
     99c:	0300682e 	movweq	r6, #2094	; 0x82e
     9a0:	74730000 	ldrbtvc	r0, [r3], #-0
     9a4:	6732336d 	ldrvs	r3, [r2, -sp, ror #6]!
     9a8:	78333734 	ldmdavc	r3!, {r2, r4, r5, r8, r9, sl, ip, sp}
     9ac:	00682e78 	rsbeq	r2, r8, r8, ror lr
     9b0:	73000004 	movwvc	r0, #4
     9b4:	32336d74 	eorscc	r6, r3, #116, 26	; 0x1d00
     9b8:	78783467 	ldmdavc	r8!, {r0, r1, r2, r5, r6, sl, ip, sp}^
     9bc:	6c61685f 	stclvs	8, cr6, [r1], #-380	; 0xfffffe84
     9c0:	7277705f 	rsbsvc	r7, r7, #95	; 0x5f
     9c4:	2e78655f 	mrccs	5, 3, r6, cr8, cr15, {2}
     9c8:	00050068 	andeq	r0, r5, r8, rrx
     9cc:	01050000 	mrseq	r0, (UNDEF: 5)
     9d0:	94020500 	strls	r0, [r2], #-1280	; 0xfffffb00
     9d4:	03080003 	movweq	r0, #32771	; 0x8003
     9d8:	050100c0 	streq	r0, [r1, #-192]	; 0xffffff40
     9dc:	01013303 	tsteq	r1, r3, lsl #6
     9e0:	13204a58 			; <UNDEFINED> instruction: 0x13204a58
     9e4:	4a4a0101 	bmi	1280df0 <_Min_Stack_Size+0x12809f0>
     9e8:	01051820 	tsteq	r5, r0, lsr #16
     9ec:	05023306 	streq	r3, [r2, #-774]	; 0xfffffcfa
     9f0:	2e010100 	adfcss	f0, f1, f0
     9f4:	03000002 	movweq	r0, #2
     9f8:	00015b00 	andeq	r5, r1, r0, lsl #22
     9fc:	fb010200 	blx	41206 <_Min_Stack_Size+0x40e06>
     a00:	01000d0e 	tsteq	r0, lr, lsl #26
     a04:	00010101 	andeq	r0, r1, r1, lsl #2
     a08:	00010000 	andeq	r0, r1, r0
     a0c:	72530100 	subsvc	r0, r3, #0, 2
     a10:	3a640063 	bcc	1900ba4 <_Min_Stack_Size+0x19007a4>
     a14:	6f72705c 	svcvs	0x0072705c
     a18:	6d617267 	sfmvs	f7, 2, [r1, #-412]!	; 0xfffffe64
     a1c:	6c696620 	stclvs	6, cr6, [r9], #-128	; 0xffffff80
     a20:	675c7365 	ldrbvs	r7, [ip, -r5, ror #6]
     a24:	612d6363 			; <UNDEFINED> instruction: 0x612d6363
     a28:	6e2d6d72 	mcrvs	13, 1, r6, cr13, cr2, {3}
     a2c:	2d656e6f 	stclcs	14, cr6, [r5, #-444]!	; 0xfffffe44
     a30:	69626165 	stmdbvs	r2!, {r0, r2, r5, r6, r8, sp, lr}^
     a34:	2e30312d 	rsfcssp	f3, f0, #5.0
     a38:	30322d33 	eorscc	r2, r2, r3, lsr sp
     a3c:	312e3132 			; <UNDEFINED> instruction: 0x312e3132
     a40:	72615c30 	rsbvc	r5, r1, #48, 24	; 0x3000
     a44:	6f6e2d6d 	svcvs	0x006e2d6d
     a48:	652d656e 	strvs	r6, [sp, #-1390]!	; 0xfffffa92
     a4c:	5c696261 	sfmpl	f6, 2, [r9], #-388	; 0xfffffe7c
     a50:	6c636e69 	stclvs	14, cr6, [r3], #-420	; 0xfffffe5c
     a54:	5c656475 	cfstrdpl	mvd6, [r5], #-468	; 0xfffffe2c
     a58:	6863616d 	stmdavs	r3!, {r0, r2, r3, r5, r6, r8, sp, lr}^
     a5c:	00656e69 	rsbeq	r6, r5, r9, ror #28
     a60:	705c3a64 	subsvc	r3, ip, r4, ror #20
     a64:	72676f72 	rsbvc	r6, r7, #456	; 0x1c8
     a68:	66206d61 	strtvs	r6, [r0], -r1, ror #26
     a6c:	73656c69 	cmnvc	r5, #26880	; 0x6900
     a70:	6363675c 	cmnvs	r3, #92, 14	; 0x1700000
     a74:	6d72612d 	ldfvse	f6, [r2, #-180]!	; 0xffffff4c
     a78:	6e6f6e2d 	cdpvs	14, 6, cr6, cr15, cr13, {1}
     a7c:	61652d65 	cmnvs	r5, r5, ror #26
     a80:	312d6962 			; <UNDEFINED> instruction: 0x312d6962
     a84:	2d332e30 	ldccs	14, cr2, [r3, #-192]!	; 0xffffff40
     a88:	31323032 	teqcc	r2, r2, lsr r0
     a8c:	5c30312e 	ldfpls	f3, [r0], #-184	; 0xffffff48
     a90:	2d6d7261 	sfmcs	f7, 2, [sp, #-388]!	; 0xfffffe7c
     a94:	656e6f6e 	strbvs	r6, [lr, #-3950]!	; 0xfffff092
     a98:	6261652d 	rsbvs	r6, r1, #188743680	; 0xb400000
     a9c:	6e695c69 	cdpvs	12, 6, cr5, cr9, cr9, {3}
     aa0:	64756c63 	ldrbtvs	r6, [r5], #-3171	; 0xfffff39d
     aa4:	79735c65 	ldmdbvc	r3!, {r0, r2, r5, r6, sl, fp, ip, lr}^
     aa8:	72440073 	subvc	r0, r4, #115	; 0x73
     aac:	72657669 	rsbvc	r7, r5, #110100480	; 0x6900000
     ab0:	4d432f73 	stclmi	15, cr2, [r3, #-460]	; 0xfffffe34
     ab4:	2f534953 	svccs	0x00534953
     ab8:	6c636e49 	stclvs	14, cr6, [r3], #-292	; 0xfffffedc
     abc:	00656475 	rsbeq	r6, r5, r5, ror r4
     ac0:	76697244 	strbtvc	r7, [r9], -r4, asr #4
     ac4:	2f737265 	svccs	0x00737265
     ac8:	49534d43 	ldmdbmi	r3, {r0, r1, r6, r8, sl, fp, lr}^
     acc:	65442f53 	strbvs	r2, [r4, #-3923]	; 0xfffff0ad
     ad0:	65636976 	strbvs	r6, [r3, #-2422]!	; 0xfffff68a
     ad4:	2f54532f 	svccs	0x0054532f
     ad8:	334d5453 	movtcc	r5, #54355	; 0xd453
     adc:	78344732 	ldmdavc	r4!, {r1, r4, r5, r8, r9, sl, lr}
     ae0:	6e492f78 	mcrvs	15, 2, r2, cr9, cr8, {3}
     ae4:	64756c63 	ldrbtvs	r6, [r5], #-3171	; 0xfffff39d
     ae8:	73000065 	movwvc	r0, #101	; 0x65
     aec:	65747379 	ldrbvs	r7, [r4, #-889]!	; 0xfffffc87
     af0:	74735f6d 	ldrbtvc	r5, [r3], #-3949	; 0xfffff093
     af4:	6732336d 	ldrvs	r3, [r2, -sp, ror #6]!
     af8:	2e787834 	mrccs	8, 3, r7, cr8, cr4, {1}
     afc:	00010063 	andeq	r0, r1, r3, rrx
     b00:	65645f00 	strbvs	r5, [r4, #-3840]!	; 0xfffff100
     b04:	6c756166 	ldfvse	f6, [r5], #-408	; 0xfffffe68
     b08:	79745f74 	ldmdbvc	r4!, {r2, r4, r5, r6, r8, r9, sl, fp, ip, lr}^
     b0c:	2e736570 	mrccs	5, 3, r6, cr3, cr0, {3}
     b10:	00020068 	andeq	r0, r2, r8, rrx
     b14:	74735f00 	ldrbtvc	r5, [r3], #-3840	; 0xfffff100
     b18:	746e6964 	strbtvc	r6, [lr], #-2404	; 0xfffff69c
     b1c:	0300682e 	movweq	r6, #2094	; 0x82e
     b20:	6f630000 	svcvs	0x00630000
     b24:	635f6572 	cmpvs	pc, #478150656	; 0x1c800000
     b28:	682e346d 	stmdavs	lr!, {r0, r2, r3, r5, r6, sl, ip, sp}
     b2c:	00000400 	andeq	r0, r0, r0, lsl #8
     b30:	74737973 	ldrbtvc	r7, [r3], #-2419	; 0xfffff68d
     b34:	735f6d65 	cmpvc	pc, #6464	; 0x1940
     b38:	32336d74 	eorscc	r6, r3, #116, 26	; 0x1d00
     b3c:	78783467 	ldmdavc	r8!, {r0, r1, r2, r5, r6, sl, ip, sp}^
     b40:	0500682e 	streq	r6, [r0, #-2094]	; 0xfffff7d2
     b44:	74730000 	ldrbtvc	r0, [r3], #-0
     b48:	6732336d 	ldrvs	r3, [r2, -sp, ror #6]!
     b4c:	78333734 	ldmdavc	r3!, {r2, r4, r5, r8, r9, sl, ip, sp}
     b50:	00682e78 	rsbeq	r2, r8, r8, ror lr
     b54:	00000005 	andeq	r0, r0, r5
     b58:	05000105 	streq	r0, [r0, #-261]	; 0xfffffefb
     b5c:	0003cc02 	andeq	ip, r3, r2, lsl #24
     b60:	01b30308 			; <UNDEFINED> instruction: 0x01b30308
     b64:	15050501 	strne	r0, [r5, #-1281]	; 0xfffffaff
     b68:	01061005 	tsteq	r6, r5
     b6c:	027b0105 	rsbseq	r0, fp, #1073741825	; 0x40000001
     b70:	01010003 	tsteq	r1, r3
     b74:	05000105 	streq	r0, [r0, #-261]	; 0xfffffefb
     b78:	00000002 	andeq	r0, r0, r2
     b7c:	01e40300 	mvneq	r0, r0, lsl #6
     b80:	13030501 	movwne	r0, #13569	; 0x3501
     b84:	060e0515 			; <UNDEFINED> instruction: 0x060e0515
     b88:	2e150501 	cfmul32cs	mvfx0, mvfx5, mvfx1
     b8c:	062e0305 	strteq	r0, [lr], -r5, lsl #6
     b90:	05662203 	strbeq	r2, [r6, #-515]!	; 0xfffffdfd
     b94:	0501061c 	streq	r0, [r1, #-1564]	; 0xfffff9e4
     b98:	16052e34 			; <UNDEFINED> instruction: 0x16052e34
     b9c:	0603052e 	streq	r0, [r3], -lr, lsr #10
     ba0:	06130530 			; <UNDEFINED> instruction: 0x06130530
     ba4:	4b010501 	blmi	41fb0 <_Min_Stack_Size+0x41bb0>
     ba8:	03060705 	movweq	r0, #26373	; 0x6705
     bac:	1705205e 	smlsdne	r5, lr, r0, r2
     bb0:	07050106 	streq	r0, [r5, -r6, lsl #2]
     bb4:	05233d06 	streq	r3, [r3, #-3334]!	; 0xfffff2fa
     bb8:	05010617 	streq	r0, [r1, #-1559]	; 0xfffff9e9
     bbc:	263d0607 	ldrtcs	r0, [sp], -r7, lsl #12
     bc0:	01061705 	tsteq	r6, r5, lsl #14
     bc4:	052e1105 	streq	r1, [lr, #-261]!	; 0xfffffefb
     bc8:	052f0607 	streq	r0, [pc, #-1543]!	; 5c9 <_Min_Stack_Size+0x1c9>
     bcc:	05010613 	streq	r0, [r1, #-1555]	; 0xfffff9ed
     bd0:	0c052031 	stceq	0, cr2, [r5], {49}	; 0x31
     bd4:	0607052e 	streq	r0, [r7], -lr, lsr #10
     bd8:	060a0521 	streq	r0, [sl], -r1, lsr #10
     bdc:	06090501 	streq	r0, [r9], -r1, lsl #10
     be0:	06100534 			; <UNDEFINED> instruction: 0x06100534
     be4:	07052001 	streq	r2, [r5, -r1]
     be8:	1e053006 	cdpne	0, 0, cr3, cr5, cr6, {0}
     bec:	3c050106 	stfccs	f0, [r5], {6}
     bf0:	2e0e052e 	cfsh32cs	mvfx0, mvfx14, #30
     bf4:	2f060705 	svccs	0x00060705
     bf8:	01061405 	tsteq	r6, r5, lsl #8
     bfc:	05203205 	streq	r3, [r0, #-517]!	; 0xfffffdfb
     c00:	0c052e39 	stceq	14, cr2, [r5], {57}	; 0x39
     c04:	06070520 	streq	r0, [r7], -r0, lsr #10
     c08:	061f0521 	ldreq	r0, [pc], -r1, lsr #10
     c0c:	2e170501 	cfmul32cs	mvfx0, mvfx7, mvfx1
     c10:	06070520 	streq	r0, [r7], -r0, lsr #10
     c14:	03090521 	movweq	r0, #38177	; 0x9521
     c18:	10052077 	andne	r2, r5, r7, ror r0
     c1c:	2e200106 	sufcss	f0, f0, f6
     c20:	01000b02 	tsteq	r0, r2, lsl #22
     c24:	00067401 	andeq	r7, r6, r1, lsl #8
     c28:	da000300 	ble	1830 <_Min_Stack_Size+0x1430>
     c2c:	02000001 	andeq	r0, r0, #1
     c30:	0d0efb01 	vstreq	d15, [lr, #-4]
     c34:	01010100 	mrseq	r0, (UNDEF: 17)
     c38:	00000001 	andeq	r0, r0, r1
     c3c:	01000001 	tsteq	r0, r1
     c40:	76697244 	strbtvc	r7, [r9], -r4, asr #4
     c44:	2f737265 	svccs	0x00737265
     c48:	334d5453 	movtcc	r5, #54355	; 0xd453
     c4c:	78344732 	ldmdavc	r4!, {r1, r4, r5, r8, r9, sl, lr}
     c50:	41485f78 	hvcmi	34296	; 0x85f8
     c54:	72445f4c 	subvc	r5, r4, #76, 30	; 0x130
     c58:	72657669 	rsbvc	r7, r5, #110100480	; 0x6900000
     c5c:	6372532f 	cmnvs	r2, #-1140850688	; 0xbc000000
     c60:	5c3a6400 	cfldrspl	mvf6, [sl], #-0
     c64:	676f7270 			; <UNDEFINED> instruction: 0x676f7270
     c68:	206d6172 	rsbcs	r6, sp, r2, ror r1
     c6c:	656c6966 	strbvs	r6, [ip, #-2406]!	; 0xfffff69a
     c70:	63675c73 	cmnvs	r7, #29440	; 0x7300
     c74:	72612d63 	rsbvc	r2, r1, #6336	; 0x18c0
     c78:	6f6e2d6d 	svcvs	0x006e2d6d
     c7c:	652d656e 	strvs	r6, [sp, #-1390]!	; 0xfffffa92
     c80:	2d696261 	sfmcs	f6, 2, [r9, #-388]!	; 0xfffffe7c
     c84:	332e3031 			; <UNDEFINED> instruction: 0x332e3031
     c88:	3230322d 	eorscc	r3, r0, #-805306366	; 0xd0000002
     c8c:	30312e31 	eorscc	r2, r1, r1, lsr lr
     c90:	6d72615c 	ldfvse	f6, [r2, #-368]!	; 0xfffffe90
     c94:	6e6f6e2d 	cdpvs	14, 6, cr6, cr15, cr13, {1}
     c98:	61652d65 	cmnvs	r5, r5, ror #26
     c9c:	695c6962 	ldmdbvs	ip, {r1, r5, r6, r8, fp, sp, lr}^
     ca0:	756c636e 	strbvc	r6, [ip, #-878]!	; 0xfffffc92
     ca4:	6d5c6564 	cfldr64vs	mvdx6, [ip, #-400]	; 0xfffffe70
     ca8:	69686361 	stmdbvs	r8!, {r0, r5, r6, r8, r9, sp, lr}^
     cac:	6400656e 	strvs	r6, [r0], #-1390	; 0xfffffa92
     cb0:	72705c3a 	rsbsvc	r5, r0, #14848	; 0x3a00
     cb4:	6172676f 	cmnvs	r2, pc, ror #14
     cb8:	6966206d 	stmdbvs	r6!, {r0, r2, r3, r5, r6, sp}^
     cbc:	5c73656c 	cfldr64pl	mvdx6, [r3], #-432	; 0xfffffe50
     cc0:	2d636367 	stclcs	3, cr6, [r3, #-412]!	; 0xfffffe64
     cc4:	2d6d7261 	sfmcs	f7, 2, [sp, #-388]!	; 0xfffffe7c
     cc8:	656e6f6e 	strbvs	r6, [lr, #-3950]!	; 0xfffff092
     ccc:	6261652d 	rsbvs	r6, r1, #188743680	; 0xb400000
     cd0:	30312d69 	eorscc	r2, r1, r9, ror #26
     cd4:	322d332e 	eorcc	r3, sp, #-1207959552	; 0xb8000000
     cd8:	2e313230 	mrccs	2, 1, r3, cr1, cr0, {1}
     cdc:	615c3031 	cmpvs	ip, r1, lsr r0
     ce0:	6e2d6d72 	mcrvs	13, 1, r6, cr13, cr2, {3}
     ce4:	2d656e6f 	stclcs	14, cr6, [r5, #-444]!	; 0xfffffe44
     ce8:	69626165 	stmdbvs	r2!, {r0, r2, r5, r6, r8, sp, lr}^
     cec:	636e695c 	cmnvs	lr, #92, 18	; 0x170000
     cf0:	6564756c 	strbvs	r7, [r4, #-1388]!	; 0xfffffa94
     cf4:	7379735c 	cmnvc	r9, #92, 6	; 0x70000001
     cf8:	69724400 	ldmdbvs	r2!, {sl, lr}^
     cfc:	73726576 	cmnvc	r2, #494927872	; 0x1d800000
     d00:	534d432f 	movtpl	r4, #54063	; 0xd32f
     d04:	492f5349 	stmdbmi	pc!, {r0, r3, r6, r8, r9, ip, lr}	; <UNPREDICTABLE>
     d08:	756c636e 	strbvc	r6, [ip, #-878]!	; 0xfffffc92
     d0c:	44006564 	strmi	r6, [r0], #-1380	; 0xfffffa9c
     d10:	65766972 	ldrbvs	r6, [r6, #-2418]!	; 0xfffff68e
     d14:	432f7372 			; <UNDEFINED> instruction: 0x432f7372
     d18:	5349534d 	movtpl	r5, #37709	; 0x934d
     d1c:	7665442f 	strbtvc	r4, [r5], -pc, lsr #8
     d20:	2f656369 	svccs	0x00656369
     d24:	532f5453 			; <UNDEFINED> instruction: 0x532f5453
     d28:	32334d54 	eorscc	r4, r3, #84, 26	; 0x1500
     d2c:	78783447 	ldmdavc	r8!, {r0, r1, r2, r6, sl, ip, sp}^
     d30:	636e492f 	cmnvs	lr, #770048	; 0xbc000
     d34:	6564756c 	strbvs	r7, [r4, #-1388]!	; 0xfffffa94
     d38:	69724400 	ldmdbvs	r2!, {sl, lr}^
     d3c:	73726576 	cmnvc	r2, #494927872	; 0x1d800000
     d40:	4d54532f 	ldclmi	3, cr5, [r4, #-188]	; 0xffffff44
     d44:	34473233 	strbcc	r3, [r7], #-563	; 0xfffffdcd
     d48:	485f7878 	ldmdami	pc, {r3, r4, r5, r6, fp, ip, sp, lr}^	; <UNPREDICTABLE>
     d4c:	445f4c41 	ldrbmi	r4, [pc], #-3137	; d54 <_Min_Stack_Size+0x954>
     d50:	65766972 	ldrbvs	r6, [r6, #-2418]!	; 0xfffff68e
     d54:	6e492f72 	mcrvs	15, 2, r2, cr9, cr2, {3}
     d58:	73000063 	movwvc	r0, #99	; 0x63
     d5c:	32336d74 	eorscc	r6, r3, #116, 26	; 0x1d00
     d60:	78783467 	ldmdavc	r8!, {r0, r1, r2, r5, r6, sl, ip, sp}^
     d64:	6c61685f 	stclvs	8, cr6, [r1], #-380	; 0xfffffe84
     d68:	0100632e 	tsteq	r0, lr, lsr #6
     d6c:	645f0000 	ldrbvs	r0, [pc], #-0	; d74 <_Min_Stack_Size+0x974>
     d70:	75616665 	strbvc	r6, [r1, #-1637]!	; 0xfffff99b
     d74:	745f746c 	ldrbvc	r7, [pc], #-1132	; d7c <_Min_Stack_Size+0x97c>
     d78:	73657079 	cmnvc	r5, #121	; 0x79
     d7c:	0200682e 	andeq	r6, r0, #3014656	; 0x2e0000
     d80:	735f0000 	cmpvc	pc, #0
     d84:	6e696474 	mcrvs	4, 3, r6, cr9, cr4, {3}
     d88:	00682e74 	rsbeq	r2, r8, r4, ror lr
     d8c:	63000003 	movwvs	r0, #3
     d90:	5f65726f 	svcpl	0x0065726f
     d94:	2e346d63 	cdpcs	13, 3, cr6, cr4, cr3, {3}
     d98:	00040068 	andeq	r0, r4, r8, rrx
     d9c:	6d747300 	ldclvs	3, cr7, [r4, #-0]
     da0:	34673233 	strbtcc	r3, [r7], #-563	; 0xfffffdcd
     da4:	78783337 	ldmdavc	r8!, {r0, r1, r2, r4, r5, r8, r9, ip, sp}^
     da8:	0500682e 	streq	r6, [r0, #-2094]	; 0xfffff7d2
     dac:	74730000 	ldrbtvc	r0, [r3], #-0
     db0:	6732336d 	ldrvs	r3, [r2, -sp, ror #6]!
     db4:	5f787834 	svcpl	0x00787834
     db8:	5f6c6168 	svcpl	0x006c6168
     dbc:	2e666564 	cdpcs	5, 6, cr6, cr6, cr4, {3}
     dc0:	00060068 	andeq	r0, r6, r8, rrx
     dc4:	73797300 	cmnvc	r9, #0, 6
     dc8:	5f6d6574 	svcpl	0x006d6574
     dcc:	336d7473 	cmncc	sp, #1929379840	; 0x73000000
     dd0:	78346732 	ldmdavc	r4!, {r1, r4, r5, r8, r9, sl, sp, lr}
     dd4:	00682e78 	rsbeq	r2, r8, r8, ror lr
     dd8:	73000005 	movwvc	r0, #5
     ddc:	32336d74 	eorscc	r6, r3, #116, 26	; 0x1d00
     de0:	78783467 	ldmdavc	r8!, {r0, r1, r2, r5, r6, sl, ip, sp}^
     de4:	6c61685f 	stclvs	8, cr6, [r1], #-380	; 0xfffffe84
     de8:	0600682e 	streq	r6, [r0], -lr, lsr #16
     dec:	74730000 	ldrbtvc	r0, [r3], #-0
     df0:	6732336d 	ldrvs	r3, [r2, -sp, ror #6]!
     df4:	5f787834 	svcpl	0x00787834
     df8:	5f6c6168 	svcpl	0x006c6168
     dfc:	74726f63 	ldrbtvc	r6, [r2], #-3939	; 0xfffff09d
     e00:	682e7865 	stmdavs	lr!, {r0, r2, r5, r6, fp, ip, sp, lr}
     e04:	00000600 	andeq	r0, r0, r0, lsl #12
     e08:	00010500 	andeq	r0, r1, r0, lsl #10
     e0c:	00000205 	andeq	r0, r0, r5, lsl #4
     e10:	dd030000 	stcle	0, cr0, [r3, #-0]
     e14:	02160101 	andseq	r0, r6, #1073741824	; 0x40000000
     e18:	01010001 	tsteq	r1, r1
     e1c:	05000105 	streq	r0, [r0, #-261]	; 0xfffffefb
     e20:	00000002 	andeq	r0, r0, r2
     e24:	01e80300 	mvneq	r0, r0, lsl #6
     e28:	01021601 	tsteq	r2, r1, lsl #12
     e2c:	05010100 	streq	r0, [r1, #-256]	; 0xffffff00
     e30:	02050001 	andeq	r0, r5, #1
     e34:	00000000 	andeq	r0, r0, r0
     e38:	0101c003 	tsteq	r1, r3
     e3c:	4b220305 	blmi	881a58 <_Min_Stack_Size+0x881658>
     e40:	21222130 			; <UNDEFINED> instruction: 0x21222130
     e44:	21222122 			; <UNDEFINED> instruction: 0x21222122
     e48:	01053123 	tsteq	r5, r3, lsr #2
     e4c:	05021306 	streq	r1, [r2, #-774]	; 0xfffffcfa
     e50:	05010100 	streq	r0, [r1, #-256]	; 0xffffff00
     e54:	02050001 	andeq	r0, r5, #1
     e58:	080003e0 	stmdaeq	r0, {r5, r6, r7, r8, r9}
     e5c:	0101ff03 	tsteq	r1, r3, lsl #30	; <UNPREDICTABLE>
     e60:	14130305 	ldrne	r0, [r3], #-773	; 0xfffffcfb
     e64:	01061205 	tsteq	r6, r5, lsl #4
     e68:	052e0605 	streq	r0, [lr, #-1541]!	; 0xfffff9fb
     e6c:	2017030c 	andscs	r0, r7, ip, lsl #6
     e70:	24060305 	strcs	r0, [r6], #-773	; 0xfffffcfb
     e74:	13060105 	movwne	r0, #24837	; 0x6105
     e78:	05206103 	streq	r6, [r0, #-259]!	; 0xfffffefd
     e7c:	05340605 	ldreq	r0, [r4, #-1541]!	; 0xfffff9fb
     e80:	2e010635 	mcrcs	6, 0, r0, cr1, cr5, {1}
     e84:	052e0905 	streq	r0, [lr, #-2309]!	; 0xfffff6fb
     e88:	07056608 	streq	r6, [r5, -r8, lsl #12]
     e8c:	0a052306 	beq	149aac <_Min_Stack_Size+0x1496ac>
     e90:	10050106 	andne	r0, r5, r6, lsl #2
     e94:	06090535 			; <UNDEFINED> instruction: 0x06090535
     e98:	14056729 	strne	r6, [r5], #-1833	; 0xfffff8d7
     e9c:	16050106 	strne	r0, [r5], -r6, lsl #2
     ea0:	052e7503 	streq	r7, [lr, #-1283]!	; 0xfffffafd
     ea4:	2e14030e 	cdpcs	3, 1, cr0, cr4, cr14, {0}
     ea8:	03060305 	movweq	r0, #25349	; 0x6305
     eac:	01052009 	tsteq	r5, r9
     eb0:	02201306 	eoreq	r1, r0, #402653184	; 0x18000000
     eb4:	01010006 	tsteq	r1, r6
     eb8:	05000105 	streq	r0, [r0, #-261]	; 0xfffffefb
     ebc:	00043002 	andeq	r3, r4, r2
     ec0:	01940308 	orrseq	r0, r4, r8, lsl #6
     ec4:	21030501 	tstcs	r3, r1, lsl #10
     ec8:	3f011303 	svccc	0x00011303
     ecc:	01060705 	tsteq	r6, r5, lsl #14
     ed0:	053c0605 	ldreq	r0, [ip, #-1541]!	; 0xfffff9fb
     ed4:	0305220c 	movweq	r2, #21004	; 0x520c
     ed8:	20090306 	andcs	r0, r9, r6, lsl #6
     edc:	14060105 	strne	r0, [r6], #-261	; 0xfffffefb
     ee0:	0605052e 	streq	r0, [r5], -lr, lsr #10
     ee4:	02207a03 	eoreq	r7, r0, #12288	; 0x3000
     ee8:	01010003 	tsteq	r1, r3
     eec:	05000105 	streq	r0, [r0, #-261]	; 0xfffffefb
     ef0:	00045002 	andeq	r5, r4, r2
     ef4:	02c20308 	sbceq	r0, r2, #8, 6	; 0x20000000
     ef8:	13030501 	movwne	r0, #13569	; 0x3501
     efc:	01060a05 	tsteq	r6, r5, lsl #20
     f00:	02670105 	rsbeq	r0, r7, #1073741825	; 0x40000001
     f04:	01010006 	tsteq	r1, r6
     f08:	05000105 	streq	r0, [r0, #-261]	; 0xfffffefb
     f0c:	00046802 	andeq	r6, r4, r2, lsl #16
     f10:	02cd0308 	sbceq	r0, sp, #8, 6	; 0x20000000
     f14:	13030501 	movwne	r0, #13569	; 0x3501
     f18:	01060a05 	tsteq	r6, r5, lsl #20
     f1c:	022f0105 	eoreq	r0, pc, #1073741825	; 0x40000001
     f20:	01010004 	tsteq	r1, r4
     f24:	05000105 	streq	r0, [r0, #-261]	; 0xfffffefb
     f28:	00000002 	andeq	r0, r0, r2
     f2c:	02d60300 	sbcseq	r0, r6, #0, 6
     f30:	13030501 	movwne	r0, #13569	; 0x3501
     f34:	13060105 	movwne	r0, #24837	; 0x6105
     f38:	01000602 	tsteq	r0, r2, lsl #12
     f3c:	00010501 	andeq	r0, r1, r1, lsl #10
     f40:	00000205 	andeq	r0, r0, r5, lsl #4
     f44:	df030000 	svcle	0x00030000
     f48:	01060102 	tsteq	r6, r2, lsl #2
     f4c:	21060305 	tstcs	r6, r5, lsl #6
     f50:	05141413 	ldreq	r1, [r4, #-1043]	; 0xfffffbed
     f54:	05010612 	streq	r0, [r1, #-1554]	; 0xfffff9ee
     f58:	15052e06 	strne	r2, [r5, #-3590]	; 0xfffff1fa
     f5c:	06030529 	streq	r0, [r3], -r9, lsr #10
     f60:	05201703 	streq	r1, [r0, #-1795]!	; 0xfffff8fd
     f64:	05130601 	ldreq	r0, [r3, #-1537]	; 0xfffff9ff
     f68:	70030605 	andvc	r0, r3, r5, lsl #12
     f6c:	10051520 	andne	r1, r5, r0, lsr #10
     f70:	05050106 	streq	r0, [r5, #-262]	; 0xfffffefa
     f74:	0e052306 	cdpeq	3, 0, cr2, cr5, cr6, {0}
     f78:	052e0106 	streq	r0, [lr, #-262]!	; 0xfffffefa
     f7c:	05300605 	ldreq	r0, [r0, #-1541]!	; 0xfffff9fb
     f80:	05010608 	streq	r0, [r1, #-1544]	; 0xfffff9f8
     f84:	05310607 	ldreq	r0, [r1, #-1543]!	; 0xfffff9f9
     f88:	02010612 	andeq	r0, r1, #18874368	; 0x1200000
     f8c:	01010008 	tsteq	r1, r8
     f90:	05000105 	streq	r0, [r0, #-261]	; 0xfffffefb
     f94:	00000002 	andeq	r0, r0, r2
     f98:	02ff0300 	rscseq	r0, pc, #0, 6
     f9c:	13030501 	movwne	r0, #13569	; 0x3501
     fa0:	13060105 	movwne	r0, #24837	; 0x6105
     fa4:	01000602 	tsteq	r0, r2, lsl #12
     fa8:	00010501 	andeq	r0, r1, r1, lsl #10
     fac:	04740205 	ldrbteq	r0, [r4], #-517	; 0xfffffdfb
     fb0:	8f030800 	svchi	0x00030800
     fb4:	01060103 	tsteq	r6, r3, lsl #2
     fb8:	2f060305 	svccs	0x00060305
     fbc:	01061805 	tsteq	r6, r5, lsl #16
     fc0:	0603052e 	streq	r0, [r3], -lr, lsr #10
     fc4:	06051521 	streq	r1, [r5], -r1, lsr #10
     fc8:	05050106 	streq	r0, [r5, #-262]	; 0xfffffefa
     fcc:	0d053e06 	stceq	14, cr3, [r5, #-24]	; 0xffffffe8
     fd0:	0a050106 	beq	1413f0 <_Min_Stack_Size+0x140ff0>
     fd4:	0003052e 	andeq	r0, r3, lr, lsr #10
     fd8:	06010402 	streq	r0, [r1], -r2, lsl #8
     fdc:	00090525 	andeq	r0, r9, r5, lsr #10
     fe0:	10010402 	andne	r0, r1, r2, lsl #8
     fe4:	02000b05 	andeq	r0, r0, #5120	; 0x1400
     fe8:	01060104 	tsteq	r6, r4, lsl #2
     fec:	02001905 	andeq	r1, r0, #81920	; 0x14000
     ff0:	052e0104 	streq	r0, [lr, #-260]!	; 0xfffffefc
     ff4:	04020009 	streq	r0, [r2], #-9
     ff8:	01052001 	tsteq	r5, r1
     ffc:	03022031 	movweq	r2, #8241	; 0x2031
    1000:	05010100 	streq	r0, [r1, #-256]	; 0xffffff00
    1004:	02050001 	andeq	r0, r5, #1
    1008:	00000000 	andeq	r0, r0, r0
    100c:	0103a903 	tsteq	r3, r3, lsl #18
    1010:	05140305 	ldreq	r0, [r4, #-773]	; 0xfffffcfb
    1014:	02670601 	rsbeq	r0, r7, #1048576	; 0x100000
    1018:	01010001 	tsteq	r1, r1
    101c:	05000105 	streq	r0, [r0, #-261]	; 0xfffffefb
    1020:	00000002 	andeq	r0, r0, r2
    1024:	03b90300 			; <UNDEFINED> instruction: 0x03b90300
    1028:	14030501 	strne	r0, [r3], #-1281	; 0xfffffaff
    102c:	67060105 	strvs	r0, [r6, -r5, lsl #2]
    1030:	01000102 	tsteq	r0, r2, lsl #2
    1034:	00010501 	andeq	r0, r1, r1, lsl #10
    1038:	00000205 	andeq	r0, r0, r5, lsl #4
    103c:	c3030000 	movwgt	r0, #12288	; 0x3000
    1040:	03050103 	movweq	r0, #20739	; 0x5103
    1044:	06010513 			; <UNDEFINED> instruction: 0x06010513
    1048:	00040213 	andeq	r0, r4, r3, lsl r2
    104c:	01050101 	tsteq	r5, r1, lsl #2
    1050:	00020500 	andeq	r0, r2, r0, lsl #10
    1054:	03000000 	movweq	r0, #0
    1058:	050103cc 	streq	r0, [r1, #-972]	; 0xfffffc34
    105c:	12051303 	andne	r1, r5, #201326592	; 0xc000000
    1060:	01050106 	tsteq	r5, r6, lsl #2
    1064:	0004022f 	andeq	r0, r4, pc, lsr #4
    1068:	01050101 	tsteq	r5, r1, lsl #2
    106c:	00020500 	andeq	r0, r2, r0, lsl #10
    1070:	03000000 	movweq	r0, #0
    1074:	050103d5 	streq	r0, [r1, #-981]	; 0xfffffc2b
    1078:	11051303 	tstne	r5, r3, lsl #6
    107c:	01050106 	tsteq	r5, r6, lsl #2
    1080:	0006022f 	andeq	r0, r6, pc, lsr #4
    1084:	01050101 	tsteq	r5, r1, lsl #2
    1088:	00020500 	andeq	r0, r2, r0, lsl #10
    108c:	03000000 	movweq	r0, #0
    1090:	050103f2 	streq	r0, [r1, #-1010]	; 0xfffffc0e
    1094:	01051303 	tsteq	r5, r3, lsl #6
    1098:	03025906 	movweq	r5, #10502	; 0x2906
    109c:	05010100 	streq	r0, [r1, #-256]	; 0xffffff00
    10a0:	02050001 	andeq	r0, r5, #1
    10a4:	00000000 	andeq	r0, r0, r0
    10a8:	0103fb03 	tsteq	r3, r3, lsl #22	; <UNPREDICTABLE>
    10ac:	05130305 	ldreq	r0, [r3, #-773]	; 0xfffffcfb
    10b0:	02590601 	subseq	r0, r9, #1048576	; 0x100000
    10b4:	01010003 	tsteq	r1, r3
    10b8:	05000105 	streq	r0, [r0, #-261]	; 0xfffffefb
    10bc:	00000002 	andeq	r0, r0, r2
    10c0:	04840300 	streq	r0, [r4], #768	; 0x300
    10c4:	13030501 	movwne	r0, #13569	; 0x3501
    10c8:	59060105 	stmdbpl	r6, {r0, r2, r8}
    10cc:	01000302 	tsteq	r0, r2, lsl #6
    10d0:	00010501 	andeq	r0, r1, r1, lsl #10
    10d4:	00000205 	andeq	r0, r0, r5, lsl #4
    10d8:	8d030000 	stchi	0, cr0, [r3, #-0]
    10dc:	03050104 	movweq	r0, #20740	; 0x5104
    10e0:	06010513 			; <UNDEFINED> instruction: 0x06010513
    10e4:	00030259 	andeq	r0, r3, r9, asr r2
    10e8:	01050101 	tsteq	r5, r1, lsl #2
    10ec:	00020500 	andeq	r0, r2, r0, lsl #10
    10f0:	03000000 	movweq	r0, #0
    10f4:	05010496 	streq	r0, [r1, #-1174]	; 0xfffffb6a
    10f8:	01051303 	tsteq	r5, r3, lsl #6
    10fc:	03025906 	movweq	r5, #10502	; 0x2906
    1100:	05010100 	streq	r0, [r1, #-256]	; 0xffffff00
    1104:	02050001 	andeq	r0, r5, #1
    1108:	00000000 	andeq	r0, r0, r0
    110c:	01049f03 	tsteq	r4, r3, lsl #30
    1110:	05130305 	ldreq	r0, [r3, #-773]	; 0xfffffcfb
    1114:	02590601 	subseq	r0, r9, #1048576	; 0x100000
    1118:	01010003 	tsteq	r1, r3
    111c:	05000105 	streq	r0, [r0, #-261]	; 0xfffffefb
    1120:	00000002 	andeq	r0, r0, r2
    1124:	04c00300 	strbeq	r0, [r0], #768	; 0x300
    1128:	14030501 	strne	r0, [r3], #-1281	; 0xfffffaff
    112c:	01060f05 	tsteq	r6, r5, lsl #30
    1130:	3d060305 	stccc	3, cr0, [r6, #-20]	; 0xffffffec
    1134:	01060f05 	tsteq	r6, r5, lsl #30
    1138:	30060305 	andcc	r0, r6, r5, lsl #6
    113c:	4b060105 	blmi	181558 <_Min_Stack_Size+0x181158>
    1140:	01000302 	tsteq	r0, r2, lsl #6
    1144:	00010501 	andeq	r0, r1, r1, lsl #10
    1148:	00000205 	andeq	r0, r0, r5, lsl #4
    114c:	d3030000 	movwle	r0, #12288	; 0x3000
    1150:	03050104 	movweq	r0, #20740	; 0x5104
    1154:	06010513 			; <UNDEFINED> instruction: 0x06010513
    1158:	00030259 	andeq	r0, r3, r9, asr r2
    115c:	01050101 	tsteq	r5, r1, lsl #2
    1160:	00020500 	andeq	r0, r2, r0, lsl #10
    1164:	03000000 	movweq	r0, #0
    1168:	050104e2 	streq	r0, [r1, #-1250]	; 0xfffffb1e
    116c:	01051303 	tsteq	r5, r3, lsl #6
    1170:	03025906 	movweq	r5, #10502	; 0x2906
    1174:	05010100 	streq	r0, [r1, #-256]	; 0xffffff00
    1178:	02050001 	andeq	r0, r5, #1
    117c:	00000000 	andeq	r0, r0, r0
    1180:	0104f403 	tsteq	r4, r3, lsl #8	; <UNPREDICTABLE>
    1184:	14140305 	ldrne	r0, [r4], #-773	; 0xfffffcfb
    1188:	67060105 	strvs	r0, [r6, -r5, lsl #2]
    118c:	01000402 	tsteq	r0, r2, lsl #8
    1190:	00010501 	andeq	r0, r1, r1, lsl #10
    1194:	00000205 	andeq	r0, r0, r5, lsl #4
    1198:	84030000 	strhi	r0, [r3], #-0
    119c:	03050105 	movweq	r0, #20741	; 0x5105
    11a0:	01051414 	tsteq	r5, r4, lsl r4
    11a4:	04026706 	streq	r6, [r2], #-1798	; 0xfffff8fa
    11a8:	05010100 	streq	r0, [r1, #-256]	; 0xffffff00
    11ac:	02050001 	andeq	r0, r5, #1
    11b0:	00000000 	andeq	r0, r0, r0
    11b4:	01059203 	tsteq	r5, r3, lsl #4
    11b8:	14140305 	ldrne	r0, [r4], #-773	; 0xfffffcfb
    11bc:	67060105 	strvs	r0, [r6, -r5, lsl #2]
    11c0:	01000402 	tsteq	r0, r2, lsl #8
    11c4:	00010501 	andeq	r0, r1, r1, lsl #10
    11c8:	00000205 	andeq	r0, r0, r5, lsl #4
    11cc:	9e030000 	cdpls	0, 0, cr0, cr3, cr0, {0}
    11d0:	03050105 	movweq	r0, #20741	; 0x5105
    11d4:	055b1421 	ldrbeq	r1, [fp, #-1057]	; 0xfffffbdf
    11d8:	0501060f 	streq	r0, [r1, #-1551]	; 0xfffff9f1
    11dc:	053f0603 	ldreq	r0, [pc, #-1539]!	; be1 <_Min_Stack_Size+0x7e1>
    11e0:	0a050109 	beq	14160c <_Min_Stack_Size+0x14120c>
    11e4:	09050106 	stmdbeq	r5, {r1, r2, r8}
    11e8:	0605052e 	streq	r0, [r5], -lr, lsr #10
    11ec:	060a053e 			; <UNDEFINED> instruction: 0x060a053e
    11f0:	2e180501 	cfmul32cs	mvfx0, mvfx8, mvfx1
    11f4:	05200805 	streq	r0, [r0, #-2053]!	; 0xfffff7fb
    11f8:	0a05300e 	beq	14d238 <_Min_Stack_Size+0x14ce38>
    11fc:	21010532 	tstcs	r1, r2, lsr r5
    1200:	00030220 	andeq	r0, r3, r0, lsr #4
    1204:	01050101 	tsteq	r5, r1, lsl #2
    1208:	00020500 	andeq	r0, r2, r0, lsl #10
    120c:	03000000 	movweq	r0, #0
    1210:	050105b8 	streq	r0, [r1, #-1464]	; 0xfffffa48
    1214:	01051303 	tsteq	r5, r3, lsl #6
    1218:	03025906 	movweq	r5, #10502	; 0x2906
    121c:	05010100 	streq	r0, [r1, #-256]	; 0xffffff00
    1220:	02050001 	andeq	r0, r5, #1
    1224:	00000000 	andeq	r0, r0, r0
    1228:	0105c303 	tsteq	r5, r3, lsl #6
    122c:	05130305 	ldreq	r0, [r3, #-773]	; 0xfffffcfb
    1230:	02590601 	subseq	r0, r9, #1048576	; 0x100000
    1234:	01010003 	tsteq	r1, r3
    1238:	05000105 	streq	r0, [r0, #-261]	; 0xfffffefb
    123c:	00000002 	andeq	r0, r0, r2
    1240:	05cd0300 	strbeq	r0, [sp, #768]	; 0x300
    1244:	13030501 	movwne	r0, #13569	; 0x3501
    1248:	59060105 	stmdbpl	r6, {r0, r2, r8}
    124c:	01000302 	tsteq	r0, r2, lsl #6
    1250:	00010501 	andeq	r0, r1, r1, lsl #10
    1254:	00000205 	andeq	r0, r0, r5, lsl #4
    1258:	d7030000 	strle	r0, [r3, -r0]
    125c:	03050105 	movweq	r0, #20741	; 0x5105
    1260:	06010513 			; <UNDEFINED> instruction: 0x06010513
    1264:	00030259 	andeq	r0, r3, r9, asr r2
    1268:	01050101 	tsteq	r5, r1, lsl #2
    126c:	00020500 	andeq	r0, r2, r0, lsl #10
    1270:	03000000 	movweq	r0, #0
    1274:	050105e1 	streq	r0, [r1, #-1505]	; 0xfffffa1f
    1278:	01051303 	tsteq	r5, r3, lsl #6
    127c:	03025906 	movweq	r5, #10502	; 0x2906
    1280:	05010100 	streq	r0, [r1, #-256]	; 0xffffff00
    1284:	02050001 	andeq	r0, r5, #1
    1288:	00000000 	andeq	r0, r0, r0
    128c:	0105ec03 	tsteq	r5, r3, lsl #24
    1290:	14130305 	ldrne	r0, [r3], #-773	; 0xfffffcfb
    1294:	4b060105 	blmi	1816b0 <_Min_Stack_Size+0x1812b0>
    1298:	01000402 	tsteq	r0, r2, lsl #8
    129c:	000dd501 	andeq	sp, sp, r1, lsl #10
    12a0:	de000300 	cdple	3, 0, cr0, cr0, cr0, {0}
    12a4:	02000001 	andeq	r0, r0, #1
    12a8:	0d0efb01 	vstreq	d15, [lr, #-4]
    12ac:	01010100 	mrseq	r0, (UNDEF: 17)
    12b0:	00000001 	andeq	r0, r0, r1
    12b4:	01000001 	tsteq	r0, r1
    12b8:	76697244 	strbtvc	r7, [r9], -r4, asr #4
    12bc:	2f737265 	svccs	0x00737265
    12c0:	334d5453 	movtcc	r5, #54355	; 0xd453
    12c4:	78344732 	ldmdavc	r4!, {r1, r4, r5, r8, r9, sl, lr}
    12c8:	41485f78 	hvcmi	34296	; 0x85f8
    12cc:	72445f4c 	subvc	r5, r4, #76, 30	; 0x130
    12d0:	72657669 	rsbvc	r7, r5, #110100480	; 0x6900000
    12d4:	6372532f 	cmnvs	r2, #-1140850688	; 0xbc000000
    12d8:	5c3a6400 	cfldrspl	mvf6, [sl], #-0
    12dc:	676f7270 			; <UNDEFINED> instruction: 0x676f7270
    12e0:	206d6172 	rsbcs	r6, sp, r2, ror r1
    12e4:	656c6966 	strbvs	r6, [ip, #-2406]!	; 0xfffff69a
    12e8:	63675c73 	cmnvs	r7, #29440	; 0x7300
    12ec:	72612d63 	rsbvc	r2, r1, #6336	; 0x18c0
    12f0:	6f6e2d6d 	svcvs	0x006e2d6d
    12f4:	652d656e 	strvs	r6, [sp, #-1390]!	; 0xfffffa92
    12f8:	2d696261 	sfmcs	f6, 2, [r9, #-388]!	; 0xfffffe7c
    12fc:	332e3031 			; <UNDEFINED> instruction: 0x332e3031
    1300:	3230322d 	eorscc	r3, r0, #-805306366	; 0xd0000002
    1304:	30312e31 	eorscc	r2, r1, r1, lsr lr
    1308:	6d72615c 	ldfvse	f6, [r2, #-368]!	; 0xfffffe90
    130c:	6e6f6e2d 	cdpvs	14, 6, cr6, cr15, cr13, {1}
    1310:	61652d65 	cmnvs	r5, r5, ror #26
    1314:	695c6962 	ldmdbvs	ip, {r1, r5, r6, r8, fp, sp, lr}^
    1318:	756c636e 	strbvc	r6, [ip, #-878]!	; 0xfffffc92
    131c:	6d5c6564 	cfldr64vs	mvdx6, [ip, #-400]	; 0xfffffe70
    1320:	69686361 	stmdbvs	r8!, {r0, r5, r6, r8, r9, sp, lr}^
    1324:	6400656e 	strvs	r6, [r0], #-1390	; 0xfffffa92
    1328:	72705c3a 	rsbsvc	r5, r0, #14848	; 0x3a00
    132c:	6172676f 	cmnvs	r2, pc, ror #14
    1330:	6966206d 	stmdbvs	r6!, {r0, r2, r3, r5, r6, sp}^
    1334:	5c73656c 	cfldr64pl	mvdx6, [r3], #-432	; 0xfffffe50
    1338:	2d636367 	stclcs	3, cr6, [r3, #-412]!	; 0xfffffe64
    133c:	2d6d7261 	sfmcs	f7, 2, [sp, #-388]!	; 0xfffffe7c
    1340:	656e6f6e 	strbvs	r6, [lr, #-3950]!	; 0xfffff092
    1344:	6261652d 	rsbvs	r6, r1, #188743680	; 0xb400000
    1348:	30312d69 	eorscc	r2, r1, r9, ror #26
    134c:	322d332e 	eorcc	r3, sp, #-1207959552	; 0xb8000000
    1350:	2e313230 	mrccs	2, 1, r3, cr1, cr0, {1}
    1354:	615c3031 	cmpvs	ip, r1, lsr r0
    1358:	6e2d6d72 	mcrvs	13, 1, r6, cr13, cr2, {3}
    135c:	2d656e6f 	stclcs	14, cr6, [r5, #-444]!	; 0xfffffe44
    1360:	69626165 	stmdbvs	r2!, {r0, r2, r5, r6, r8, sp, lr}^
    1364:	636e695c 	cmnvs	lr, #92, 18	; 0x170000
    1368:	6564756c 	strbvs	r7, [r4, #-1388]!	; 0xfffffa94
    136c:	7379735c 	cmnvc	r9, #92, 6	; 0x70000001
    1370:	69724400 	ldmdbvs	r2!, {sl, lr}^
    1374:	73726576 	cmnvc	r2, #494927872	; 0x1d800000
    1378:	534d432f 	movtpl	r4, #54063	; 0xd32f
    137c:	442f5349 	strtmi	r5, [pc], #-841	; 1384 <_Min_Stack_Size+0xf84>
    1380:	63697665 	cmnvs	r9, #105906176	; 0x6500000
    1384:	54532f65 	ldrbpl	r2, [r3], #-3941	; 0xfffff09b
    1388:	4d54532f 	ldclmi	3, cr5, [r4, #-188]	; 0xffffff44
    138c:	34473233 	strbcc	r3, [r7], #-563	; 0xfffffdcd
    1390:	492f7878 	stmdbmi	pc!, {r3, r4, r5, r6, fp, ip, sp, lr}	; <UNPREDICTABLE>
    1394:	756c636e 	strbvc	r6, [ip, #-878]!	; 0xfffffc92
    1398:	44006564 	strmi	r6, [r0], #-1380	; 0xfffffa9c
    139c:	65766972 	ldrbvs	r6, [r6, #-2418]!	; 0xfffff68e
    13a0:	532f7372 			; <UNDEFINED> instruction: 0x532f7372
    13a4:	32334d54 	eorscc	r4, r3, #84, 26	; 0x1500
    13a8:	78783447 	ldmdavc	r8!, {r0, r1, r2, r6, sl, ip, sp}^
    13ac:	4c41485f 	mcrrmi	8, 5, r4, r1, cr15
    13b0:	6972445f 	ldmdbvs	r2!, {r0, r1, r2, r3, r4, r6, sl, lr}^
    13b4:	2f726576 	svccs	0x00726576
    13b8:	00636e49 	rsbeq	r6, r3, r9, asr #28
    13bc:	6d747300 	ldclvs	3, cr7, [r4, #-0]
    13c0:	34673233 	strbtcc	r3, [r7], #-563	; 0xfffffdcd
    13c4:	685f7878 	ldmdavs	pc, {r3, r4, r5, r6, fp, ip, sp, lr}^	; <UNPREDICTABLE>
    13c8:	725f6c61 	subsvc	r6, pc, #24832	; 0x6100
    13cc:	632e6363 			; <UNDEFINED> instruction: 0x632e6363
    13d0:	00000100 	andeq	r0, r0, r0, lsl #2
    13d4:	6665645f 			; <UNDEFINED> instruction: 0x6665645f
    13d8:	746c7561 	strbtvc	r7, [ip], #-1377	; 0xfffffa9f
    13dc:	7079745f 	rsbsvc	r7, r9, pc, asr r4
    13e0:	682e7365 	stmdavs	lr!, {r0, r2, r5, r6, r8, r9, ip, sp, lr}
    13e4:	00000200 	andeq	r0, r0, r0, lsl #4
    13e8:	6474735f 	ldrbtvs	r7, [r4], #-863	; 0xfffffca1
    13ec:	2e746e69 	cdpcs	14, 7, cr6, cr4, cr9, {3}
    13f0:	00030068 	andeq	r0, r3, r8, rrx
    13f4:	73797300 	cmnvc	r9, #0, 6
    13f8:	5f6d6574 	svcpl	0x006d6574
    13fc:	336d7473 	cmncc	sp, #1929379840	; 0x73000000
    1400:	78346732 	ldmdavc	r4!, {r1, r4, r5, r8, r9, sl, sp, lr}
    1404:	00682e78 	rsbeq	r2, r8, r8, ror lr
    1408:	73000004 	movwvc	r0, #4
    140c:	32336d74 	eorscc	r6, r3, #116, 26	; 0x1d00
    1410:	33373467 	teqcc	r7, #1728053248	; 0x67000000
    1414:	682e7878 	stmdavs	lr!, {r3, r4, r5, r6, fp, ip, sp, lr}
    1418:	00000400 	andeq	r0, r0, r0, lsl #8
    141c:	336d7473 	cmncc	sp, #1929379840	; 0x73000000
    1420:	78346732 	ldmdavc	r4!, {r1, r4, r5, r8, r9, sl, sp, lr}
    1424:	00682e78 	rsbeq	r2, r8, r8, ror lr
    1428:	73000004 	movwvc	r0, #4
    142c:	32336d74 	eorscc	r6, r3, #116, 26	; 0x1d00
    1430:	78783467 	ldmdavc	r8!, {r0, r1, r2, r5, r6, sl, ip, sp}^
    1434:	6c61685f 	stclvs	8, cr6, [r1], #-380	; 0xfffffe84
    1438:	6665645f 			; <UNDEFINED> instruction: 0x6665645f
    143c:	0500682e 	streq	r6, [r0, #-2094]	; 0xfffff7d2
    1440:	74730000 	ldrbtvc	r0, [r3], #-0
    1444:	6732336d 	ldrvs	r3, [r2, -sp, ror #6]!
    1448:	5f787834 	svcpl	0x00787834
    144c:	5f6c6168 	svcpl	0x006c6168
    1450:	2e636372 	mcrcs	3, 3, r6, cr3, cr2, {3}
    1454:	00050068 	andeq	r0, r5, r8, rrx
    1458:	6d747300 	ldclvs	3, cr7, [r4, #-0]
    145c:	34673233 	strbtcc	r3, [r7], #-563	; 0xfffffdcd
    1460:	685f7878 	ldmdavs	pc, {r3, r4, r5, r6, fp, ip, sp, lr}^	; <UNPREDICTABLE>
    1464:	675f6c61 	ldrbvs	r6, [pc, -r1, ror #24]
    1468:	2e6f6970 			; <UNDEFINED> instruction: 0x2e6f6970
    146c:	00050068 	andeq	r0, r5, r8, rrx
    1470:	6d747300 	ldclvs	3, cr7, [r4, #-0]
    1474:	34673233 	strbtcc	r3, [r7], #-563	; 0xfffffdcd
    1478:	685f7878 	ldmdavs	pc, {r3, r4, r5, r6, fp, ip, sp, lr}^	; <UNPREDICTABLE>
    147c:	682e6c61 	stmdavs	lr!, {r0, r5, r6, sl, fp, sp, lr}
    1480:	00000500 	andeq	r0, r0, r0, lsl #10
    1484:	00010500 	andeq	r0, r1, r0, lsl #10
    1488:	049c0205 	ldreq	r0, [ip], #517	; 0x205
    148c:	d0030800 	andle	r0, r3, r0, lsl #16
    1490:	0305010a 	movweq	r0, #20746	; 0x510a
    1494:	05171313 	ldreq	r1, [r7, #-787]	; 0xfffffced
    1498:	0501060f 	streq	r0, [r1, #-1551]	; 0xfffff9f1
    149c:	03052e0d 	movweq	r2, #24077	; 0x5e0d
    14a0:	0b052f06 	bleq	14d0c0 <_Min_Stack_Size+0x14ccc0>
    14a4:	34050106 	strcc	r0, [r5], #-262	; 0xfffffefa
    14a8:	2e080520 	cfsh32cs	mvfx0, mvfx8, #16
    14ac:	22060305 	andcs	r0, r6, #335544320	; 0x14000000
    14b0:	05360505 	ldreq	r0, [r6, #-1285]!	; 0xfffffafb
    14b4:	05010619 	streq	r0, [r1, #-1561]	; 0xfffff9e7
    14b8:	05203c24 	streq	r3, [r0, #-3108]!	; 0xfffff3dc
    14bc:	0c05204d 	stceq	0, cr2, [r5], {77}	; 0x4d
    14c0:	0605052e 	streq	r0, [r5], -lr, lsr #10
    14c4:	1503052f 	strne	r0, [r3, #-1327]	; 0xfffffad1
    14c8:	01060c05 	tsteq	r6, r5, lsl #24
    14cc:	052e3505 	streq	r3, [lr, #-1285]!	; 0xfffffafb
    14d0:	08052e4e 	stmdaeq	r5, {r1, r2, r3, r6, r9, sl, fp, sp}
    14d4:	06030520 	streq	r0, [r3], -r0, lsr #10
    14d8:	01051421 	tsteq	r5, r1, lsr #8
    14dc:	052e1306 	streq	r1, [lr, #-774]!	; 0xfffffcfa
    14e0:	73030605 	movwvc	r0, #13829	; 0x3605
    14e4:	06190520 	ldreq	r0, [r9], -r0, lsr #10
    14e8:	3c240501 	cfstr32cc	mvfx0, [r4], #-4
    14ec:	204d0520 	subcs	r0, sp, r0, lsr #10
    14f0:	052e0c05 	streq	r0, [lr, #-3077]!	; 0xfffff3fb
    14f4:	022f0605 	eoreq	r0, pc, #5242880	; 0x500000
    14f8:	01010007 	tsteq	r1, r7
    14fc:	05000105 	streq	r0, [r0, #-261]	; 0xfffffefb
    1500:	00000002 	andeq	r0, r0, r2
    1504:	01db0300 	bicseq	r0, fp, r0, lsl #6
    1508:	21030501 	tstcs	r3, r1, lsl #10
    150c:	060f0515 			; <UNDEFINED> instruction: 0x060f0515
    1510:	06030501 	streq	r0, [r3], -r1, lsl #10
    1514:	09055b3f 	stmdbeq	r5, {r0, r1, r2, r3, r4, r5, r8, r9, fp, ip, lr}
    1518:	060a0501 	streq	r0, [sl], -r1, lsl #10
    151c:	2e090501 	cfsh32cs	mvfx0, mvfx9, #1
    1520:	3e060505 	cfsh32cc	mvfx0, mvfx6, #5
    1524:	01060a05 	tsteq	r6, r5, lsl #20
    1528:	052e1805 	streq	r1, [lr, #-2053]!	; 0xfffff7fb
    152c:	0e052008 	cdpeq	0, 0, cr2, cr5, cr8, {0}
    1530:	03010530 	movweq	r0, #5424	; 0x1530
    1534:	0305203e 	movweq	r2, #20542	; 0x503e
    1538:	2e470306 	cdpcs	3, 4, cr0, cr7, cr6, {0}
    153c:	060f055b 			; <UNDEFINED> instruction: 0x060f055b
    1540:	06030501 	streq	r0, [r3], -r1, lsl #10
    1544:	060d053f 			; <UNDEFINED> instruction: 0x060d053f
    1548:	06030501 	streq	r0, [r3], -r1, lsl #10
    154c:	01090531 	tsteq	r9, r1, lsr r5
    1550:	01060a05 	tsteq	r6, r5, lsl #20
    1554:	054a0905 	strbeq	r0, [sl, #-2309]	; 0xfffff6fb
    1558:	05300605 	ldreq	r0, [r0, #-1541]!	; 0xfffff9fb
    155c:	0501060a 	streq	r0, [r1, #-1546]	; 0xfffff9f6
    1560:	08052e18 	stmdaeq	r5, {r3, r4, r9, sl, fp, sp}
    1564:	4c0e0520 	cfstr32mi	mvfx0, [lr], {32}
    1568:	06030520 	streq	r0, [r3], -r0, lsr #10
    156c:	06130525 	ldreq	r0, [r3], -r5, lsr #10
    1570:	06030501 	streq	r0, [r3], -r1, lsl #10
    1574:	0607053f 			; <UNDEFINED> instruction: 0x0607053f
    1578:	4a060501 	bmi	182984 <_Min_Stack_Size+0x182584>
    157c:	220c0520 	andcs	r0, ip, #32, 10	; 0x8000000
    1580:	32060305 	andcc	r0, r6, #335544320	; 0x14000000
    1584:	01060b05 	tsteq	r6, r5, lsl #22
    1588:	4d060305 	stcmi	3, cr0, [r6, #-20]	; 0xffffffec
    158c:	01060b05 	tsteq	r6, r5, lsl #22
    1590:	23060305 	movwcs	r0, #25349	; 0x6305
    1594:	01060f05 	tsteq	r6, r5, lsl #30
    1598:	3f060305 	svccc	0x00060305
    159c:	05010905 	streq	r0, [r1, #-2309]	; 0xfffff6fb
    15a0:	0501060a 	streq	r0, [r1, #-1546]	; 0xfffff9f6
    15a4:	05052e09 	streq	r2, [r5, #-3593]	; 0xfffff1f7
    15a8:	0a053e06 	beq	150dc8 <_Min_Stack_Size+0x1509c8>
    15ac:	18050106 	stmdane	r5, {r1, r2, r8}
    15b0:	2008052e 	andcs	r0, r8, lr, lsr #10
    15b4:	05300e05 	ldreq	r0, [r0, #-3589]!	; 0xfffff1fb
    15b8:	05330603 	ldreq	r0, [r3, #-1539]!	; 0xfffff9fd
    15bc:	05010610 	streq	r0, [r1, #-1552]	; 0xfffff9f0
    15c0:	314d0603 	cmpcc	sp, r3, lsl #12
    15c4:	0a05683f 	beq	15b6c8 <_Min_Stack_Size+0x15b2c8>
    15c8:	09020106 	stmdbeq	r2, {r1, r2, r8}
    15cc:	05010100 	streq	r0, [r1, #-256]	; 0xffffff00
    15d0:	02050001 	andeq	r0, r5, #1
    15d4:	080004f4 	stmdaeq	r0, {r2, r4, r5, r6, r7, sl}
    15d8:	0102b803 	tsteq	r2, r3, lsl #16
    15dc:	13130305 	tstne	r3, #335544320	; 0x14000000
    15e0:	06051513 			; <UNDEFINED> instruction: 0x06051513
    15e4:	01050106 	tsteq	r5, r6, lsl #2
    15e8:	053c7a03 	ldreq	r7, [ip, #-2563]!	; 0xfffff5fd
    15ec:	0c030603 	stceq	6, cr0, [r3], {3}
    15f0:	1a05153c 	bne	146ae8 <_Min_Stack_Size+0x1466e8>
    15f4:	06050106 	streq	r0, [r5], -r6, lsl #2
    15f8:	06050520 	streq	r0, [r5], -r0, lsr #10
    15fc:	1605143f 			; <UNDEFINED> instruction: 0x1605143f
    1600:	14050106 	strne	r0, [r5], #-262	; 0xfffffefa
    1604:	0605052e 	streq	r0, [r5], -lr, lsr #10
    1608:	0615052f 	ldreq	r0, [r5], -pc, lsr #10
    160c:	20130501 	andscs	r0, r3, r1, lsl #10
    1610:	31060505 	tstcc	r6, r5, lsl #10
    1614:	01060805 	tsteq	r6, r5, lsl #16
    1618:	02005805 	andeq	r5, r0, #327680	; 0x50000
    161c:	052e0304 	streq	r0, [lr, #-772]!	; 0xfffffcfc
    1620:	0a030607 	beq	c2e44 <_Min_Stack_Size+0xc2a44>
    1624:	2006012e 	andcs	r0, r6, lr, lsr #2
    1628:	02040200 	andeq	r0, r4, #0, 4
    162c:	02003c06 	andeq	r3, r0, #1536	; 0x600
    1630:	003c0504 	eorseq	r0, ip, r4, lsl #10
    1634:	06050402 	streq	r0, [r5], -r2, lsl #8
    1638:	0402002e 	streq	r0, [r2], #-46	; 0xffffffd2
    163c:	003c0605 	eorseq	r0, ip, r5, lsl #12
    1640:	4a070402 	bmi	1c2650 <_Min_Stack_Size+0x1c2250>
    1644:	07040200 	streq	r0, [r4, -r0, lsl #4]
    1648:	001c0515 	andseq	r0, ip, r5, lsl r5
    164c:	06070402 	streq	r0, [r7], -r2, lsl #8
    1650:	000a0501 	andeq	r0, sl, r1, lsl #10
    1654:	20070402 	andcs	r0, r7, r2, lsl #8
    1658:	31060905 	tstcc	r6, r5, lsl #18
    165c:	01061505 	tsteq	r6, r5, lsl #10
    1660:	0609052e 	streq	r0, [r9], -lr, lsr #10
    1664:	010f0523 	tsteq	pc, r3, lsr #10
    1668:	01061005 	tsteq	r6, r5
    166c:	052e0f05 	streq	r0, [lr, #-3845]!	; 0xfffff0fb
    1670:	053e060b 	ldreq	r0, [lr, #-1547]!	; 0xfffff9f5
    1674:	05010610 	streq	r0, [r1, #-1552]	; 0xfffff9f0
    1678:	0e052e1e 	mcreq	14, 0, r2, cr5, cr14, {0}
    167c:	30140520 	andscc	r0, r4, r0, lsr #10
    1680:	02002f05 	andeq	r2, r0, #5, 30
    1684:	69030104 	stmdbvs	r3, {r2, r8}
    1688:	0607052e 	streq	r0, [r7], -lr, lsr #10
    168c:	060c0530 			; <UNDEFINED> instruction: 0x060c0530
    1690:	0a052001 	beq	14969c <_Min_Stack_Size+0x14929c>
    1694:	00490520 	subeq	r0, r9, r0, lsr #10
    1698:	3c010402 	cfstrscc	mvf0, [r1], {2}
    169c:	02003405 	andeq	r3, r0, #83886080	; 0x5000000
    16a0:	05200104 	streq	r0, [r0, #-260]!	; 0xfffffefc
    16a4:	2a030603 	bcs	c2eb8 <_Min_Stack_Size+0xc2ab8>
    16a8:	061a053c 			; <UNDEFINED> instruction: 0x061a053c
    16ac:	20060501 	andcs	r0, r6, r1, lsl #10
    16b0:	3f060505 	svccc	0x00060505
    16b4:	16051513 			; <UNDEFINED> instruction: 0x16051513
    16b8:	14050106 	strne	r0, [r5], #-262	; 0xfffffefa
    16bc:	0605052e 	streq	r0, [r5], -lr, lsr #10
    16c0:	0615052f 	ldreq	r0, [r5], -pc, lsr #10
    16c4:	20130501 	andscs	r0, r3, r1, lsl #10
    16c8:	2f060505 	svccs	0x00060505
    16cc:	01060805 	tsteq	r6, r5, lsl #16
    16d0:	02005805 	andeq	r5, r0, #327680	; 0x50000
    16d4:	052e0304 	streq	r0, [lr, #-772]!	; 0xfffffcfc
    16d8:	17030607 	strne	r0, [r3, -r7, lsl #12]
    16dc:	061c052e 	ldreq	r0, [ip], -lr, lsr #10
    16e0:	200a0501 	andcs	r0, sl, r1, lsl #10
    16e4:	31060905 	tstcc	r6, r5, lsl #18
    16e8:	4d062006 	stcmi	0, cr2, [r6, #-24]	; 0xffffffe8
    16ec:	01061505 	tsteq	r6, r5, lsl #10
    16f0:	3f060905 	svccc	0x00060905
    16f4:	05010f05 	streq	r0, [r1, #-3845]	; 0xfffff0fb
    16f8:	05010610 	streq	r0, [r1, #-1552]	; 0xfffff9f0
    16fc:	0b052e0f 	bleq	14cf40 <_Min_Stack_Size+0x14cb40>
    1700:	10053e06 	andne	r3, r5, r6, lsl #28
    1704:	1e050106 	adfnes	f0, f5, f6
    1708:	200e052e 	andcs	r0, lr, lr, lsr #10
    170c:	05301405 	ldreq	r1, [r0, #-1029]!	; 0xfffffbfb
    1710:	04020007 	streq	r0, [r2], #-7
    1714:	b1030601 	tstlt	r3, r1, lsl #12
    1718:	02002e7f 	andeq	r2, r0, #2032	; 0x7f0
    171c:	20060104 	andcs	r0, r6, r4, lsl #2
    1720:	04040200 	streq	r0, [r4], #-512	; 0xfffffe00
    1724:	02005806 	andeq	r5, r0, #393216	; 0x60000
    1728:	58060404 	stmdapl	r6, {r2, sl}
    172c:	04040200 	streq	r0, [r4], #-512	; 0xfffffe00
    1730:	09053c06 	stmdbeq	r5, {r1, r2, sl, fp, ip, sp}
    1734:	05581403 	ldrbeq	r1, [r8, #-1027]	; 0xfffffbfd
    1738:	2e010615 	mcrcs	6, 0, r0, cr1, cr5, {0}
    173c:	23060905 	movwcs	r0, #26885	; 0x6905
    1740:	05010f05 	streq	r0, [r1, #-3845]	; 0xfffff0fb
    1744:	05010610 	streq	r0, [r1, #-1552]	; 0xfffff9f0
    1748:	0b052e0f 	bleq	14cf8c <_Min_Stack_Size+0x14cb8c>
    174c:	10053e06 	andne	r3, r5, r6, lsl #28
    1750:	1e050106 	adfnes	f0, f5, f6
    1754:	200e052e 	andcs	r0, lr, lr, lsr #10
    1758:	05301405 	ldreq	r1, [r0, #-1029]!	; 0xfffffbfb
    175c:	0402002f 	streq	r0, [r2], #-47	; 0xffffffd1
    1760:	2e100301 	cdpcs	3, 1, cr0, cr0, cr1, {0}
    1764:	31060705 	tstcc	r6, r5, lsl #14
    1768:	01060c05 	tsteq	r6, r5, lsl #24
    176c:	200a0520 	andcs	r0, sl, r0, lsr #10
    1770:	02004905 	andeq	r4, r0, #81920	; 0x14000
    1774:	053c0104 	ldreq	r0, [ip, #-260]!	; 0xfffffefc
    1778:	04020034 	streq	r0, [r2], #-52	; 0xffffffcc
    177c:	09052001 	stmdbeq	r5, {r0, sp}
    1780:	20064406 	andcs	r4, r6, r6, lsl #8
    1784:	0d057706 	stceq	7, cr7, [r5, #-24]	; 0xffffffe8
    1788:	0c050106 	stfeqs	f0, [r5], {6}
    178c:	0603054a 	streq	r0, [r3], -sl, asr #10
    1790:	053c3103 	ldreq	r3, [ip, #-259]!	; 0xfffffefd
    1794:	0501061a 	streq	r0, [r1, #-1562]	; 0xfffff9e6
    1798:	05052006 	streq	r2, [r5, #-6]
    179c:	05153f06 	ldreq	r3, [r5, #-3846]	; 0xfffff0fa
    17a0:	05010619 	streq	r0, [r1, #-1561]	; 0xfffff9e7
    17a4:	23062007 	movwcs	r2, #24583	; 0x6007
    17a8:	06130577 			; <UNDEFINED> instruction: 0x06130577
    17ac:	06070501 	streq	r0, [r7], -r1, lsl #10
    17b0:	010d053f 	tsteq	sp, pc, lsr r5
    17b4:	01060e05 	tsteq	r6, r5, lsl #28
    17b8:	053c0d05 	ldreq	r0, [ip, #-3333]!	; 0xfffff2fb
    17bc:	053e0609 	ldreq	r0, [lr, #-1545]!	; 0xfffff9f7
    17c0:	0501060e 	streq	r0, [r1, #-1550]	; 0xfffff9f2
    17c4:	0c052e1c 	stceq	14, cr2, [r5], {28}
    17c8:	30120520 	andscc	r0, r2, r0, lsr #10
    17cc:	03060905 	movweq	r0, #26885	; 0x6905
    17d0:	06952e57 			; <UNDEFINED> instruction: 0x06952e57
    17d4:	054d0620 	strbeq	r0, [sp, #-1568]	; 0xfffff9e0
    17d8:	05010615 	streq	r0, [r1, #-1557]	; 0xfffff9eb
    17dc:	053f0609 	ldreq	r0, [pc, #-1545]!	; 11db <_Min_Stack_Size+0xddb>
    17e0:	1005010f 	andne	r0, r5, pc, lsl #2
    17e4:	0f050106 	svceq	0x00050106
    17e8:	060b052e 	streq	r0, [fp], -lr, lsr #10
    17ec:	0610053e 			; <UNDEFINED> instruction: 0x0610053e
    17f0:	2e1e0501 	cfmul32cs	mvfx0, mvfx14, mvfx1
    17f4:	05200e05 	streq	r0, [r0, #-3589]!	; 0xfffff1fb
    17f8:	07053014 	smladeq	r5, r4, r0, r3
    17fc:	2e210306 	cdpcs	3, 2, cr0, cr1, cr6, {0}
    1800:	06130577 			; <UNDEFINED> instruction: 0x06130577
    1804:	06070501 	streq	r0, [r7], -r1, lsl #10
    1808:	010c053f 	tsteq	ip, pc, lsr r5
    180c:	01060d05 	tsteq	r6, r5, lsl #26
    1810:	053c0c05 	ldreq	r0, [ip, #-3077]!	; 0xfffff3fb
    1814:	053e0609 	ldreq	r0, [lr, #-1545]!	; 0xfffff9f7
    1818:	0501060d 	streq	r0, [r1, #-1549]	; 0xfffff9f3
    181c:	0b052e1b 	bleq	14d090 <_Min_Stack_Size+0x14cc90>
    1820:	30120520 	andscc	r0, r2, r0, lsr #10
    1824:	34060305 	strcc	r0, [r6], #-773	; 0xfffffcfb
    1828:	01061a05 	tsteq	r6, r5, lsl #20
    182c:	05200605 	streq	r0, [r0, #-1541]!	; 0xfffff9fb
    1830:	154c0605 	strbne	r0, [ip, #-1541]	; 0xfffff9fb
    1834:	06090516 			; <UNDEFINED> instruction: 0x06090516
    1838:	2e290501 	cfsh64cs	mvdx0, mvdx9, #1
    183c:	3e060705 	cdpcc	7, 0, cr0, cr6, cr5, {0}
    1840:	4a580101 	bmi	1601c4c <_Min_Stack_Size+0x160184c>
    1844:	15051320 	strne	r1, [r5, #-800]	; 0xfffffce0
    1848:	05050106 	streq	r0, [r5, #-262]	; 0xfffffefa
    184c:	09052306 	stmdbeq	r5, {r1, r2, r8, r9, sp}
    1850:	08050106 	stmdaeq	r5, {r1, r2, r8}
    1854:	0605052e 	streq	r0, [r5], -lr, lsr #10
    1858:	013c1203 	teqeq	ip, r3, lsl #4
    185c:	02040200 	andeq	r0, r4, #0, 4
    1860:	0402003c 	streq	r0, [r2], #-60	; 0xffffffc4
    1864:	02002e05 	andeq	r2, r0, #5, 28	; 0x50
    1868:	00740504 	rsbseq	r0, r4, r4, lsl #10
    186c:	66070402 	strvs	r0, [r7], -r2, lsl #8
    1870:	07040200 	streq	r0, [r4, -r0, lsl #4]
    1874:	001a0515 	andseq	r0, sl, r5, lsl r5
    1878:	06070402 	streq	r0, [r7], -r2, lsl #8
    187c:	00080501 	andeq	r0, r8, r1, lsl #10
    1880:	20070402 	andcs	r0, r7, r2, lsl #8
    1884:	31060705 	tstcc	r6, r5, lsl #14
    1888:	01061305 	tsteq	r6, r5, lsl #6
    188c:	3f060705 	svccc	0x00060705
    1890:	05010d05 	streq	r0, [r1, #-3333]	; 0xfffff2fb
    1894:	0501060e 	streq	r0, [r1, #-1550]	; 0xfffff9f2
    1898:	09053c0d 	stmdbeq	r5, {r0, r2, r3, sl, fp, ip, sp}
    189c:	0d053e06 	stceq	14, cr3, [r5, #-24]	; 0xffffffe8
    18a0:	1b050106 	blne	141cc0 <_Min_Stack_Size+0x1418c0>
    18a4:	200b052e 	andcs	r0, fp, lr, lsr #10
    18a8:	054c1205 	strbeq	r1, [ip, #-517]	; 0xfffffdfb
    18ac:	2e540316 	mrccs	3, 2, r0, cr4, cr6, {0}
    18b0:	03060705 	movweq	r0, #26373	; 0x6705
    18b4:	055b2e10 	ldrbeq	r2, [fp, #-3600]	; 0xfffff1f0
    18b8:	05010613 	streq	r0, [r1, #-1555]	; 0xfffff9ed
    18bc:	053e0607 	ldreq	r0, [lr, #-1543]!	; 0xfffff9f9
    18c0:	0e05010d 	adfeqs	f0, f5, #5.0
    18c4:	0d050106 	stfeqs	f0, [r5, #-24]	; 0xffffffe8
    18c8:	0609052e 	streq	r0, [r9], -lr, lsr #10
    18cc:	060e053e 			; <UNDEFINED> instruction: 0x060e053e
    18d0:	2e1c0501 	cfmul32cs	mvfx0, mvfx12, mvfx1
    18d4:	05200c05 	streq	r0, [r0, #-3077]!	; 0xfffff3fb
    18d8:	05053012 	streq	r3, [r5, #-18]	; 0xffffffee
    18dc:	01040200 	mrseq	r0, R12_usr
    18e0:	02003406 	andeq	r3, r0, #100663296	; 0x6000000
    18e4:	00d60404 	sbcseq	r0, r6, r4, lsl #8
    18e8:	74040402 	strvc	r0, [r4], #-1026	; 0xfffffbfe
    18ec:	14030705 	strne	r0, [r3], #-1797	; 0xfffff8fb
    18f0:	06130574 			; <UNDEFINED> instruction: 0x06130574
    18f4:	06070501 	streq	r0, [r7], -r1, lsl #10
    18f8:	010d053f 	tsteq	sp, pc, lsr r5
    18fc:	01060e05 	tsteq	r6, r5, lsl #28
    1900:	053c0d05 	ldreq	r0, [ip, #-3333]!	; 0xfffff2fb
    1904:	053e0609 	ldreq	r0, [lr, #-1545]!	; 0xfffff9f7
    1908:	0501060d 	streq	r0, [r1, #-1549]	; 0xfffff9f3
    190c:	0b052e1b 	bleq	14d180 <_Min_Stack_Size+0x14cd80>
    1910:	4c120520 	cfldr32mi	mvfx0, [r2], {32}
    1914:	34060505 	strcc	r0, [r6], #-1285	; 0xfffffafb
    1918:	01060805 	tsteq	r6, r5, lsl #16
    191c:	06030520 	streq	r0, [r3], -r0, lsr #10
    1920:	06190519 			; <UNDEFINED> instruction: 0x06190519
    1924:	20050501 	andcs	r0, r5, r1, lsl #10
    1928:	05153f06 	ldreq	r3, [r5, #-3846]	; 0xfffff0fa
    192c:	05010619 	streq	r0, [r1, #-1561]	; 0xfffff9e7
    1930:	23062007 	movwcs	r2, #24583	; 0x6007
    1934:	06130577 			; <UNDEFINED> instruction: 0x06130577
    1938:	06070501 	streq	r0, [r7], -r1, lsl #10
    193c:	010c053f 	tsteq	ip, pc, lsr r5
    1940:	01060d05 	tsteq	r6, r5, lsl #26
    1944:	053c0c05 	ldreq	r0, [ip, #-3077]!	; 0xfffff3fb
    1948:	053e0609 	ldreq	r0, [lr, #-1545]!	; 0xfffff9f7
    194c:	0501060d 	streq	r0, [r1, #-1549]	; 0xfffff9f3
    1950:	0b052e1b 	bleq	14d1c4 <_Min_Stack_Size+0x14cdc4>
    1954:	30120520 	andscc	r0, r2, r0, lsr #10
    1958:	03060705 	movweq	r0, #26373	; 0x6705
    195c:	66062e68 	strvs	r2, [r6], -r8, ror #28
    1960:	011f0306 	tsteq	pc, r6, lsl #6
    1964:	06130577 			; <UNDEFINED> instruction: 0x06130577
    1968:	06070501 	streq	r0, [r7], -r1, lsl #10
    196c:	010c053f 	tsteq	ip, pc, lsr r5
    1970:	01060d05 	tsteq	r6, r5, lsl #26
    1974:	053c0c05 	ldreq	r0, [ip, #-3077]!	; 0xfffff3fb
    1978:	053e0609 	ldreq	r0, [lr, #-1545]!	; 0xfffff9f7
    197c:	0501060d 	streq	r0, [r1, #-1549]	; 0xfffff9f3
    1980:	0b052e1b 	bleq	14d1f4 <_Min_Stack_Size+0x14cdf4>
    1984:	30120520 	andscc	r0, r2, r0, lsr #10
    1988:	36060305 	strcc	r0, [r6], -r5, lsl #6
    198c:	061d0514 			; <UNDEFINED> instruction: 0x061d0514
    1990:	20060501 	andcs	r0, r6, r1, lsl #10
    1994:	3f060505 	svccc	0x00060505
    1998:	01060905 	tsteq	r6, r5, lsl #18
    199c:	054a0805 	strbeq	r0, [sl, #-2053]	; 0xfffff7fb
    19a0:	05300607 	ldreq	r0, [r0, #-1543]!	; 0xfffff9f9
    19a4:	0501060a 	streq	r0, [r1, #-1546]	; 0xfffff9f6
    19a8:	36030609 	strcc	r0, [r3], -r9, lsl #12
    19ac:	5b0b052e 	blpl	2c2e6c <_Min_Stack_Size+0x2c2a6c>
    19b0:	694b0905 	stmdbvs	fp, {r0, r2, r8, fp}^
    19b4:	01061505 	tsteq	r6, r5, lsl #10
    19b8:	3f060905 	svccc	0x00060905
    19bc:	05010f05 	streq	r0, [r1, #-3845]	; 0xfffff0fb
    19c0:	05010610 	streq	r0, [r1, #-1552]	; 0xfffff9f0
    19c4:	0b052e0f 	bleq	14d208 <_Min_Stack_Size+0x14ce08>
    19c8:	10053e06 	andne	r3, r5, r6, lsl #28
    19cc:	1e050106 	adfnes	f0, f5, f6
    19d0:	200e052e 	andcs	r0, lr, lr, lsr #10
    19d4:	05301405 	ldreq	r1, [r0, #-1029]!	; 0xfffffbfb
    19d8:	bf030609 	svclt	0x00030609
    19dc:	13132e7f 	tstne	r3, #2032	; 0x7f0
    19e0:	15131313 	ldrne	r1, [r3, #-787]	; 0xfffffced
    19e4:	0615055b 			; <UNDEFINED> instruction: 0x0615055b
    19e8:	06090501 	streq	r0, [r9], -r1, lsl #10
    19ec:	010f053f 	tsteq	pc, pc, lsr r5	; <UNPREDICTABLE>
    19f0:	01061005 	tsteq	r6, r5
    19f4:	052e0f05 	streq	r0, [lr, #-3845]!	; 0xfffff0fb
    19f8:	053e060b 	ldreq	r0, [lr, #-1547]!	; 0xfffff9f5
    19fc:	05010610 	streq	r0, [r1, #-1552]	; 0xfffff9f0
    1a00:	0e052e1e 	mcreq	14, 0, r2, cr5, cr14, {0}
    1a04:	30140520 	andscc	r0, r4, r0, lsr #10
    1a08:	33060905 	movwcc	r0, #26885	; 0x6905
    1a0c:	0a05a608 	beq	16b234 <_Min_Stack_Size+0x16ae34>
    1a10:	4d09054d 	cfstr32mi	mvfx0, [r9, #-308]	; 0xfffffecc
    1a14:	01061505 	tsteq	r6, r5, lsl #10
    1a18:	3f060905 	svccc	0x00060905
    1a1c:	05010f05 	streq	r0, [r1, #-3845]	; 0xfffff0fb
    1a20:	05010610 	streq	r0, [r1, #-1552]	; 0xfffff9f0
    1a24:	0b052e0f 	bleq	14d268 <_Min_Stack_Size+0x14ce68>
    1a28:	10053e06 	andne	r3, r5, r6, lsl #28
    1a2c:	1e050106 	adfnes	f0, f5, f6
    1a30:	200e052e 	andcs	r0, lr, lr, lsr #10
    1a34:	05301405 	ldreq	r1, [r0, #-1029]!	; 0xfffffbfb
    1a38:	2e32030a 	cdpcs	3, 3, cr0, cr2, cr10, {0}
    1a3c:	0607052e 	streq	r0, [r7], -lr, lsr #10
    1a40:	052e6b03 	streq	r6, [lr, #-2819]!	; 0xfffff4fd
    1a44:	05010609 	streq	r0, [r1, #-1545]	; 0xfffff9f7
    1a48:	05350607 	ldreq	r0, [r5, #-1543]!	; 0xfffff9f9
    1a4c:	05010615 	streq	r0, [r1, #-1557]	; 0xfffff9eb
    1a50:	052f0607 	streq	r0, [pc, #-1543]!	; 1451 <_Min_Stack_Size+0x1051>
    1a54:	0501060b 	streq	r0, [r1, #-1547]	; 0xfffff9f5
    1a58:	09052e50 	stmdbeq	r5, {r4, r6, r9, sl, fp, sp}
    1a5c:	000b0520 	andeq	r0, fp, r0, lsr #10
    1a60:	2f010402 	svccs	0x00010402
    1a64:	02005105 	andeq	r5, r0, #1073741825	; 0x40000001
    1a68:	052e0104 	streq	r0, [lr, #-260]!	; 0xfffffefc
    1a6c:	04020058 	streq	r0, [r2], #-88	; 0xffffffa8
    1a70:	5c052001 	stcpl	0, cr2, [r5], {1}
    1a74:	01040200 	mrseq	r0, R12_usr
    1a78:	3e0b051f 	mcrcc	5, 0, r0, cr11, cr15, {0}
    1a7c:	052e5005 	streq	r5, [lr, #-5]!
    1a80:	0b051f78 	bleq	149868 <_Min_Stack_Size+0x149468>
    1a84:	2e53053e 	mrccs	5, 2, r0, cr3, cr14, {1}
    1a88:	051f7105 	ldreq	r7, [pc, #-261]	; 198b <_Min_Stack_Size+0x158b>
    1a8c:	52053e0b 	andpl	r3, r5, #11, 28	; 0xb0
    1a90:	2059052e 	subscs	r0, r9, lr, lsr #10
    1a94:	05206005 	streq	r6, [r0, #-5]!
    1a98:	0b051f77 	bleq	14987c <_Min_Stack_Size+0x14947c>
    1a9c:	2e52053e 	mrccs	5, 2, r0, cr2, cr14, {1}
    1aa0:	05205905 	streq	r5, [r0, #-2309]!	; 0xfffff6fb
    1aa4:	80052060 	andhi	r2, r5, r0, rrx
    1aa8:	0a051f01 	beq	1496b4 <_Min_Stack_Size+0x1492b4>
    1aac:	053c0903 	ldreq	r0, [ip, #-2307]!	; 0xfffff6fd
    1ab0:	7cf5030c 	ldclvc	3, cr0, [r5], #48	; 0x30
    1ab4:	0301052e 	movweq	r0, #5422	; 0x152e
    1ab8:	0520038c 	streq	r0, [r0, #-908]!	; 0xfffffc74
    1abc:	7d880310 	stcvc	3, cr0, [r8, #64]	; 0x40
    1ac0:	36032020 	strcc	r2, [r3], -r0, lsr #32
    1ac4:	03120520 	tsteq	r2, #32, 10	; 0x8000000
    1ac8:	0a052e0b 	beq	14d2fc <_Min_Stack_Size+0x14cefc>
    1acc:	2e02b603 	cfmadd32cs	mvax0, mvfx11, mvfx2, mvfx3
    1ad0:	05210105 	streq	r0, [r1, #-261]!	; 0xfffffefb
    1ad4:	2e6c0310 	mcrcs	3, 3, r0, cr12, cr0, {0}
    1ad8:	9e2e0d03 	cdpls	13, 2, cr0, cr14, cr3, {0}
    1adc:	01000602 	tsteq	r0, r2, lsl #12
    1ae0:	00010501 	andeq	r0, r1, r1, lsl #10
    1ae4:	00000205 	andeq	r0, r0, r5, lsl #4
    1ae8:	e3030000 	movw	r0, #12288	; 0x3000
    1aec:	01060107 	tsteq	r6, r7, lsl #2
    1af0:	4b060305 	blmi	18270c <_Min_Stack_Size+0x18230c>
    1af4:	15131313 	ldrne	r1, [r3, #-787]	; 0xfffffced
    1af8:	061d0515 			; <UNDEFINED> instruction: 0x061d0515
    1afc:	06030501 	streq	r0, [r3], -r1, lsl #10
    1b00:	061d052f 	ldreq	r0, [sp], -pc, lsr #10
    1b04:	06030501 	streq	r0, [r3], -r1, lsl #10
    1b08:	061d052f 	ldreq	r0, [sp], -pc, lsr #10
    1b0c:	06030501 	streq	r0, [r3], -r1, lsl #10
    1b10:	060c0531 			; <UNDEFINED> instruction: 0x060c0531
    1b14:	06030501 	streq	r0, [r3], -r1, lsl #10
    1b18:	06240531 			; <UNDEFINED> instruction: 0x06240531
    1b1c:	06030501 	streq	r0, [r3], -r1, lsl #10
    1b20:	2006134d 	andcs	r1, r6, sp, asr #6
    1b24:	054d062e 	strbeq	r0, [sp, #-1582]	; 0xfffff9d2
    1b28:	05010619 	streq	r0, [r1, #-1561]	; 0xfffff9e7
    1b2c:	03052017 	movweq	r2, #20503	; 0x5017
    1b30:	1f052106 	svcne	0x00052106
    1b34:	1d050106 	stfnes	f0, [r5, #-24]	; 0xffffffe8
    1b38:	0603052e 	streq	r0, [r3], -lr, lsr #10
    1b3c:	053c0621 	ldreq	r0, [ip, #-1569]!	; 0xfffff9df
    1b40:	05300604 	ldreq	r0, [r0, #-1540]!	; 0xfffff9fc
    1b44:	05010607 	streq	r0, [r1, #-1543]	; 0xfffff9f9
    1b48:	13220605 			; <UNDEFINED> instruction: 0x13220605
    1b4c:	05580614 	ldrbeq	r0, [r8, #-1556]	; 0xfffff9ec
    1b50:	022e3001 	eoreq	r3, lr, #1
    1b54:	01010003 	tsteq	r1, r3
    1b58:	05000105 	streq	r0, [r0, #-261]	; 0xfffffefb
    1b5c:	0009dc02 	andeq	sp, r9, r2, lsl #24
    1b60:	08a80308 	stmiaeq	r8!, {r3, r8, r9}
    1b64:	13030501 	movwne	r0, #13569	; 0x3501
    1b68:	07051413 	smladeq	r5, r3, r4, r1
    1b6c:	06050106 	streq	r0, [r5], -r6, lsl #2
    1b70:	0608054a 	streq	r0, [r8], -sl, asr #10
    1b74:	060c0533 			; <UNDEFINED> instruction: 0x060c0533
    1b78:	4a0b0501 	bmi	2c2f84 <_Min_Stack_Size+0x2c2b84>
    1b7c:	33060805 	movwcc	r0, #26629	; 0x6805
    1b80:	01060c05 	tsteq	r6, r5, lsl #24
    1b84:	054a0b05 	strbeq	r0, [sl, #-2821]	; 0xfffff4fb
    1b88:	2e1a0312 	mrccs	3, 0, r0, cr10, cr2, {0}
    1b8c:	23060305 	movwcs	r0, #25349	; 0x6305
    1b90:	13060105 	movwne	r0, #24837	; 0x6105
    1b94:	03060505 	movweq	r0, #25861	; 0x6505
    1b98:	11052069 	tstne	r5, r9, rrx
    1b9c:	0f050106 	svceq	0x00050106
    1ba0:	0605052e 	streq	r0, [r5], -lr, lsr #10
    1ba4:	060d052f 	streq	r0, [sp], -pc, lsr #10
    1ba8:	20360501 	eorscs	r0, r6, r1, lsl #10
    1bac:	052e0a05 	streq	r0, [lr, #-2565]!	; 0xfffff5fb
    1bb0:	05220605 	streq	r0, [r2, #-1541]!	; 0xfffff9fb
    1bb4:	1b053607 	blne	14f3d8 <_Min_Stack_Size+0x14efd8>
    1bb8:	26050106 	strcs	r0, [r5], -r6, lsl #2
    1bbc:	4f05203c 	svcmi	0x0005203c
    1bc0:	2e0e0520 	cfsh32cs	mvfx0, mvfx14, #16
    1bc4:	2f060705 	svccs	0x00060705
    1bc8:	05140505 	ldreq	r0, [r4, #-1285]	; 0xfffffafb
    1bcc:	0501060e 	streq	r0, [r1, #-1550]	; 0xfffff9f2
    1bd0:	50052e37 	andpl	r2, r5, r7, lsr lr
    1bd4:	200a052e 	andcs	r0, sl, lr, lsr #10
    1bd8:	21060505 	tstcs	r6, r5, lsl #10
    1bdc:	01061205 	tsteq	r6, r5, lsl #4
    1be0:	0607052e 	streq	r0, [r7], -lr, lsr #10
    1be4:	05207703 	streq	r7, [r0, #-1795]!	; 0xfffff8fd
    1be8:	0501061b 	streq	r0, [r1, #-1563]	; 0xfffff9e5
    1bec:	05203c26 	streq	r3, [r0, #-3110]!	; 0xfffff3da
    1bf0:	0e05204f 	cdpeq	0, 0, cr2, cr5, cr15, {2}
    1bf4:	0607052e 	streq	r0, [r7], -lr, lsr #10
    1bf8:	0612052f 	ldreq	r0, [r2], -pc, lsr #10
    1bfc:	33206b03 			; <UNDEFINED> instruction: 0x33206b03
    1c00:	01000802 	tsteq	r0, r2, lsl #16
    1c04:	00010501 	andeq	r0, r1, r1, lsl #10
    1c08:	0a640205 	beq	1902424 <_Min_Stack_Size+0x1902024>
    1c0c:	ff030800 			; <UNDEFINED> instruction: 0xff030800
    1c10:	03050105 	movweq	r0, #20741	; 0x5105
    1c14:	15131313 	ldrne	r1, [r3, #-787]	; 0xfffffced
    1c18:	01060605 	tsteq	r6, r5, lsl #12
    1c1c:	7a030105 	bvc	c2038 <_Min_Stack_Size+0xc1c38>
    1c20:	0603053c 			; <UNDEFINED> instruction: 0x0603053c
    1c24:	133c0c03 	teqne	ip, #768	; 0x300
    1c28:	06120519 			; <UNDEFINED> instruction: 0x06120519
    1c2c:	4a060501 	bmi	183038 <_Min_Stack_Size+0x182c38>
    1c30:	31060505 	tstcc	r6, r5, lsl #10
    1c34:	0609056a 	streq	r0, [r9], -sl, ror #10
    1c38:	3c080501 	cfstr32cc	mvfx0, [r8], {1}
    1c3c:	43060305 	movwmi	r0, #25349	; 0x6305
    1c40:	01061905 	tsteq	r6, r5, lsl #18
    1c44:	06200505 	strteq	r0, [r0], -r5, lsl #10
    1c48:	1a05153e 	bne	147148 <_Min_Stack_Size+0x146d48>
    1c4c:	08050106 	stmdaeq	r5, {r1, r2, r8}
    1c50:	06070520 	streq	r0, [r7], -r0, lsr #10
    1c54:	052e1a03 	streq	r1, [lr, #-2563]!	; 0xfffff5fd
    1c58:	0501060a 	streq	r0, [r1, #-1546]	; 0xfffff9f6
    1c5c:	0c030609 	stceq	6, cr0, [r3], {9}
    1c60:	060c052e 	streq	r0, [ip], -lr, lsr #10
    1c64:	2e0b0501 	cfsh32cs	mvfx0, mvfx11, #1
    1c68:	50060705 	andpl	r0, r6, r5, lsl #14
    1c6c:	01061105 	tsteq	r6, r5, lsl #2
    1c70:	31060705 	tstcc	r6, r5, lsl #14
    1c74:	01060905 	tsteq	r6, r5, lsl #18
    1c78:	05753e06 	ldrbeq	r3, [r5, #-3590]!	; 0xfffff1fa
    1c7c:	0501060e 	streq	r0, [r1, #-1550]	; 0xfffff9f2
    1c80:	77250605 	strvc	r0, [r5, -r5, lsl #12]!
    1c84:	01061105 	tsteq	r6, r5, lsl #2
    1c88:	0605052e 	streq	r0, [r5], -lr, lsr #10
    1c8c:	010b0522 	tsteq	fp, r2, lsr #10
    1c90:	01060c05 	tsteq	r6, r5, lsl #24
    1c94:	054a3f05 	strbeq	r3, [sl, #-3845]	; 0xfffff0fb
    1c98:	0705200b 	streq	r2, [r5, -fp]
    1c9c:	0c053e06 	stceq	14, cr3, [r5], {6}
    1ca0:	1a050106 	bne	1420c0 <_Min_Stack_Size+0x141cc0>
    1ca4:	200a052e 	andcs	r0, sl, lr, lsr #10
    1ca8:	054c1005 	strbeq	r1, [ip, #-5]
    1cac:	43030607 	movwmi	r0, #13831	; 0x3607
    1cb0:	060b052e 	streq	r0, [fp], -lr, lsr #10
    1cb4:	2e0a0501 	cfsh32cs	mvfx0, mvfx10, #1
    1cb8:	203e1005 	eorscs	r1, lr, r5
    1cbc:	24060705 	strcs	r0, [r6], #-1797	; 0xfffff8fb
    1cc0:	01061105 	tsteq	r6, r5, lsl #2
    1cc4:	31060705 	tstcc	r6, r5, lsl #14
    1cc8:	01060905 	tsteq	r6, r5, lsl #18
    1ccc:	0f053e06 	svceq	0x00053e06
    1cd0:	0c050106 	stfeqs	f0, [r5], {6}
    1cd4:	0023052e 	eoreq	r0, r3, lr, lsr #10
    1cd8:	3d010402 	cfstrscc	mvf0, [r1, #-8]
    1cdc:	02004705 	andeq	r4, r0, #1310720	; 0x140000
    1ce0:	051f0104 	ldreq	r0, [pc, #-260]	; 1be4 <_Min_Stack_Size+0x17e4>
    1ce4:	5d053e21 	stcpl	14, cr3, [r5, #-132]	; 0xffffff7c
    1ce8:	060b051f 			; <UNDEFINED> instruction: 0x060b051f
    1cec:	10057523 	andne	r7, r5, r3, lsr #10
    1cf0:	09050106 	stmdbeq	r5, {r1, r2, r8}
    1cf4:	2e0a0306 	cdpcs	3, 0, cr0, cr10, cr6, {0}
    1cf8:	01060c05 	tsteq	r6, r5, lsl #24
    1cfc:	052e0b05 	streq	r0, [lr, #-2821]!	; 0xfffff4fb
    1d00:	05203e12 	streq	r3, [r0, #-3602]!	; 0xfffff1ee
    1d04:	7fbd030c 	svcvc	0x00bd030c
    1d08:	052e2e20 	streq	r2, [lr, #-3616]!	; 0xfffff1e0
    1d0c:	ea030603 	b	c3520 <_Min_Stack_Size+0xc3120>
    1d10:	1a052e00 	bne	14d518 <_Min_Stack_Size+0x14d118>
    1d14:	06050106 	streq	r0, [r5], -r6, lsl #2
    1d18:	06050520 	streq	r0, [r5], -r0, lsr #10
    1d1c:	06080540 	streq	r0, [r8], -r0, asr #10
    1d20:	06070501 	streq	r0, [r7], -r1, lsl #10
    1d24:	5a05053e 	bpl	143224 <_Min_Stack_Size+0x142e24>
    1d28:	01061c05 	tsteq	r6, r5, lsl #24
    1d2c:	05200805 	streq	r0, [r0, #-2053]!	; 0xfffff7fb
    1d30:	053e0607 	ldreq	r0, [lr, #-1543]!	; 0xfffff9f9
    1d34:	05137805 	ldreq	r7, [r3, #-2053]	; 0xfffff7fb
    1d38:	740c0303 	strvc	r0, [ip], #-771	; 0xfffffcfd
    1d3c:	01061205 	tsteq	r6, r5, lsl #4
    1d40:	054a0605 	strbeq	r0, [sl, #-1541]	; 0xfffff9fb
    1d44:	13030603 	movwne	r0, #13827	; 0x3603
    1d48:	061a052e 	ldreq	r0, [sl], -lr, lsr #10
    1d4c:	20060501 	andcs	r0, r6, r1, lsl #10
    1d50:	3e060505 	cfsh32cc	mvfx0, mvfx6, #5
    1d54:	78030513 	stmdavc	r3, {r0, r1, r4, r8, sl}
    1d58:	01061905 	tsteq	r6, r5, lsl #18
    1d5c:	06200505 	strteq	r0, [r0], -r5, lsl #10
    1d60:	0305133e 	movweq	r1, #21310	; 0x533e
    1d64:	06150586 	ldreq	r0, [r5], -r6, lsl #11
    1d68:	2e410501 	cdpcs	5, 4, cr0, cr1, cr1, {0}
    1d6c:	052e6405 	streq	r6, [lr, #-1029]!	; 0xfffffbfb
    1d70:	7a052e40 	bvc	14d678 <_Min_Stack_Size+0x14d278>
    1d74:	2e2f052e 	cfsh64cs	mvdx0, mvdx15, #30
    1d78:	05201305 	streq	r1, [r0, #-773]!	; 0xfffffcfb
    1d7c:	05310603 	ldreq	r0, [r1, #-1539]!	; 0xfffff9fd
    1d80:	0501060a 	streq	r0, [r1, #-1546]	; 0xfffff9f6
    1d84:	05054b01 	streq	r4, [r5, #-2817]	; 0xfffff4ff
    1d88:	20540306 	subscs	r0, r4, r6, lsl #6
    1d8c:	01060705 	tsteq	r6, r5, lsl #14
    1d90:	05053006 	streq	r3, [r5, #-6]
    1d94:	11056a6e 	tstne	r5, lr, ror #20
    1d98:	05050106 	streq	r0, [r5, #-262]	; 0xfffffefa
    1d9c:	0b053e06 	bleq	1515bc <_Min_Stack_Size+0x1511bc>
    1da0:	060c0501 	streq	r0, [ip], -r1, lsl #10
    1da4:	4a0b0501 	bmi	2c31b0 <_Min_Stack_Size+0x2c2db0>
    1da8:	30060705 	andcc	r0, r6, r5, lsl #14
    1dac:	01060c05 	tsteq	r6, r5, lsl #24
    1db0:	052e1a05 	streq	r1, [lr, #-2565]!	; 0xfffff5fb
    1db4:	1005200a 	andne	r2, r5, sl
    1db8:	030c054c 	movweq	r0, #50508	; 0xc54c
    1dbc:	052e7ef3 	streq	r7, [lr, #-3827]!	; 0xfffff10d
    1dc0:	01a50301 			; <UNDEFINED> instruction: 0x01a50301
    1dc4:	030e0520 	movweq	r0, #58656	; 0xe520
    1dc8:	20207ef0 	strdcs	r7, [r0], -r0	; <UNPREDICTABLE>
    1dcc:	32031205 	andcc	r1, r3, #1342177280	; 0x50000000
    1dd0:	0e022020 	cdpeq	0, 0, cr2, cr2, cr0, {1}
    1dd4:	05010100 	streq	r0, [r1, #-256]	; 0xffffff00
    1dd8:	02050001 	andeq	r0, r5, #1
    1ddc:	00000000 	andeq	r0, r0, r0
    1de0:	0108df03 	tsteq	r8, r3, lsl #30
    1de4:	05130305 	ldreq	r0, [r3, #-773]	; 0xfffffcfb
    1de8:	02130601 	andseq	r0, r3, #1048576	; 0x100000
    1dec:	01010006 	tsteq	r1, r6
    1df0:	05000105 	streq	r0, [r0, #-261]	; 0xfffffefb
    1df4:	00000002 	andeq	r0, r0, r2
    1df8:	08ea0300 	stmiaeq	sl!, {r8, r9}^
    1dfc:	22030501 	andcs	r0, r3, #4194304	; 0x400000
    1e00:	01060b05 	tsteq	r6, r5, lsl #22
    1e04:	052e3305 	streq	r3, [lr, #-773]!	; 0xfffffcfb
    1e08:	32052e57 	andcc	r2, r5, #1392	; 0x570
    1e0c:	2e6e052e 	cdpcs	5, 6, cr0, cr14, cr14, {1}
    1e10:	022f0105 	eoreq	r0, pc, #1073741825	; 0x40000001
    1e14:	01010007 	tsteq	r1, r7
    1e18:	05000105 	streq	r0, [r0, #-261]	; 0xfffffefb
    1e1c:	00000002 	andeq	r0, r0, r2
    1e20:	08f60300 	ldmeq	r6!, {r8, r9}^
    1e24:	22030501 	andcs	r0, r3, #4194304	; 0x400000
    1e28:	01060b05 	tsteq	r6, r5, lsl #22
    1e2c:	052e3205 	streq	r3, [lr, #-517]!	; 0xfffffdfb
    1e30:	31052e56 	tstcc	r5, r6, asr lr
    1e34:	2e6d052e 	cdpcs	5, 6, cr0, cr13, cr14, {1}
    1e38:	022f0105 	eoreq	r0, pc, #1073741825	; 0x40000001
    1e3c:	01010007 	tsteq	r1, r7
    1e40:	05000105 	streq	r0, [r0, #-261]	; 0xfffffefb
    1e44:	00000002 	andeq	r0, r0, r2
    1e48:	09830300 	stmibeq	r3, {r8, r9}
    1e4c:	14030501 	strne	r0, [r3], #-1281	; 0xfffffaff
    1e50:	06250515 			; <UNDEFINED> instruction: 0x06250515
    1e54:	06030501 	streq	r0, [r3], -r1, lsl #10
    1e58:	06060532 			; <UNDEFINED> instruction: 0x06060532
    1e5c:	2e050501 	cfsh32cs	mvfx0, mvfx5, #1
    1e60:	21053e06 	tstcs	r5, r6, lsl #28
    1e64:	03050106 	movweq	r0, #20742	; 0x5106
    1e68:	3c0c0306 	stccc	3, cr0, [ip], {6}
    1e6c:	01060605 	tsteq	r6, r5, lsl #12
    1e70:	062e0505 	strteq	r0, [lr], -r5, lsl #10
    1e74:	0621053e 			; <UNDEFINED> instruction: 0x0621053e
    1e78:	06030501 	streq	r0, [r3], -r1, lsl #10
    1e7c:	062c0543 	strteq	r0, [ip], -r3, asr #10
    1e80:	2e540501 	cdpcs	5, 5, cr0, cr4, cr1, {0}
    1e84:	052e2a05 	streq	r2, [lr, #-2565]!	; 0xfffff5fb
    1e88:	05230603 	streq	r0, [r3, #-1539]!	; 0xfffff9fd
    1e8c:	05010606 	streq	r0, [r1, #-1542]	; 0xfffff9fa
    1e90:	3e062e05 	cdpcc	14, 0, cr2, cr6, cr5, {0}
    1e94:	01062105 	tsteq	r6, r5, lsl #2
    1e98:	03060305 	movweq	r0, #25349	; 0x6305
    1e9c:	06052e0c 	streq	r2, [r5], -ip, lsl #28
    1ea0:	05050106 	streq	r0, [r5, #-262]	; 0xfffffefa
    1ea4:	053e063c 	ldreq	r0, [lr, #-1596]!	; 0xfffff9c4
    1ea8:	05010621 	streq	r0, [r1, #-1569]	; 0xfffff9df
    1eac:	05360603 	ldreq	r0, [r6, #-1539]!	; 0xfffff9fd
    1eb0:	05010606 	streq	r0, [r1, #-1542]	; 0xfffff9fa
    1eb4:	3e063c05 	cdpcc	12, 0, cr3, cr6, cr5, {0}
    1eb8:	01062305 	tsteq	r6, r5, lsl #6
    1ebc:	36060305 	strcc	r0, [r6], -r5, lsl #6
    1ec0:	01060605 	tsteq	r6, r5, lsl #12
    1ec4:	062e0505 	strteq	r0, [lr], -r5, lsl #10
    1ec8:	0625053e 			; <UNDEFINED> instruction: 0x0625053e
    1ecc:	06030501 	streq	r0, [r3], -r1, lsl #10
    1ed0:	06260534 			; <UNDEFINED> instruction: 0x06260534
    1ed4:	4a240501 	bmi	9032e0 <_Min_Stack_Size+0x902ee0>
    1ed8:	21060305 	tstcs	r6, r5, lsl #6
    1edc:	01062205 	tsteq	r6, r5, lsl #4
    1ee0:	05204b05 	streq	r4, [r0, #-2821]!	; 0xfffff4fb
    1ee4:	1f052e64 	svcne	0x00052e64
    1ee8:	06030520 	streq	r0, [r3], -r0, lsr #10
    1eec:	06210521 	strteq	r0, [r1], -r1, lsr #10
    1ef0:	204a0501 	subcs	r0, sl, r1, lsl #10
    1ef4:	052e1f05 	streq	r1, [lr, #-3845]!	; 0xfffff0fb
    1ef8:	05210603 	streq	r0, [r1, #-1539]!	; 0xfffff9fd
    1efc:	05010624 	streq	r0, [r1, #-1572]	; 0xfffff9dc
    1f00:	6605204d 	strvs	r2, [r5], -sp, asr #32
    1f04:	206c052e 	rsbcs	r0, ip, lr, lsr #10
    1f08:	05201f05 	streq	r1, [r0, #-3845]!	; 0xfffff0fb
    1f0c:	05210603 	streq	r0, [r1, #-1539]!	; 0xfffff9fd
    1f10:	05010624 	streq	r0, [r1, #-1572]	; 0xfffff9dc
    1f14:	6605204d 	strvs	r2, [r5], -sp, asr #32
    1f18:	206c052e 	rsbcs	r0, ip, lr, lsr #10
    1f1c:	05201f05 	streq	r1, [r0, #-3845]!	; 0xfffff0fb
    1f20:	05210603 	streq	r0, [r1, #-1539]!	; 0xfffff9fd
    1f24:	05010621 	streq	r0, [r1, #-1569]	; 0xfffff9df
    1f28:	1f05204d 	svcne	0x0005204d
    1f2c:	21010520 	tstcs	r1, r0, lsr #10
    1f30:	03060805 	movweq	r0, #26629	; 0x6805
    1f34:	05207fba 	streq	r7, [r0, #-4026]!	; 0xfffff046
    1f38:	0501060b 	streq	r0, [r1, #-1547]	; 0xfffff9f5
    1f3c:	05052e0a 	streq	r2, [r5, #-3594]	; 0xfffff1f6
    1f40:	21053e06 	tstcs	r5, r6, lsl #28
    1f44:	05050106 	streq	r0, [r5, #-262]	; 0xfffffefa
    1f48:	21054e06 	tstcs	r5, r6, lsl #28
    1f4c:	05050106 	streq	r0, [r5, #-262]	; 0xfffffefa
    1f50:	3c0a0306 	stccc	3, cr0, [sl], {6}
    1f54:	01062105 	tsteq	r6, r5, lsl #2
    1f58:	03060805 	movweq	r0, #26629	; 0x6805
    1f5c:	0b053c0a 	bleq	150f8c <_Min_Stack_Size+0x150b8c>
    1f60:	0a050106 	beq	142380 <_Min_Stack_Size+0x141f80>
    1f64:	0605053c 			; <UNDEFINED> instruction: 0x0605053c
    1f68:	0621053e 			; <UNDEFINED> instruction: 0x0621053e
    1f6c:	06050501 	streq	r0, [r5], -r1, lsl #10
    1f70:	06210540 	strteq	r0, [r1], -r0, asr #10
    1f74:	06050501 	streq	r0, [r5], -r1, lsl #10
    1f78:	053c0a03 	ldreq	r0, [ip, #-2563]!	; 0xfffff5fd
    1f7c:	05010621 	streq	r0, [r1, #-1569]	; 0xfffff9df
    1f80:	0a030605 	beq	c379c <_Min_Stack_Size+0xc339c>
    1f84:	0623053c 			; <UNDEFINED> instruction: 0x0623053c
    1f88:	06050501 	streq	r0, [r5], -r1, lsl #10
    1f8c:	053c0a03 	ldreq	r0, [ip, #-2563]!	; 0xfffff5fd
    1f90:	02010625 	andeq	r0, r1, #38797312	; 0x2500000
    1f94:	01010006 	tsteq	r1, r6
    1f98:	05000105 	streq	r0, [r0, #-261]	; 0xfffffefb
    1f9c:	00000002 	andeq	r0, r0, r2
    1fa0:	09e10300 	stmibeq	r1!, {r8, r9}^
    1fa4:	14030501 	strne	r0, [r3], #-1281	; 0xfffffaff
    1fa8:	20051513 	andcs	r1, r5, r3, lsl r5
    1fac:	03050106 	movweq	r0, #20742	; 0x5106
    1fb0:	25053106 	strcs	r3, [r5, #-262]	; 0xfffffefa
    1fb4:	23050106 	movwcs	r0, #20742	; 0x5106
    1fb8:	0603054a 	streq	r0, [r3], -sl, asr #10
    1fbc:	06260523 	strteq	r0, [r6], -r3, lsr #10
    1fc0:	3c240501 	cfstr32cc	mvfx0, [r4], #-4
    1fc4:	23060305 	movwcs	r0, #25349	; 0x6305
    1fc8:	01062705 	tsteq	r6, r5, lsl #14
    1fcc:	053c2505 	ldreq	r2, [ip, #-1285]!	; 0xfffffafb
    1fd0:	05230603 	streq	r0, [r3, #-1539]!	; 0xfffff9fd
    1fd4:	05010628 	streq	r0, [r1, #-1576]	; 0xfffff9d8
    1fd8:	2505204c 	strcs	r2, [r5, #-76]	; 0xffffffb4
    1fdc:	0603053c 			; <UNDEFINED> instruction: 0x0603053c
    1fe0:	06100523 	ldreq	r0, [r0], -r3, lsr #10
    1fe4:	4a0e0501 	bmi	3833f0 <_Min_Stack_Size+0x382ff0>
    1fe8:	02210105 	eoreq	r0, r1, #1073741825	; 0x40000001
    1fec:	01010005 	tsteq	r1, r5
    1ff0:	05000105 	streq	r0, [r0, #-261]	; 0xfffffefb
    1ff4:	00000002 	andeq	r0, r0, r2
    1ff8:	0a840300 	beq	fe102c00 <BootRAM+0xc2f33a1>
    1ffc:	13030501 	movwne	r0, #13569	; 0x3501
    2000:	59060105 	stmdbpl	r6, {r0, r2, r8}
    2004:	01000302 	tsteq	r0, r2, lsl #6
    2008:	00010501 	andeq	r0, r1, r1, lsl #10
    200c:	00000205 	andeq	r0, r0, r5, lsl #4
    2010:	92030000 	andls	r0, r3, #0
    2014:	0305010a 	movweq	r0, #20746	; 0x510a
    2018:	06010513 			; <UNDEFINED> instruction: 0x06010513
    201c:	00030275 	andeq	r0, r3, r5, ror r2
    2020:	01050101 	tsteq	r5, r1, lsl #2
    2024:	00020500 	andeq	r0, r2, r0, lsl #10
    2028:	03000000 	movweq	r0, #0
    202c:	05010a9d 	streq	r0, [r1, #-2717]	; 0xfffff563
    2030:	01051303 	tsteq	r5, r3, lsl #6
    2034:	03027506 	movweq	r7, #9478	; 0x2506
    2038:	05010100 	streq	r0, [r1, #-256]	; 0xffffff00
    203c:	02050001 	andeq	r0, r5, #1
    2040:	00000000 	andeq	r0, r0, r0
    2044:	010ab803 	tsteq	sl, r3, lsl #16
    2048:	00010216 	andeq	r0, r1, r6, lsl r2
    204c:	01050101 	tsteq	r5, r1, lsl #2
    2050:	00020500 	andeq	r0, r2, r0, lsl #10
    2054:	03000000 	movweq	r0, #0
    2058:	05010aa7 	streq	r0, [r1, #-2727]	; 0xfffff559
    205c:	06052203 	streq	r2, [r5], -r3, lsl #4
    2060:	05050106 	streq	r0, [r5, #-262]	; 0xfffffefa
    2064:	4401052e 	strmi	r0, [r1], #-1326	; 0xfffffad2
    2068:	1b060505 	blne	183484 <_Min_Stack_Size+0x183084>
    206c:	06010531 			; <UNDEFINED> instruction: 0x06010531
    2070:	0003024c 	andeq	r0, r3, ip, asr #4
    2074:	06740101 	ldrbteq	r0, [r4], -r1, lsl #2
    2078:	00030000 	andeq	r0, r3, r0
    207c:	00000190 	muleq	r0, r0, r1
    2080:	0efb0102 	cdpeq	1, 15, cr0, cr11, cr2, {0}
    2084:	0101000d 	tsteq	r1, sp
    2088:	00000101 	andeq	r0, r0, r1, lsl #2
    208c:	00000100 	andeq	r0, r0, r0, lsl #2
    2090:	69724401 	ldmdbvs	r2!, {r0, sl, lr}^
    2094:	73726576 	cmnvc	r2, #494927872	; 0x1d800000
    2098:	4d54532f 	ldclmi	3, cr5, [r4, #-188]	; 0xffffff44
    209c:	34473233 	strbcc	r3, [r7], #-563	; 0xfffffdcd
    20a0:	485f7878 	ldmdami	pc, {r3, r4, r5, r6, fp, ip, sp, lr}^	; <UNPREDICTABLE>
    20a4:	445f4c41 	ldrbmi	r4, [pc], #-3137	; 20ac <_Min_Stack_Size+0x1cac>
    20a8:	65766972 	ldrbvs	r6, [r6, #-2418]!	; 0xfffff68e
    20ac:	72532f72 	subsvc	r2, r3, #456	; 0x1c8
    20b0:	3a640063 	bcc	1902244 <_Min_Stack_Size+0x1901e44>
    20b4:	6f72705c 	svcvs	0x0072705c
    20b8:	6d617267 	sfmvs	f7, 2, [r1, #-412]!	; 0xfffffe64
    20bc:	6c696620 	stclvs	6, cr6, [r9], #-128	; 0xffffff80
    20c0:	675c7365 	ldrbvs	r7, [ip, -r5, ror #6]
    20c4:	612d6363 			; <UNDEFINED> instruction: 0x612d6363
    20c8:	6e2d6d72 	mcrvs	13, 1, r6, cr13, cr2, {3}
    20cc:	2d656e6f 	stclcs	14, cr6, [r5, #-444]!	; 0xfffffe44
    20d0:	69626165 	stmdbvs	r2!, {r0, r2, r5, r6, r8, sp, lr}^
    20d4:	2e30312d 	rsfcssp	f3, f0, #5.0
    20d8:	30322d33 	eorscc	r2, r2, r3, lsr sp
    20dc:	312e3132 			; <UNDEFINED> instruction: 0x312e3132
    20e0:	72615c30 	rsbvc	r5, r1, #48, 24	; 0x3000
    20e4:	6f6e2d6d 	svcvs	0x006e2d6d
    20e8:	652d656e 	strvs	r6, [sp, #-1390]!	; 0xfffffa92
    20ec:	5c696261 	sfmpl	f6, 2, [r9], #-388	; 0xfffffe7c
    20f0:	6c636e69 	stclvs	14, cr6, [r3], #-420	; 0xfffffe5c
    20f4:	5c656475 	cfstrdpl	mvd6, [r5], #-468	; 0xfffffe2c
    20f8:	6863616d 	stmdavs	r3!, {r0, r2, r3, r5, r6, r8, sp, lr}^
    20fc:	00656e69 	rsbeq	r6, r5, r9, ror #28
    2100:	705c3a64 	subsvc	r3, ip, r4, ror #20
    2104:	72676f72 	rsbvc	r6, r7, #456	; 0x1c8
    2108:	66206d61 	strtvs	r6, [r0], -r1, ror #26
    210c:	73656c69 	cmnvc	r5, #26880	; 0x6900
    2110:	6363675c 	cmnvs	r3, #92, 14	; 0x1700000
    2114:	6d72612d 	ldfvse	f6, [r2, #-180]!	; 0xffffff4c
    2118:	6e6f6e2d 	cdpvs	14, 6, cr6, cr15, cr13, {1}
    211c:	61652d65 	cmnvs	r5, r5, ror #26
    2120:	312d6962 			; <UNDEFINED> instruction: 0x312d6962
    2124:	2d332e30 	ldccs	14, cr2, [r3, #-192]!	; 0xffffff40
    2128:	31323032 	teqcc	r2, r2, lsr r0
    212c:	5c30312e 	ldfpls	f3, [r0], #-184	; 0xffffff48
    2130:	2d6d7261 	sfmcs	f7, 2, [sp, #-388]!	; 0xfffffe7c
    2134:	656e6f6e 	strbvs	r6, [lr, #-3950]!	; 0xfffff092
    2138:	6261652d 	rsbvs	r6, r1, #188743680	; 0xb400000
    213c:	6e695c69 	cdpvs	12, 6, cr5, cr9, cr9, {3}
    2140:	64756c63 	ldrbtvs	r6, [r5], #-3171	; 0xfffff39d
    2144:	79735c65 	ldmdbvc	r3!, {r0, r2, r5, r6, sl, fp, ip, lr}^
    2148:	72440073 	subvc	r0, r4, #115	; 0x73
    214c:	72657669 	rsbvc	r7, r5, #110100480	; 0x6900000
    2150:	4d432f73 	stclmi	15, cr2, [r3, #-460]	; 0xfffffe34
    2154:	2f534953 	svccs	0x00534953
    2158:	69766544 	ldmdbvs	r6!, {r2, r6, r8, sl, sp, lr}^
    215c:	532f6563 			; <UNDEFINED> instruction: 0x532f6563
    2160:	54532f54 	ldrbpl	r2, [r3], #-3924	; 0xfffff0ac
    2164:	4732334d 	ldrmi	r3, [r2, -sp, asr #6]!
    2168:	2f787834 	svccs	0x00787834
    216c:	6c636e49 	stclvs	14, cr6, [r3], #-292	; 0xfffffedc
    2170:	00656475 	rsbeq	r6, r5, r5, ror r4
    2174:	76697244 	strbtvc	r7, [r9], -r4, asr #4
    2178:	2f737265 	svccs	0x00737265
    217c:	334d5453 	movtcc	r5, #54355	; 0xd453
    2180:	78344732 	ldmdavc	r4!, {r1, r4, r5, r8, r9, sl, lr}
    2184:	41485f78 	hvcmi	34296	; 0x85f8
    2188:	72445f4c 	subvc	r5, r4, #76, 30	; 0x130
    218c:	72657669 	rsbvc	r7, r5, #110100480	; 0x6900000
    2190:	636e492f 	cmnvs	lr, #770048	; 0xbc000
    2194:	74730000 	ldrbtvc	r0, [r3], #-0
    2198:	6732336d 	ldrvs	r3, [r2, -sp, ror #6]!
    219c:	5f787834 	svcpl	0x00787834
    21a0:	5f6c6168 	svcpl	0x006c6168
    21a4:	6f697067 	svcvs	0x00697067
    21a8:	0100632e 	tsteq	r0, lr, lsr #6
    21ac:	645f0000 	ldrbvs	r0, [pc], #-0	; 21b4 <_Min_Stack_Size+0x1db4>
    21b0:	75616665 	strbvc	r6, [r1, #-1637]!	; 0xfffff99b
    21b4:	745f746c 	ldrbvc	r7, [pc], #-1132	; 21bc <_Min_Stack_Size+0x1dbc>
    21b8:	73657079 	cmnvc	r5, #121	; 0x79
    21bc:	0200682e 	andeq	r6, r0, #3014656	; 0x2e0000
    21c0:	735f0000 	cmpvc	pc, #0
    21c4:	6e696474 	mcrvs	4, 3, r6, cr9, cr4, {3}
    21c8:	00682e74 	rsbeq	r2, r8, r4, ror lr
    21cc:	73000003 	movwvc	r0, #3
    21d0:	32336d74 	eorscc	r6, r3, #116, 26	; 0x1d00
    21d4:	33373467 	teqcc	r7, #1728053248	; 0x67000000
    21d8:	682e7878 	stmdavs	lr!, {r3, r4, r5, r6, fp, ip, sp, lr}
    21dc:	00000400 	andeq	r0, r0, r0, lsl #8
    21e0:	336d7473 	cmncc	sp, #1929379840	; 0x73000000
    21e4:	78346732 	ldmdavc	r4!, {r1, r4, r5, r8, r9, sl, sp, lr}
    21e8:	61685f78 	smcvs	34296	; 0x85f8
    21ec:	65645f6c 	strbvs	r5, [r4, #-3948]!	; 0xfffff094
    21f0:	00682e66 	rsbeq	r2, r8, r6, ror #28
    21f4:	73000005 	movwvc	r0, #5
    21f8:	32336d74 	eorscc	r6, r3, #116, 26	; 0x1d00
    21fc:	78783467 	ldmdavc	r8!, {r0, r1, r2, r5, r6, sl, ip, sp}^
    2200:	6c61685f 	stclvs	8, cr6, [r1], #-380	; 0xfffffe84
    2204:	6970675f 	ldmdbvs	r0!, {r0, r1, r2, r3, r4, r6, r8, r9, sl, sp, lr}^
    2208:	00682e6f 	rsbeq	r2, r8, pc, ror #28
    220c:	00000005 	andeq	r0, r0, r5
    2210:	05000105 	streq	r0, [r0, #-261]	; 0xfffffefb
    2214:	000c5c02 	andeq	r5, ip, r2, lsl #24
    2218:	01a20308 			; <UNDEFINED> instruction: 0x01a20308
    221c:	05010601 	streq	r0, [r1, #-1537]	; 0xfffff9ff
    2220:	132f0603 			; <UNDEFINED> instruction: 0x132f0603
    2224:	13131513 	tstne	r3, #79691776	; 0x4c00000
    2228:	060c0515 			; <UNDEFINED> instruction: 0x060c0515
    222c:	05017603 	streq	r7, [r1, #-1539]	; 0xfffff9fd
    2230:	200a0309 	andcs	r0, sl, r9, lsl #6
    2234:	200d0306 	andcs	r0, sp, r6, lsl #6
    2238:	060e0514 			; <UNDEFINED> instruction: 0x060e0514
    223c:	06090501 	streq	r0, [r9], -r1, lsl #10
    2240:	06350521 	ldrteq	r0, [r5], -r1, lsr #10
    2244:	20280501 	eorcs	r0, r8, r1, lsl #10
    2248:	052e0e05 	streq	r0, [lr, #-3589]!	; 0xfffff1fb
    224c:	052f0609 	streq	r0, [pc, #-1545]!	; 1c4b <_Min_Stack_Size+0x184b>
    2250:	0501061b 	streq	r0, [r1, #-1563]	; 0xfffff9e5
    2254:	0e052023 	cdpeq	0, 0, cr2, cr5, cr3, {1}
    2258:	06090520 	streq	r0, [r9], -r0, lsr #10
    225c:	06180521 	ldreq	r0, [r8], -r1, lsr #10
    2260:	06090501 	streq	r0, [r9], -r1, lsl #10
    2264:	060e0523 	streq	r0, [lr], -r3, lsr #10
    2268:	06090501 	streq	r0, [r9], -r1, lsl #10
    226c:	060e0521 	streq	r0, [lr], -r1, lsr #10
    2270:	06090501 	streq	r0, [r9], -r1, lsl #10
    2274:	061d052f 	ldreq	r0, [sp], -pc, lsr #10
    2278:	20330501 	eorscs	r0, r3, r1, lsl #10
    227c:	052e4705 	streq	r4, [lr, #-1797]!	; 0xfffff8fb
    2280:	0905200e 	stmdbeq	r5, {r1, r2, r3, sp}
    2284:	17052f06 	strne	r2, [r5, -r6, lsl #30]
    2288:	09050106 	stmdbeq	r5, {r1, r2, r8}
    228c:	2e130306 	cdpcs	3, 1, cr0, cr3, cr6, {0}
    2290:	24051513 	strcs	r1, [r5], #-1299	; 0xfffffaed
    2294:	0e050106 	adfeqs	f0, f5, f6
    2298:	06090520 	streq	r0, [r9], -r0, lsr #10
    229c:	0626053d 			; <UNDEFINED> instruction: 0x0626053d
    22a0:	2e2f0501 	cfsh64cs	mvdx0, mvdx15, #1
    22a4:	052e1805 	streq	r1, [lr, #-2053]!	; 0xfffff7fb
    22a8:	09053c0e 	stmdbeq	r5, {r1, r2, r3, sl, fp, ip, sp}
    22ac:	1c052f06 	stcne	15, cr2, [r5], {6}
    22b0:	29050106 	stmdbcs	r5, {r1, r2, r8}
    22b4:	2e0e0520 	cfsh32cs	mvfx0, mvfx14, #16
    22b8:	2f060905 	svccs	0x00060905
    22bc:	01062405 	tsteq	r6, r5, lsl #8
    22c0:	12031205 	andne	r1, r3, #1342177280	; 0x50000000
    22c4:	0028053c 	eoreq	r0, r8, ip, lsr r5
    22c8:	3c180402 	cfldrscc	mvf0, [r8], {2}
    22cc:	02000e05 	andeq	r0, r0, #5, 28	; 0x50
    22d0:	052e1804 	streq	r1, [lr, #-2052]!	; 0xfffff7fc
    22d4:	04020009 	streq	r0, [r2], #-9
    22d8:	05210618 	streq	r0, [r1, #-1560]!	; 0xfffff9e8
    22dc:	04020028 	streq	r0, [r2], #-40	; 0xffffffd8
    22e0:	05010618 	streq	r0, [r1, #-1560]	; 0xfffff9e8
    22e4:	04020009 	streq	r0, [r2], #-9
    22e8:	055b0618 	ldrbeq	r0, [fp, #-1560]	; 0xfffff9e8
    22ec:	0402000e 	streq	r0, [r2], #-14
    22f0:	00010618 	andeq	r0, r1, r8, lsl r6
    22f4:	20180402 	andscs	r0, r8, r2, lsl #8
    22f8:	02000905 	andeq	r0, r0, #81920	; 0x14000
    22fc:	21061804 	tstcs	r6, r4, lsl #16
    2300:	02001105 	andeq	r1, r0, #1073741825	; 0x40000001
    2304:	01061804 	tsteq	r6, r4, lsl #16
    2308:	02000e05 	andeq	r0, r0, #5, 28	; 0x50
    230c:	05201804 	streq	r1, [r0, #-2052]!	; 0xfffff7fc
    2310:	04020009 	streq	r0, [r2], #-9
    2314:	052f0618 	streq	r0, [pc, #-1560]!	; 1d04 <_Min_Stack_Size+0x1904>
    2318:	0402000c 	streq	r0, [r2], #-12
    231c:	05010618 	streq	r0, [r1, #-1560]	; 0xfffff9e8
    2320:	054c060b 	strbeq	r0, [ip, #-1547]	; 0xfffff9f5
    2324:	05010610 	streq	r0, [r1, #-1552]	; 0xfffff9f0
    2328:	05300609 	ldreq	r0, [r0, #-1545]!	; 0xfffff9f7
    232c:	05010615 	streq	r0, [r1, #-1557]	; 0xfffff9eb
    2330:	05300609 	ldreq	r0, [r0, #-1545]!	; 0xfffff9f7
    2334:	0501060e 	streq	r0, [r1, #-1550]	; 0xfffff9f2
    2338:	05210609 	streq	r0, [r1, #-1545]!	; 0xfffff9f7
    233c:	0501060e 	streq	r0, [r1, #-1550]	; 0xfffff9f2
    2340:	052f0609 	streq	r0, [pc, #-1545]!	; 1d3f <_Min_Stack_Size+0x193f>
    2344:	0501060c 	streq	r0, [r1, #-1548]	; 0xfffff9f4
    2348:	054c060b 	strbeq	r0, [ip, #-1547]	; 0xfffff9f5
    234c:	05010610 	streq	r0, [r1, #-1552]	; 0xfffff9f0
    2350:	05300609 	ldreq	r0, [r0, #-1545]!	; 0xfffff9f7
    2354:	05010615 	streq	r0, [r1, #-1557]	; 0xfffff9eb
    2358:	05300609 	ldreq	r0, [r0, #-1545]!	; 0xfffff9f7
    235c:	0501060e 	streq	r0, [r1, #-1550]	; 0xfffff9f2
    2360:	05210609 	streq	r0, [r1, #-1545]!	; 0xfffff9f7
    2364:	0501060e 	streq	r0, [r1, #-1550]	; 0xfffff9f2
    2368:	052f0609 	streq	r0, [pc, #-1545]!	; 1d67 <_Min_Stack_Size+0x1967>
    236c:	0501060c 	streq	r0, [r1, #-1548]	; 0xfffff9f4
    2370:	054c060b 	strbeq	r0, [ip, #-1547]	; 0xfffff9f5
    2374:	05010610 	streq	r0, [r1, #-1552]	; 0xfffff9f0
    2378:	05300609 	ldreq	r0, [r0, #-1545]!	; 0xfffff9f7
    237c:	05010614 	streq	r0, [r1, #-1556]	; 0xfffff9ec
    2380:	05310609 	ldreq	r0, [r1, #-1545]!	; 0xfffff9f7
    2384:	0501060e 	streq	r0, [r1, #-1550]	; 0xfffff9f2
    2388:	05210609 	streq	r0, [r1, #-1545]!	; 0xfffff9f7
    238c:	0501060e 	streq	r0, [r1, #-1550]	; 0xfffff9f2
    2390:	05210609 	streq	r0, [r1, #-1545]!	; 0xfffff9f7
    2394:	05010617 	streq	r0, [r1, #-1559]	; 0xfffff9e9
    2398:	0b05200c 	bleq	14a3d0 <_Min_Stack_Size+0x149fd0>
    239c:	10053e06 	andne	r3, r5, r6, lsl #28
    23a0:	09050106 	stmdbeq	r5, {r1, r2, r8}
    23a4:	14053006 	strne	r3, [r5], #-6
    23a8:	05200106 	streq	r0, [r0, #-262]!	; 0xfffffefa
    23ac:	05240605 	streq	r0, [r4, #-1541]!	; 0xfffff9fb
    23b0:	0501060d 	streq	r0, [r1, #-1549]	; 0xfffff9f3
    23b4:	95030609 	strls	r0, [r3, #-1545]	; 0xfffff9f7
    23b8:	1505207f 	strne	r2, [r5, #-127]	; 0xffffff81
    23bc:	09050106 	stmdbeq	r5, {r1, r2, r8}
    23c0:	06050520 	streq	r0, [r5], -r0, lsr #10
    23c4:	0629053f 			; <UNDEFINED> instruction: 0x0629053f
    23c8:	06050501 	streq	r0, [r5], -r1, lsl #10
    23cc:	0608054c 	streq	r0, [r8], -ip, asr #10
    23d0:	07052e01 	streq	r2, [r5, -r1, lsl #28]
    23d4:	15052406 	strne	r2, [r5, #-1030]	; 0xfffffbfa
    23d8:	1c050106 	stfnes	f0, [r5], {6}
    23dc:	2e390520 	cfabs64cs	mvdx0, mvdx9
    23e0:	05200905 	streq	r0, [r0, #-2309]!	; 0xfffff6fb
    23e4:	12030607 	andne	r0, r3, #7340032	; 0x700000
    23e8:	0615052e 	ldreq	r0, [r5], -lr, lsr #10
    23ec:	201c0501 	andscs	r0, ip, r1, lsl #10
    23f0:	052e0a05 	streq	r0, [lr, #-2565]!	; 0xfffff5fb
    23f4:	15310609 	ldrne	r0, [r1, #-1545]!	; 0xfffff9f7
    23f8:	01060e05 	tsteq	r6, r5, lsl #28
    23fc:	21060905 	tstcs	r6, r5, lsl #18
    2400:	01063105 	tsteq	r6, r5, lsl #2
    2404:	05202405 	streq	r2, [r0, #-1029]!	; 0xfffffbfb
    2408:	09054a0e 	stmdbeq	r5, {r1, r2, r3, r9, fp, lr}
    240c:	1c052f06 	stcne	15, cr2, [r5], {6}
    2410:	24050106 	strcs	r0, [r5], #-262	; 0xfffffefa
    2414:	200e0520 	andcs	r0, lr, r0, lsr #10
    2418:	2f060905 	svccs	0x00060905
    241c:	01061605 	tsteq	r6, r5, lsl #12
    2420:	24060705 	strcs	r0, [r6], #-1797	; 0xfffff8fb
    2424:	01061505 	tsteq	r6, r5, lsl #10
    2428:	05201c05 	streq	r1, [r0, #-3077]!	; 0xfffff3fb
    242c:	07052e0a 	streq	r2, [r5, -sl, lsl #28]
    2430:	2e0e0306 	cdpcs	3, 0, cr0, cr14, cr6, {0}
    2434:	01060c05 	tsteq	r6, r5, lsl #24
    2438:	21060705 	tstcs	r6, r5, lsl #14
    243c:	01062f05 	tsteq	r6, r5, lsl #30
    2440:	052e2205 	streq	r2, [lr, #-517]!	; 0xfffffdfb
    2444:	07054a0c 	streq	r4, [r5, -ip, lsl #20]
    2448:	1a052f06 	bne	14e068 <_Min_Stack_Size+0x14dc68>
    244c:	21050106 	tstcs	r5, r6, lsl #2
    2450:	2e2e0520 	cfsh64cs	mvdx0, mvdx14, #16
    2454:	052e0c05 	streq	r0, [lr, #-3077]!	; 0xfffff3fb
    2458:	052f0607 	streq	r0, [pc, #-1543]!	; 1e59 <_Min_Stack_Size+0x1a59>
    245c:	05010614 	streq	r0, [r1, #-1556]	; 0xfffff9ec
    2460:	05240607 	streq	r0, [r4, #-1543]!	; 0xfffff9f9
    2464:	05010615 	streq	r0, [r1, #-1557]	; 0xfffff9eb
    2468:	0905200a 	stmdbeq	r5, {r1, r3, sp}
    246c:	01013f06 	tsteq	r1, r6, lsl #30
    2470:	14204a58 	strtne	r4, [r0], #-2648	; 0xfffff5a8
    2474:	01062805 	tsteq	r6, r5, lsl #16
    2478:	052e0e05 	streq	r0, [lr, #-3589]!	; 0xfffff1fb
    247c:	05590609 	ldrbeq	r0, [r9, #-1545]	; 0xfffff9f7
    2480:	0501062d 	streq	r0, [r1, #-1581]	; 0xfffff9d3
    2484:	1a052e21 	bne	14dd10 <_Min_Stack_Size+0x14d910>
    2488:	3c0e052e 	cfstr32cc	mvfx0, [lr], {46}	; 0x2e
    248c:	2f060905 	svccs	0x00060905
    2490:	01061205 	tsteq	r6, r5, lsl #4
    2494:	01040200 	mrseq	r0, R12_usr
    2498:	0402004a 	streq	r0, [r2], #-74	; 0xffffffb6
    249c:	02003c03 	andeq	r3, r0, #768	; 0x300
    24a0:	004a0504 	subeq	r0, sl, r4, lsl #10
    24a4:	4a070402 	bmi	1c34b4 <_Min_Stack_Size+0x1c30b4>
    24a8:	09040200 	stmdbeq	r4, {r9}
    24ac:	0105584a 	tsteq	r5, sl, asr #16
    24b0:	029e2903 	addseq	r2, lr, #49152	; 0xc000
    24b4:	0101000a 	tsteq	r1, sl
    24b8:	05000105 	streq	r0, [r0, #-261]	; 0xfffffefb
    24bc:	00000002 	andeq	r0, r0, r2
    24c0:	02a40300 	adceq	r0, r4, #0, 6
    24c4:	13030501 	movwne	r0, #13569	; 0x3501
    24c8:	13151313 	tstne	r5, #1275068416	; 0x4c000000
    24cc:	060c0515 			; <UNDEFINED> instruction: 0x060c0515
    24d0:	05017703 	streq	r7, [r1, #-1795]	; 0xfffff8fd
    24d4:	09030609 	stmdbeq	r3, {r0, r3, r9, sl}
    24d8:	06010520 	streq	r0, [r1], -r0, lsr #10
    24dc:	054a7603 	strbeq	r7, [sl, #-1539]	; 0xfffff9fd
    24e0:	2e160313 	mrccs	3, 0, r0, cr6, cr3, {0}
    24e4:	02002905 	andeq	r2, r0, #81920	; 0x14000
    24e8:	053c1804 	ldreq	r1, [ip, #-2052]!	; 0xfffff7fc
    24ec:	0402000a 	streq	r0, [r2], #-10
    24f0:	07052e18 	smladeq	r5, r8, lr, r2
    24f4:	2e100306 	cdpcs	3, 1, cr0, cr0, cr6, {0}
    24f8:	01061405 	tsteq	r6, r5, lsl #8
    24fc:	05203605 	streq	r3, [r0, #-1541]!	; 0xfffff9fb
    2500:	14052029 	strne	r2, [r5], #-41	; 0xffffffd7
    2504:	0607054a 	streq	r0, [r7], -sl, asr #10
    2508:	0622053f 			; <UNDEFINED> instruction: 0x0622053f
    250c:	663a0501 	ldrtvs	r0, [sl], -r1, lsl #10
    2510:	052e4305 	streq	r4, [lr, #-773]!	; 0xfffffcfb
    2514:	2205202c 	andcs	r2, r5, #44	; 0x2c
    2518:	0607052e 	streq	r0, [r7], -lr, lsr #10
    251c:	0614054d 	ldreq	r0, [r4], -sp, asr #10
    2520:	06070501 	streq	r0, [r7], -r1, lsl #10
    2524:	0616054d 	ldreq	r0, [r6], -sp, asr #10
    2528:	07053c01 	streq	r3, [r5, -r1, lsl #24]
    252c:	16052306 	strne	r2, [r5], -r6, lsl #6
    2530:	05050106 	streq	r0, [r5, #-262]	; 0xfffffefa
    2534:	0d054d06 	stceq	13, cr4, [r5, #-24]	; 0xffffffe8
    2538:	09050106 	stmdbeq	r5, {r1, r2, r8}
    253c:	20550306 	subscs	r0, r5, r6, lsl #6
    2540:	053f0505 	ldreq	r0, [pc, #-1285]!	; 2043 <_Min_Stack_Size+0x1c43>
    2544:	05010623 	streq	r0, [r1, #-1571]	; 0xfffff9dd
    2548:	05300605 	ldreq	r0, [r0, #-1541]!	; 0xfffff9fb
    254c:	2e010608 	cfmadd32cs	mvax0, mvfx0, mvfx1, mvfx8
    2550:	25060705 	strcs	r0, [r6, #-1797]	; 0xfffff8fb
    2554:	01062505 	tsteq	r6, r5, lsl #10
    2558:	052e0b05 	streq	r0, [lr, #-2821]!	; 0xfffff4fb
    255c:	05590607 	ldrbeq	r0, [r9, #-1543]	; 0xfffff9f9
    2560:	05010629 	streq	r0, [r1, #-1577]	; 0xfffff9d7
    2564:	16052e1d 			; <UNDEFINED> instruction: 0x16052e1d
    2568:	3c0b052e 	cfstr32cc	mvfx0, [fp], {46}	; 0x2e
    256c:	21060705 	tstcs	r6, r5, lsl #14
    2570:	01061305 	tsteq	r6, r5, lsl #6
    2574:	01040200 	mrseq	r0, R12_usr
    2578:	0402003c 	streq	r0, [r2], #-60	; 0xffffffc4
    257c:	02003c03 	andeq	r3, r0, #768	; 0x300
    2580:	004a0504 	subeq	r0, sl, r4, lsl #10
    2584:	4a070402 	bmi	1c3594 <_Min_Stack_Size+0x1c3194>
    2588:	09040200 	stmdbeq	r4, {r9}
    258c:	09054a4a 	stmdbeq	r5, {r1, r3, r6, r9, fp, lr}
    2590:	1405a106 	strne	sl, [r5], #-262	; 0xfffffefa
    2594:	05200106 	streq	r0, [r0, #-262]!	; 0xfffffefa
    2598:	054b0609 	strbeq	r0, [fp, #-1545]	; 0xfffff9f7
    259c:	05010614 	streq	r0, [r1, #-1556]	; 0xfffff9ec
    25a0:	054d0609 	strbeq	r0, [sp, #-1545]	; 0xfffff9f7
    25a4:	05010615 	streq	r0, [r1, #-1557]	; 0xfffff9eb
    25a8:	054b0609 	strbeq	r0, [fp, #-1545]	; 0xfffff9f7
    25ac:	3c010615 	stccc	6, cr0, [r1], {21}
    25b0:	22060905 	andcs	r0, r6, #81920	; 0x14000
    25b4:	06280513 			; <UNDEFINED> instruction: 0x06280513
    25b8:	03010501 	movweq	r0, #5377	; 0x1501
    25bc:	02209e16 	eoreq	r9, r0, #352	; 0x160
    25c0:	01010008 	tsteq	r1, r8
    25c4:	05000105 	streq	r0, [r0, #-261]	; 0xfffffefb
    25c8:	00000002 	andeq	r0, r0, r2
    25cc:	02f50300 	rscseq	r0, r5, #0, 6
    25d0:	13030501 	movwne	r0, #13569	; 0x3501
    25d4:	0d051415 	cfstrseq	mvf1, [r5, #-84]	; 0xffffffac
    25d8:	06050106 	streq	r0, [r5], -r6, lsl #2
    25dc:	300f0520 	andcc	r0, pc, r0, lsr #10
    25e0:	03052420 	movweq	r2, #21536	; 0x5420
    25e4:	01052206 	tsteq	r5, r6, lsl #4
    25e8:	01021306 	tsteq	r2, r6, lsl #6
    25ec:	05010100 	streq	r0, [r1, #-256]	; 0xffffff00
    25f0:	02050001 	andeq	r0, r5, #1
    25f4:	08000e30 	stmdaeq	r0, {r4, r5, r9, sl, fp}
    25f8:	01039703 	tsteq	r3, r3, lsl #14
    25fc:	13140305 	tstne	r4, #335544320	; 0x14000000
    2600:	06060514 			; <UNDEFINED> instruction: 0x06060514
    2604:	06050501 	streq	r0, [r5], -r1, lsl #10
    2608:	06110522 	ldreq	r0, [r1], -r2, lsr #10
    260c:	06050501 	streq	r0, [r5], -r1, lsl #10
    2610:	06100532 			; <UNDEFINED> instruction: 0x06100532
    2614:	22010501 	andcs	r0, r1, #4194304	; 0x400000
    2618:	01000102 	tsteq	r0, r2, lsl #2
    261c:	00010501 	andeq	r0, r1, r1, lsl #10
    2620:	0e3a0205 	cdpeq	2, 3, cr0, cr10, cr5, {0}
    2624:	ae030800 	cdpge	8, 0, cr0, cr3, cr0, {0}
    2628:	03050103 	movweq	r0, #20739	; 0x5103
    262c:	05151513 	ldreq	r1, [r5, #-1299]	; 0xfffffaed
    2630:	05010607 	streq	r0, [r1, #-1543]	; 0xfffff9f9
    2634:	05230603 	streq	r0, [r3, #-1539]!	; 0xfffff9fd
    2638:	05010617 	streq	r0, [r1, #-1559]	; 0xfffff9e9
    263c:	33052e3b 	movwcc	r2, #24123	; 0x5e3b
    2640:	2e0f052e 	cfsh32cs	mvfx0, mvfx15, #30
    2644:	02210105 	eoreq	r0, r1, #1073741825	; 0x40000001
    2648:	01010001 	tsteq	r1, r1
    264c:	05000105 	streq	r0, [r0, #-261]	; 0xfffffefb
    2650:	00000002 	andeq	r0, r0, r2
    2654:	03c70300 	biceq	r0, r7, #0, 6
    2658:	05010601 	streq	r0, [r1, #-1537]	; 0xfffff9ff
    265c:	05210603 	streq	r0, [r1, #-1539]!	; 0xfffff9fd
    2660:	05010611 	streq	r0, [r1, #-1553]	; 0xfffff9ef
    2664:	133f0603 	teqne	pc, #3145728	; 0x300000
    2668:	06070515 			; <UNDEFINED> instruction: 0x06070515
    266c:	06030501 	streq	r0, [r3], -r1, lsl #10
    2670:	060f053e 			; <UNDEFINED> instruction: 0x060f053e
    2674:	06030501 	streq	r0, [r3], -r1, lsl #10
    2678:	060f0530 			; <UNDEFINED> instruction: 0x060f0530
    267c:	06030501 	streq	r0, [r3], -r1, lsl #10
    2680:	060f0522 	streq	r0, [pc], -r2, lsr #10
    2684:	06030501 	streq	r0, [r3], -r1, lsl #10
    2688:	060e0530 			; <UNDEFINED> instruction: 0x060e0530
    268c:	20070501 	andcs	r0, r7, r1, lsl #10
    2690:	23060305 	movwcs	r0, #25349	; 0x6305
    2694:	01060d05 	tsteq	r6, r5, lsl #26
    2698:	05200605 	streq	r0, [r0, #-1541]!	; 0xfffff9fb
    269c:	01053e0c 	tsteq	r5, ip, lsl #28
    26a0:	2c0c0526 	cfstr32cs	mvfx0, [ip], {38}	; 0x26
    26a4:	00010220 	andeq	r0, r1, r0, lsr #4
    26a8:	01050101 	tsteq	r5, r1, lsl #2
    26ac:	00020500 	andeq	r0, r2, r0, lsl #10
    26b0:	03000000 	movweq	r0, #0
    26b4:	050103f9 	streq	r0, [r1, #-1017]	; 0xfffffc07
    26b8:	01051403 	tsteq	r5, r3, lsl #8
    26bc:	01021706 	tsteq	r2, r6, lsl #14
    26c0:	05010100 	streq	r0, [r1, #-256]	; 0xffffff00
    26c4:	02050001 	andeq	r0, r5, #1
    26c8:	00000000 	andeq	r0, r0, r0
    26cc:	0103ea03 	tsteq	r3, r3, lsl #20
    26d0:	03050106 	movweq	r0, #20742	; 0x5106
    26d4:	07052206 	streq	r2, [r5, -r6, lsl #4]
    26d8:	06050106 	streq	r0, [r5], -r6, lsl #2
    26dc:	3301052e 	movwcc	r0, #5422	; 0x152e
    26e0:	1d060505 	cfstr32ne	mvfx0, [r6, #-20]	; 0xffffffec
    26e4:	0601052f 	streq	r0, [r1], -pc, lsr #10
    26e8:	00040230 	andeq	r0, r4, r0, lsr r2
    26ec:	0a670101 	beq	19c2af8 <_Min_Stack_Size+0x19c26f8>
    26f0:	00030000 	andeq	r0, r3, r0
    26f4:	000001e5 	andeq	r0, r0, r5, ror #3
    26f8:	0efb0102 	cdpeq	1, 15, cr0, cr11, cr2, {0}
    26fc:	0101000d 	tsteq	r1, sp
    2700:	00000101 	andeq	r0, r0, r1, lsl #2
    2704:	00000100 	andeq	r0, r0, r0, lsl #2
    2708:	69724401 	ldmdbvs	r2!, {r0, sl, lr}^
    270c:	73726576 	cmnvc	r2, #494927872	; 0x1d800000
    2710:	4d54532f 	ldclmi	3, cr5, [r4, #-188]	; 0xffffff44
    2714:	34473233 	strbcc	r3, [r7], #-563	; 0xfffffdcd
    2718:	485f7878 	ldmdami	pc, {r3, r4, r5, r6, fp, ip, sp, lr}^	; <UNPREDICTABLE>
    271c:	445f4c41 	ldrbmi	r4, [pc], #-3137	; 2724 <_Min_Stack_Size+0x2324>
    2720:	65766972 	ldrbvs	r6, [r6, #-2418]!	; 0xfffff68e
    2724:	72532f72 	subsvc	r2, r3, #456	; 0x1c8
    2728:	3a640063 	bcc	19028bc <_Min_Stack_Size+0x19024bc>
    272c:	6f72705c 	svcvs	0x0072705c
    2730:	6d617267 	sfmvs	f7, 2, [r1, #-412]!	; 0xfffffe64
    2734:	6c696620 	stclvs	6, cr6, [r9], #-128	; 0xffffff80
    2738:	675c7365 	ldrbvs	r7, [ip, -r5, ror #6]
    273c:	612d6363 			; <UNDEFINED> instruction: 0x612d6363
    2740:	6e2d6d72 	mcrvs	13, 1, r6, cr13, cr2, {3}
    2744:	2d656e6f 	stclcs	14, cr6, [r5, #-444]!	; 0xfffffe44
    2748:	69626165 	stmdbvs	r2!, {r0, r2, r5, r6, r8, sp, lr}^
    274c:	2e30312d 	rsfcssp	f3, f0, #5.0
    2750:	30322d33 	eorscc	r2, r2, r3, lsr sp
    2754:	312e3132 			; <UNDEFINED> instruction: 0x312e3132
    2758:	72615c30 	rsbvc	r5, r1, #48, 24	; 0x3000
    275c:	6f6e2d6d 	svcvs	0x006e2d6d
    2760:	652d656e 	strvs	r6, [sp, #-1390]!	; 0xfffffa92
    2764:	5c696261 	sfmpl	f6, 2, [r9], #-388	; 0xfffffe7c
    2768:	6c636e69 	stclvs	14, cr6, [r3], #-420	; 0xfffffe5c
    276c:	5c656475 	cfstrdpl	mvd6, [r5], #-468	; 0xfffffe2c
    2770:	6863616d 	stmdavs	r3!, {r0, r2, r3, r5, r6, r8, sp, lr}^
    2774:	00656e69 	rsbeq	r6, r5, r9, ror #28
    2778:	705c3a64 	subsvc	r3, ip, r4, ror #20
    277c:	72676f72 	rsbvc	r6, r7, #456	; 0x1c8
    2780:	66206d61 	strtvs	r6, [r0], -r1, ror #26
    2784:	73656c69 	cmnvc	r5, #26880	; 0x6900
    2788:	6363675c 	cmnvs	r3, #92, 14	; 0x1700000
    278c:	6d72612d 	ldfvse	f6, [r2, #-180]!	; 0xffffff4c
    2790:	6e6f6e2d 	cdpvs	14, 6, cr6, cr15, cr13, {1}
    2794:	61652d65 	cmnvs	r5, r5, ror #26
    2798:	312d6962 			; <UNDEFINED> instruction: 0x312d6962
    279c:	2d332e30 	ldccs	14, cr2, [r3, #-192]!	; 0xffffff40
    27a0:	31323032 	teqcc	r2, r2, lsr r0
    27a4:	5c30312e 	ldfpls	f3, [r0], #-184	; 0xffffff48
    27a8:	2d6d7261 	sfmcs	f7, 2, [sp, #-388]!	; 0xfffffe7c
    27ac:	656e6f6e 	strbvs	r6, [lr, #-3950]!	; 0xfffff092
    27b0:	6261652d 	rsbvs	r6, r1, #188743680	; 0xb400000
    27b4:	6e695c69 	cdpvs	12, 6, cr5, cr9, cr9, {3}
    27b8:	64756c63 	ldrbtvs	r6, [r5], #-3171	; 0xfffff39d
    27bc:	79735c65 	ldmdbvc	r3!, {r0, r2, r5, r6, sl, fp, ip, lr}^
    27c0:	72440073 	subvc	r0, r4, #115	; 0x73
    27c4:	72657669 	rsbvc	r7, r5, #110100480	; 0x6900000
    27c8:	4d432f73 	stclmi	15, cr2, [r3, #-460]	; 0xfffffe34
    27cc:	2f534953 	svccs	0x00534953
    27d0:	6c636e49 	stclvs	14, cr6, [r3], #-292	; 0xfffffedc
    27d4:	00656475 	rsbeq	r6, r5, r5, ror r4
    27d8:	76697244 	strbtvc	r7, [r9], -r4, asr #4
    27dc:	2f737265 	svccs	0x00737265
    27e0:	49534d43 	ldmdbmi	r3, {r0, r1, r6, r8, sl, fp, lr}^
    27e4:	65442f53 	strbvs	r2, [r4, #-3923]	; 0xfffff0ad
    27e8:	65636976 	strbvs	r6, [r3, #-2422]!	; 0xfffff68a
    27ec:	2f54532f 	svccs	0x0054532f
    27f0:	334d5453 	movtcc	r5, #54355	; 0xd453
    27f4:	78344732 	ldmdavc	r4!, {r1, r4, r5, r8, r9, sl, lr}
    27f8:	6e492f78 	mcrvs	15, 2, r2, cr9, cr8, {3}
    27fc:	64756c63 	ldrbtvs	r6, [r5], #-3171	; 0xfffff39d
    2800:	72440065 	subvc	r0, r4, #101	; 0x65
    2804:	72657669 	rsbvc	r7, r5, #110100480	; 0x6900000
    2808:	54532f73 	ldrbpl	r2, [r3], #-3955	; 0xfffff08d
    280c:	4732334d 	ldrmi	r3, [r2, -sp, asr #6]!
    2810:	5f787834 	svcpl	0x00787834
    2814:	5f4c4148 	svcpl	0x004c4148
    2818:	76697244 	strbtvc	r7, [r9], -r4, asr #4
    281c:	492f7265 	stmdbmi	pc!, {r0, r2, r5, r6, r9, ip, sp, lr}	; <UNPREDICTABLE>
    2820:	0000636e 	andeq	r6, r0, lr, ror #6
    2824:	336d7473 	cmncc	sp, #1929379840	; 0x73000000
    2828:	78346732 	ldmdavc	r4!, {r1, r4, r5, r8, r9, sl, sp, lr}
    282c:	61685f78 	smcvs	34296	; 0x85f8
    2830:	77705f6c 	ldrbvc	r5, [r0, -ip, ror #30]!
    2834:	78655f72 	stmdavc	r5!, {r1, r4, r5, r6, r8, r9, sl, fp, ip, lr}^
    2838:	0100632e 	tsteq	r0, lr, lsr #6
    283c:	645f0000 	ldrbvs	r0, [pc], #-0	; 2844 <_Min_Stack_Size+0x2444>
    2840:	75616665 	strbvc	r6, [r1, #-1637]!	; 0xfffff99b
    2844:	745f746c 	ldrbvc	r7, [pc], #-1132	; 284c <_Min_Stack_Size+0x244c>
    2848:	73657079 	cmnvc	r5, #121	; 0x79
    284c:	0200682e 	andeq	r6, r0, #3014656	; 0x2e0000
    2850:	735f0000 	cmpvc	pc, #0
    2854:	6e696474 	mcrvs	4, 3, r6, cr9, cr4, {3}
    2858:	00682e74 	rsbeq	r2, r8, r4, ror lr
    285c:	63000003 	movwvs	r0, #3
    2860:	5f65726f 	svcpl	0x0065726f
    2864:	2e346d63 	cdpcs	13, 3, cr6, cr4, cr3, {3}
    2868:	00040068 	andeq	r0, r4, r8, rrx
    286c:	6d747300 	ldclvs	3, cr7, [r4, #-0]
    2870:	34673233 	strbtcc	r3, [r7], #-563	; 0xfffffdcd
    2874:	78783337 	ldmdavc	r8!, {r0, r1, r2, r4, r5, r8, r9, ip, sp}^
    2878:	0500682e 	streq	r6, [r0, #-2094]	; 0xfffff7d2
    287c:	74730000 	ldrbtvc	r0, [r3], #-0
    2880:	6732336d 	ldrvs	r3, [r2, -sp, ror #6]!
    2884:	5f787834 	svcpl	0x00787834
    2888:	5f6c6168 	svcpl	0x006c6168
    288c:	2e666564 	cdpcs	5, 6, cr6, cr6, cr4, {3}
    2890:	00060068 	andeq	r0, r6, r8, rrx
    2894:	6d747300 	ldclvs	3, cr7, [r4, #-0]
    2898:	34673233 	strbtcc	r3, [r7], #-563	; 0xfffffdcd
    289c:	685f7878 	ldmdavs	pc, {r3, r4, r5, r6, fp, ip, sp, lr}^	; <UNPREDICTABLE>
    28a0:	705f6c61 	subsvc	r6, pc, r1, ror #24
    28a4:	655f7277 	ldrbvs	r7, [pc, #-631]	; 2635 <_Min_Stack_Size+0x2235>
    28a8:	00682e78 	rsbeq	r2, r8, r8, ror lr
    28ac:	73000006 	movwvc	r0, #6
    28b0:	65747379 	ldrbvs	r7, [r4, #-889]!	; 0xfffffc87
    28b4:	74735f6d 	ldrbtvc	r5, [r3], #-3949	; 0xfffff093
    28b8:	6732336d 	ldrvs	r3, [r2, -sp, ror #6]!
    28bc:	2e787834 	mrccs	8, 3, r7, cr8, cr4, {1}
    28c0:	00050068 	andeq	r0, r5, r8, rrx
    28c4:	6d747300 	ldclvs	3, cr7, [r4, #-0]
    28c8:	34673233 	strbtcc	r3, [r7], #-563	; 0xfffffdcd
    28cc:	685f7878 	ldmdavs	pc, {r3, r4, r5, r6, fp, ip, sp, lr}^	; <UNPREDICTABLE>
    28d0:	705f6c61 	subsvc	r6, pc, r1, ror #24
    28d4:	682e7277 	stmdavs	lr!, {r0, r1, r2, r4, r5, r6, r9, ip, sp, lr}
    28d8:	00000600 	andeq	r0, r0, r0, lsl #12
    28dc:	00010500 	andeq	r0, r1, r0, lsl #10
    28e0:	00000205 	andeq	r0, r0, r5, lsl #4
    28e4:	ed030000 	stc	0, cr0, [r3, #-0]
    28e8:	03050100 	movweq	r0, #20736	; 0x5100
    28ec:	06070513 			; <UNDEFINED> instruction: 0x06070513
    28f0:	4a060501 	bmi	183cfc <_Min_Stack_Size+0x1838fc>
    28f4:	40060805 	andmi	r0, r6, r5, lsl #16
    28f8:	01060c05 	tsteq	r6, r5, lsl #24
    28fc:	052e0b05 	streq	r0, [lr, #-2821]!	; 0xfffff4fb
    2900:	3c090301 	stccc	3, cr0, [r9], {1}
    2904:	7a030c05 	bvc	c5920 <_Min_Stack_Size+0xc5520>
    2908:	00050220 	andeq	r0, r5, r0, lsr #4
    290c:	01050101 	tsteq	r5, r1, lsl #2
    2910:	4c020500 	cfstr32mi	mvfx0, [r2], {-0}
    2914:	0308000e 	movweq	r0, #32782	; 0x800e
    2918:	05010199 	streq	r0, [r1, #-409]	; 0xfffffe67
    291c:	14141303 	ldrne	r1, [r4], #-771	; 0xfffffcfd
    2920:	01060605 	tsteq	r6, r5, lsl #12
    2924:	31060505 	tstcc	r6, r5, lsl #10
    2928:	01060905 	tsteq	r6, r5, lsl #18
    292c:	054a0805 	strbeq	r0, [sl, #-2053]	; 0xfffff7fb
    2930:	17030607 	strne	r0, [r3, -r7, lsl #12]
    2934:	060a053c 			; <UNDEFINED> instruction: 0x060a053c
    2938:	20742803 	rsbscs	r2, r4, r3, lsl #16
    293c:	03060705 	movweq	r0, #26373	; 0x6705
    2940:	69772044 	ldmdbvs	r7!, {r2, r6, sp}^
    2944:	01063505 	tsteq	r6, r5, lsl #10
    2948:	05584805 	ldrbeq	r4, [r8, #-2053]	; 0xfffff7fb
    294c:	07054a17 	smladeq	r5, r7, sl, r4
    2950:	0d052106 	stfeqs	f2, [r5, #-24]	; 0xffffffe8
    2954:	09050106 	stmdbeq	r5, {r1, r2, r8}
    2958:	18052206 	stmdane	r5, {r1, r2, r9, sp}
    295c:	0d050106 	stfeqs	f0, [r5, #-24]	; 0xffffffe8
    2960:	0f051e06 	svceq	0x00051e06
    2964:	0d050106 	stfeqs	f0, [r5, #-24]	; 0xffffffe8
    2968:	0037052e 	eorseq	r0, r7, lr, lsr #10
    296c:	3c010402 	cfstrscc	mvf0, [r1], {2}
    2970:	32060705 	andcc	r0, r6, #1310720	; 0x140000
    2974:	01060b05 	tsteq	r6, r5, lsl #22
    2978:	200a0520 	andcs	r0, sl, r0, lsr #10
    297c:	203c3103 	eorscs	r3, ip, r3, lsl #2
    2980:	03060805 	movweq	r0, #26629	; 0x6805
    2984:	0b05205b 	bleq	14aaf8 <_Min_Stack_Size+0x14a6f8>
    2988:	05050106 	streq	r0, [r5, #-262]	; 0xfffffefa
    298c:	3c200306 	stccc	3, cr0, [r0], #-24	; 0xffffffe8
    2990:	79060a05 	stmdbvc	r6, {r0, r2, r9, fp}
    2994:	06050520 	streq	r0, [r5], -r0, lsr #10
    2998:	05205e03 	streq	r5, [r0, #-3587]!	; 0xfffff1fd
    299c:	05010609 	streq	r0, [r1, #-1545]	; 0xfffff9f7
    29a0:	07054a08 	streq	r4, [r5, -r8, lsl #20]
    29a4:	3c170306 	ldccc	3, cr0, [r7], {6}
    29a8:	03060a05 	movweq	r0, #27141	; 0x6a05
    29ac:	0520740b 	streq	r7, [r0, #-1035]!	; 0xfffffbf5
    29b0:	61030607 	tstvs	r3, r7, lsl #12
    29b4:	05697720 	strbeq	r7, [r9, #-1824]!	; 0xfffff8e0
    29b8:	05010635 	streq	r0, [r1, #-1589]	; 0xfffff9cb
    29bc:	17055848 	strne	r5, [r5, -r8, asr #16]
    29c0:	0607054a 	streq	r0, [r7], -sl, asr #10
    29c4:	060d0521 	streq	r0, [sp], -r1, lsr #10
    29c8:	06090501 	streq	r0, [r9], -r1, lsl #10
    29cc:	06180522 	ldreq	r0, [r8], -r2, lsr #10
    29d0:	060d0501 	streq	r0, [sp], -r1, lsl #10
    29d4:	060f051e 			; <UNDEFINED> instruction: 0x060f051e
    29d8:	2e0d0501 	cfsh32cs	mvfx0, mvfx13, #1
    29dc:	02003705 	andeq	r3, r0, #1310720	; 0x140000
    29e0:	053c0104 	ldreq	r0, [ip, #-260]!	; 0xfffffefc
    29e4:	05320607 	ldreq	r0, [r2, #-1543]!	; 0xfffff9f9
    29e8:	2001060b 	andcs	r0, r1, fp, lsl #12
    29ec:	03200a05 			; <UNDEFINED> instruction: 0x03200a05
    29f0:	05203c14 	streq	r3, [r0, #-3092]!	; 0xfffff3ec
    29f4:	20510310 	subscs	r0, r1, r0, lsl r3
    29f8:	201d0320 	andscs	r0, sp, r0, lsr #6
    29fc:	13030105 	movwne	r0, #12549	; 0x3105
    2a00:	00070220 	andeq	r0, r7, r0, lsr #4
    2a04:	01050101 	tsteq	r5, r1, lsl #2
    2a08:	00020500 	andeq	r0, r2, r0, lsl #10
    2a0c:	03000000 	movweq	r0, #0
    2a10:	050101ee 	streq	r0, [r1, #-494]	; 0xfffffe12
    2a14:	69151303 	ldmdbvs	r5, {r0, r1, r8, r9, ip}
    2a18:	4b060105 	blmi	182e34 <_Min_Stack_Size+0x182a34>
    2a1c:	01000402 	tsteq	r0, r2, lsl #8
    2a20:	00010501 	andeq	r0, r1, r1, lsl #10
    2a24:	00000205 	andeq	r0, r0, r5, lsl #4
    2a28:	fe030000 	cdp2	0, 0, cr0, cr3, cr0, {0}
    2a2c:	03050101 	movweq	r0, #20737	; 0x5101
    2a30:	06010513 			; <UNDEFINED> instruction: 0x06010513
    2a34:	00030259 	andeq	r0, r3, r9, asr r2
    2a38:	01050101 	tsteq	r5, r1, lsl #2
    2a3c:	00020500 	andeq	r0, r2, r0, lsl #10
    2a40:	03000000 	movweq	r0, #0
    2a44:	05010288 	streq	r0, [r1, #-648]	; 0xfffffd78
    2a48:	01051303 	tsteq	r5, r3, lsl #6
    2a4c:	03025906 	movweq	r5, #10502	; 0x2906
    2a50:	05010100 	streq	r0, [r1, #-256]	; 0xffffff00
    2a54:	02050001 	andeq	r0, r5, #1
    2a58:	00000000 	andeq	r0, r0, r0
    2a5c:	01029203 	tsteq	r2, r3, lsl #4
    2a60:	05130305 	ldreq	r0, [r3, #-773]	; 0xfffffcfb
    2a64:	02590601 	subseq	r0, r9, #1048576	; 0x100000
    2a68:	01010003 	tsteq	r1, r3
    2a6c:	05000105 	streq	r0, [r0, #-261]	; 0xfffffefb
    2a70:	00000002 	andeq	r0, r0, r2
    2a74:	02ae0300 	adceq	r0, lr, #0, 6
    2a78:	13030501 	movwne	r0, #13569	; 0x3501
    2a7c:	05141314 	ldreq	r1, [r4, #-788]	; 0xfffffcec
    2a80:	4a068508 	bmi	1a3ea8 <_Min_Stack_Size+0x1a3aa8>
    2a84:	3c062f06 	stccc	15, cr2, [r6], {6}
    2a88:	15053d06 	strne	r3, [r5, #-3334]	; 0xfffff2fa
    2a8c:	01760306 	cmneq	r6, r6, lsl #6
    2a90:	0a030805 	beq	c4aac <_Min_Stack_Size+0xc46ac>
    2a94:	4b220620 	blmi	88431c <_Min_Stack_Size+0x883f1c>
    2a98:	3d063c06 	stccc	12, cr3, [r6, #-24]	; 0xffffffe8
    2a9c:	03061505 	movweq	r1, #25861	; 0x6505
    2aa0:	08050172 	stmdaeq	r5, {r1, r4, r5, r6, r8}
    2aa4:	06200e03 	strteq	r0, [r0], -r3, lsl #28
    2aa8:	3c064b22 			; <UNDEFINED> instruction: 0x3c064b22
    2aac:	15052106 	strne	r2, [r5, #-262]	; 0xfffffefa
    2ab0:	016e0306 	cmneq	lr, r6, lsl #6
    2ab4:	12030805 	andne	r0, r3, #327680	; 0x50000
    2ab8:	4b220620 	blmi	884340 <_Min_Stack_Size+0x883f40>
    2abc:	21063c06 	tstcs	r6, r6, lsl #24
    2ac0:	03061505 	movweq	r1, #25861	; 0x6505
    2ac4:	0805016a 	stmdaeq	r5, {r1, r3, r5, r6, r8}
    2ac8:	06201603 	strteq	r1, [r0], -r3, lsl #12
    2acc:	3c064b22 			; <UNDEFINED> instruction: 0x3c064b22
    2ad0:	15052106 	strne	r2, [r5, #-262]	; 0xfffffefa
    2ad4:	01660306 	cmneq	r6, r6, lsl #6
    2ad8:	1a030805 	bne	c4af4 <_Min_Stack_Size+0xc46f4>
    2adc:	06220620 	strteq	r0, [r2], -r0, lsr #12
    2ae0:	4b2f063c 	blmi	bc43d8 <_Min_Stack_Size+0xbc3fd8>
    2ae4:	03061505 	movweq	r1, #25861	; 0x6505
    2ae8:	08050162 	stmdaeq	r5, {r1, r5, r6, r8}
    2aec:	06201e03 	strteq	r1, [r0], -r3, lsl #28
    2af0:	064a0622 	strbeq	r0, [sl], -r2, lsr #12
    2af4:	063c062f 	ldrteq	r0, [ip], -pc, lsr #12
    2af8:	0615053d 			; <UNDEFINED> instruction: 0x0615053d
    2afc:	05015e03 	streq	r5, [r1, #-3587]	; 0xfffff1fd
    2b00:	20220308 	eorcs	r0, r2, r8, lsl #6
    2b04:	63030305 	movwvs	r0, #13061	; 0x3305
    2b08:	23030620 	movwcs	r0, #13856	; 0x3620
    2b0c:	06010520 	streq	r0, [r1], -r0, lsr #10
    2b10:	00040213 	andeq	r0, r4, r3, lsl r2
    2b14:	01050101 	tsteq	r5, r1, lsl #2
    2b18:	00020500 	andeq	r0, r2, r0, lsl #10
    2b1c:	03000000 	movweq	r0, #0
    2b20:	050102eb 	streq	r0, [r1, #-747]	; 0xfffffd15
    2b24:	13141303 	tstne	r4, #201326592	; 0xc000000
    2b28:	85080514 	strhi	r0, [r8, #-1300]	; 0xfffffaec
    2b2c:	3d064a06 	vstrcc	s8, [r6, #-24]	; 0xffffffe8
    2b30:	03061505 	movweq	r1, #25861	; 0x6505
    2b34:	08050177 	stmdaeq	r5, {r0, r1, r2, r4, r5, r6, r8}
    2b38:	06200903 	strteq	r0, [r0], -r3, lsl #18
    2b3c:	064a0622 	strbeq	r0, [sl], -r2, lsr #12
    2b40:	06150521 	ldreq	r0, [r5], -r1, lsr #10
    2b44:	05017403 	streq	r7, [r1, #-1027]	; 0xfffffbfd
    2b48:	200c0308 	andcs	r0, ip, r8, lsl #6
    2b4c:	4a062206 	bmi	18b36c <_Min_Stack_Size+0x18af6c>
    2b50:	15052106 	strne	r2, [r5, #-262]	; 0xfffffefa
    2b54:	01710306 	cmneq	r1, r6, lsl #6
    2b58:	0f030805 	svceq	0x00030805
    2b5c:	06220620 	strteq	r0, [r2], -r0, lsr #12
    2b60:	0521064a 	streq	r0, [r1, #-1610]!	; 0xfffff9b6
    2b64:	6e030615 	mcrvs	6, 0, r0, cr3, cr5, {0}
    2b68:	03080501 	movweq	r0, #34049	; 0x8501
    2b6c:	22062012 	andcs	r2, r6, #18
    2b70:	21064a06 	tstcs	r6, r6, lsl #20
    2b74:	03061505 	movweq	r1, #25861	; 0x6505
    2b78:	0805016b 	stmdaeq	r5, {r0, r1, r3, r5, r6, r8}
    2b7c:	06201503 	strteq	r1, [r0], -r3, lsl #10
    2b80:	063c0622 	ldrteq	r0, [ip], -r2, lsr #12
    2b84:	0615053d 			; <UNDEFINED> instruction: 0x0615053d
    2b88:	05016803 	streq	r6, [r1, #-2051]	; 0xfffff7fd
    2b8c:	20180308 	andscs	r0, r8, r8, lsl #6
    2b90:	4a062206 	bmi	18b3b0 <_Min_Stack_Size+0x18afb0>
    2b94:	15053d06 	strne	r3, [r5, #-3334]	; 0xfffff2fa
    2b98:	01650306 	cmneq	r5, r6, lsl #6
    2b9c:	1b030805 	blne	c4bb8 <_Min_Stack_Size+0xc47b8>
    2ba0:	03030520 	movweq	r0, #13600	; 0x3520
    2ba4:	0306206a 	movweq	r2, #24682	; 0x606a
    2ba8:	0105201c 	tsteq	r5, ip, lsl r0
    2bac:	03021306 	movweq	r1, #8966	; 0x2306
    2bb0:	05010100 	streq	r0, [r1, #-256]	; 0xffffff00
    2bb4:	02050001 	andeq	r0, r5, #1
    2bb8:	00000000 	andeq	r0, r0, r0
    2bbc:	0103a803 	tsteq	r3, r3, lsl #16
    2bc0:	14130305 	ldrne	r0, [r3], #-773	; 0xfffffcfb
    2bc4:	08051413 	stmdaeq	r5, {r0, r1, r4, sl, ip}
    2bc8:	064a0685 	strbeq	r0, [sl], -r5, lsl #13
    2bcc:	063c062f 	ldrteq	r0, [ip], -pc, lsr #12
    2bd0:	0615053d 			; <UNDEFINED> instruction: 0x0615053d
    2bd4:	05017603 	streq	r7, [r1, #-1539]	; 0xfffff9fd
    2bd8:	200a0308 	andcs	r0, sl, r8, lsl #6
    2bdc:	4a062206 	bmi	18b3fc <_Min_Stack_Size+0x18affc>
    2be0:	3c062f06 	stccc	15, cr2, [r6], {6}
    2be4:	15052106 	strne	r2, [r5, #-262]	; 0xfffffefa
    2be8:	01720306 	cmneq	r2, r6, lsl #6
    2bec:	0e030805 	cdpeq	8, 0, cr0, cr3, cr5, {0}
    2bf0:	4b220620 	blmi	884478 <_Min_Stack_Size+0x884078>
    2bf4:	21063c06 	tstcs	r6, r6, lsl #24
    2bf8:	03061505 	movweq	r1, #25861	; 0x6505
    2bfc:	0805016e 	stmdaeq	r5, {r1, r2, r3, r5, r6, r8}
    2c00:	06201203 	strteq	r1, [r0], -r3, lsl #4
    2c04:	3c064b22 			; <UNDEFINED> instruction: 0x3c064b22
    2c08:	15052106 	strne	r2, [r5, #-262]	; 0xfffffefa
    2c0c:	016a0306 	cmneq	sl, r6, lsl #6
    2c10:	16030805 	strne	r0, [r3], -r5, lsl #16
    2c14:	4b220620 	blmi	88449c <_Min_Stack_Size+0x88409c>
    2c18:	21063c06 	tstcs	r6, r6, lsl #24
    2c1c:	03061505 	movweq	r1, #25861	; 0x6505
    2c20:	08050166 	stmdaeq	r5, {r1, r2, r5, r6, r8}
    2c24:	06201a03 	strteq	r1, [r0], -r3, lsl #20
    2c28:	063c0622 	ldrteq	r0, [ip], -r2, lsr #12
    2c2c:	15054b2f 	strne	r4, [r5, #-2863]	; 0xfffff4d1
    2c30:	01620306 	cmneq	r2, r6, lsl #6
    2c34:	1e030805 	cdpne	8, 0, cr0, cr3, cr5, {0}
    2c38:	06220620 	strteq	r0, [r2], -r0, lsr #12
    2c3c:	062f064a 	strteq	r0, [pc], -sl, asr #12
    2c40:	053d063c 	ldreq	r0, [sp, #-1596]!	; 0xfffff9c4
    2c44:	5e030615 	mcrpl	6, 0, r0, cr3, cr5, {0}
    2c48:	03080501 	movweq	r0, #34049	; 0x8501
    2c4c:	03052022 	movweq	r2, #20514	; 0x5022
    2c50:	06206303 	strteq	r6, [r0], -r3, lsl #6
    2c54:	05202303 	streq	r2, [r0, #-771]!	; 0xfffffcfd
    2c58:	02130601 	andseq	r0, r3, #1048576	; 0x100000
    2c5c:	01010004 	tsteq	r1, r4
    2c60:	05000105 	streq	r0, [r0, #-261]	; 0xfffffefb
    2c64:	00000002 	andeq	r0, r0, r2
    2c68:	03e50300 	mvneq	r0, #0, 6
    2c6c:	13030501 	movwne	r0, #13569	; 0x3501
    2c70:	05141314 	ldreq	r1, [r4, #-788]	; 0xfffffcec
    2c74:	4a068508 	bmi	1a409c <_Min_Stack_Size+0x1a3c9c>
    2c78:	15053d06 	strne	r3, [r5, #-3334]	; 0xfffff2fa
    2c7c:	01770306 	cmneq	r7, r6, lsl #6
    2c80:	09030805 	stmdbeq	r3, {r0, r2, fp}
    2c84:	06220620 	strteq	r0, [r2], -r0, lsr #12
    2c88:	053d064a 	ldreq	r0, [sp, #-1610]!	; 0xfffff9b6
    2c8c:	74030615 	strvc	r0, [r3], #-1557	; 0xfffff9eb
    2c90:	03080501 	movweq	r0, #34049	; 0x8501
    2c94:	2206200c 	andcs	r2, r6, #12
    2c98:	21064a06 	tstcs	r6, r6, lsl #20
    2c9c:	03061505 	movweq	r1, #25861	; 0x6505
    2ca0:	08050171 	stmdaeq	r5, {r0, r4, r5, r6, r8}
    2ca4:	06200f03 	strteq	r0, [r0], -r3, lsl #30
    2ca8:	064a0622 	strbeq	r0, [sl], -r2, lsr #12
    2cac:	06150521 	ldreq	r0, [r5], -r1, lsr #10
    2cb0:	05016e03 	streq	r6, [r1, #-3587]	; 0xfffff1fd
    2cb4:	20120308 	andscs	r0, r2, r8, lsl #6
    2cb8:	4a062206 	bmi	18b4d8 <_Min_Stack_Size+0x18b0d8>
    2cbc:	15052106 	strne	r2, [r5, #-262]	; 0xfffffefa
    2cc0:	016b0306 	cmneq	fp, r6, lsl #6
    2cc4:	15030805 	strne	r0, [r3, #-2053]	; 0xfffff7fb
    2cc8:	06220620 	strteq	r0, [r2], -r0, lsr #12
    2ccc:	053d063c 	ldreq	r0, [sp, #-1596]!	; 0xfffff9c4
    2cd0:	68030615 	stmdavs	r3, {r0, r2, r4, r9, sl}
    2cd4:	03080501 	movweq	r0, #34049	; 0x8501
    2cd8:	22062018 	andcs	r2, r6, #24
    2cdc:	3d064a06 	vstrcc	s8, [r6, #-24]	; 0xffffffe8
    2ce0:	03061505 	movweq	r1, #25861	; 0x6505
    2ce4:	08050165 	stmdaeq	r5, {r0, r2, r5, r6, r8}
    2ce8:	05201b03 	streq	r1, [r0, #-2819]!	; 0xfffff4fd
    2cec:	206a0303 	rsbcs	r0, sl, r3, lsl #6
    2cf0:	201c0306 	andscs	r0, ip, r6, lsl #6
    2cf4:	13060105 	movwne	r0, #24837	; 0x6105
    2cf8:	01000302 	tsteq	r0, r2, lsl #6
    2cfc:	00010501 	andeq	r0, r1, r1, lsl #10
    2d00:	00000205 	andeq	r0, r0, r5, lsl #4
    2d04:	97030000 	strls	r0, [r3, -r0]
    2d08:	03050104 	movweq	r0, #20740	; 0x5104
    2d0c:	06010513 			; <UNDEFINED> instruction: 0x06010513
    2d10:	00030259 	andeq	r0, r3, r9, asr r2
    2d14:	01050101 	tsteq	r5, r1, lsl #2
    2d18:	00020500 	andeq	r0, r2, r0, lsl #10
    2d1c:	03000000 	movweq	r0, #0
    2d20:	050104a3 	streq	r0, [r1, #-1187]	; 0xfffffb5d
    2d24:	01051303 	tsteq	r5, r3, lsl #6
    2d28:	03025906 	movweq	r5, #10502	; 0x2906
    2d2c:	05010100 	streq	r0, [r1, #-256]	; 0xffffff00
    2d30:	02050001 	andeq	r0, r5, #1
    2d34:	00000000 	andeq	r0, r0, r0
    2d38:	0104b003 	tsteq	r4, r3
    2d3c:	05130305 	ldreq	r0, [r3, #-773]	; 0xfffffcfb
    2d40:	02590601 	subseq	r0, r9, #1048576	; 0x100000
    2d44:	01010003 	tsteq	r1, r3
    2d48:	05000105 	streq	r0, [r0, #-261]	; 0xfffffefb
    2d4c:	00000002 	andeq	r0, r0, r2
    2d50:	04bc0300 	ldrteq	r0, [ip], #768	; 0x300
    2d54:	13030501 	movwne	r0, #13569	; 0x3501
    2d58:	59060105 	stmdbpl	r6, {r0, r2, r8}
    2d5c:	01000302 	tsteq	r0, r2, lsl #6
    2d60:	00010501 	andeq	r0, r1, r1, lsl #10
    2d64:	00000205 	andeq	r0, r0, r5, lsl #4
    2d68:	c9030000 	stmdbgt	r3, {}	; <UNPREDICTABLE>
    2d6c:	03050104 	movweq	r0, #20740	; 0x5104
    2d70:	06010513 			; <UNDEFINED> instruction: 0x06010513
    2d74:	00030259 	andeq	r0, r3, r9, asr r2
    2d78:	01050101 	tsteq	r5, r1, lsl #2
    2d7c:	00020500 	andeq	r0, r2, r0, lsl #10
    2d80:	03000000 	movweq	r0, #0
    2d84:	050104d2 	streq	r0, [r1, #-1234]	; 0xfffffb2e
    2d88:	01051303 	tsteq	r5, r3, lsl #6
    2d8c:	03025906 	movweq	r5, #10502	; 0x2906
    2d90:	05010100 	streq	r0, [r1, #-256]	; 0xffffff00
    2d94:	02050001 	andeq	r0, r5, #1
    2d98:	00000000 	andeq	r0, r0, r0
    2d9c:	0104de03 	tsteq	r4, r3, lsl #28
    2da0:	05130305 	ldreq	r0, [r3, #-773]	; 0xfffffcfb
    2da4:	02590601 	subseq	r0, r9, #1048576	; 0x100000
    2da8:	01010003 	tsteq	r1, r3
    2dac:	05000105 	streq	r0, [r0, #-261]	; 0xfffffefb
    2db0:	00000002 	andeq	r0, r0, r2
    2db4:	04e70300 	strbteq	r0, [r7], #768	; 0x300
    2db8:	13030501 	movwne	r0, #13569	; 0x3501
    2dbc:	59060105 	stmdbpl	r6, {r0, r2, r8}
    2dc0:	01000302 	tsteq	r0, r2, lsl #6
    2dc4:	00010501 	andeq	r0, r1, r1, lsl #10
    2dc8:	00000205 	andeq	r0, r0, r5, lsl #4
    2dcc:	f2030000 	vhadd.s8	d0, d3, d0
    2dd0:	03050104 	movweq	r0, #20740	; 0x5104
    2dd4:	06010513 			; <UNDEFINED> instruction: 0x06010513
    2dd8:	00030259 	andeq	r0, r3, r9, asr r2
    2ddc:	01050101 	tsteq	r5, r1, lsl #2
    2de0:	00020500 	andeq	r0, r2, r0, lsl #10
    2de4:	03000000 	movweq	r0, #0
    2de8:	050104fb 	streq	r0, [r1, #-1275]	; 0xfffffb05
    2dec:	01051303 	tsteq	r5, r3, lsl #6
    2df0:	03025906 	movweq	r5, #10502	; 0x2906
    2df4:	05010100 	streq	r0, [r1, #-256]	; 0xffffff00
    2df8:	02050001 	andeq	r0, r5, #1
    2dfc:	00000000 	andeq	r0, r0, r0
    2e00:	01058503 	tsteq	r5, r3, lsl #10
    2e04:	05130305 	ldreq	r0, [r3, #-773]	; 0xfffffcfb
    2e08:	02590601 	subseq	r0, r9, #1048576	; 0x100000
    2e0c:	01010003 	tsteq	r1, r3
    2e10:	05000105 	streq	r0, [r0, #-261]	; 0xfffffefb
    2e14:	00000002 	andeq	r0, r0, r2
    2e18:	058e0300 	streq	r0, [lr, #768]	; 0x300
    2e1c:	13030501 	movwne	r0, #13569	; 0x3501
    2e20:	59060105 	stmdbpl	r6, {r0, r2, r8}
    2e24:	01000302 	tsteq	r0, r2, lsl #6
    2e28:	00010501 	andeq	r0, r1, r1, lsl #10
    2e2c:	00000205 	andeq	r0, r0, r5, lsl #4
    2e30:	a2030000 	andge	r0, r3, #0
    2e34:	03050105 	movweq	r0, #20741	; 0x5105
    2e38:	18131513 	ldmdane	r3, {r0, r1, r4, r8, sl, ip}
    2e3c:	01061505 	tsteq	r6, r5, lsl #10
    2e40:	05200305 	streq	r0, [r0, #-773]!	; 0xfffffcfb
    2e44:	26030607 	strcs	r0, [r3], -r7, lsl #12
    2e48:	4b4b5982 	blmi	12d9458 <_Min_Stack_Size+0x12d9058>
    2e4c:	0615054d 	ldreq	r0, [r5], -sp, asr #10
    2e50:	20090501 	andcs	r0, r9, r1, lsl #10
    2e54:	07053e06 	streq	r3, [r5, -r6, lsl #28]
    2e58:	0615055c 			; <UNDEFINED> instruction: 0x0615055c
    2e5c:	20090501 	andcs	r0, r9, r1, lsl #10
    2e60:	07053e06 	streq	r3, [r5, -r6, lsl #28]
    2e64:	0615055c 			; <UNDEFINED> instruction: 0x0615055c
    2e68:	20090501 	andcs	r0, r9, r1, lsl #10
    2e6c:	07053e06 	streq	r3, [r5, -r6, lsl #28]
    2e70:	0615055b 			; <UNDEFINED> instruction: 0x0615055b
    2e74:	20090501 	andcs	r0, r9, r1, lsl #10
    2e78:	15054c06 	strne	r4, [r5, #-3078]	; 0xfffff3fa
    2e7c:	7fb70306 	svcvc	0x00b70306
    2e80:	03052058 	movweq	r2, #20568	; 0x5058
    2e84:	20200a03 	eorcs	r0, r0, r3, lsl #20
    2e88:	06070520 	streq	r0, [r7], -r0, lsr #10
    2e8c:	2e00e503 	cfsh32cs	mvfx14, mvfx0, #3
    2e90:	4d4b4b59 	vstrmi	d20, [fp, #-356]	; 0xfffffe9c
    2e94:	01061505 	tsteq	r6, r5, lsl #10
    2e98:	06200905 	strteq	r0, [r0], -r5, lsl #18
    2e9c:	5c07053e 	cfstr32pl	mvfx0, [r7], {62}	; 0x3e
    2ea0:	01061505 	tsteq	r6, r5, lsl #10
    2ea4:	06200905 	strteq	r0, [r0], -r5, lsl #18
    2ea8:	5c07053e 	cfstr32pl	mvfx0, [r7], {62}	; 0x3e
    2eac:	01061505 	tsteq	r6, r5, lsl #10
    2eb0:	06200905 	strteq	r0, [r0], -r5, lsl #18
    2eb4:	5b07053e 	blpl	1c43b4 <_Min_Stack_Size+0x1c3fb4>
    2eb8:	01061505 	tsteq	r6, r5, lsl #10
    2ebc:	06200905 	strteq	r0, [r0], -r5, lsl #18
    2ec0:	0615053e 			; <UNDEFINED> instruction: 0x0615053e
    2ec4:	587ef803 	ldmdapl	lr!, {r0, r1, fp, ip, sp, lr, pc}^
    2ec8:	03030520 	movweq	r0, #13600	; 0x3520
    2ecc:	0520200a 	streq	r2, [r0, #-10]!
    2ed0:	59250607 	stmdbpl	r5!, {r0, r1, r2, r9, sl}
    2ed4:	054d4b4b 	strbeq	r4, [sp, #-2891]	; 0xfffff4b5
    2ed8:	05010615 	streq	r0, [r1, #-1557]	; 0xfffff9eb
    2edc:	3e062009 	cdpcc	0, 0, cr2, cr6, cr9, {0}
    2ee0:	055c0705 	ldrbeq	r0, [ip, #-1797]	; 0xfffff8fb
    2ee4:	05010615 	streq	r0, [r1, #-1557]	; 0xfffff9eb
    2ee8:	3e062009 	cdpcc	0, 0, cr2, cr6, cr9, {0}
    2eec:	055c0705 	ldrbeq	r0, [ip, #-1797]	; 0xfffff8fb
    2ef0:	05010615 	streq	r0, [r1, #-1557]	; 0xfffff9eb
    2ef4:	3e062009 	cdpcc	0, 0, cr2, cr6, cr9, {0}
    2ef8:	055b0705 	ldrbeq	r0, [fp, #-1797]	; 0xfffff8fb
    2efc:	05010615 	streq	r0, [r1, #-1557]	; 0xfffff9eb
    2f00:	3e062009 	cdpcc	0, 0, cr2, cr6, cr9, {0}
    2f04:	03061505 	movweq	r1, #25861	; 0x6505
    2f08:	05205858 	streq	r5, [r0, #-2136]!	; 0xfffff7a8
    2f0c:	d0030607 	andle	r0, r3, r7, lsl #12
    2f10:	4b592000 	blmi	164af18 <_Min_Stack_Size+0x164ab18>
    2f14:	15054d4b 	strne	r4, [r5, #-3403]	; 0xfffff2b5
    2f18:	09050106 	stmdbeq	r5, {r1, r2, r8}
    2f1c:	053e0620 	ldreq	r0, [lr, #-1568]!	; 0xfffff9e0
    2f20:	15055c07 	strne	r5, [r5, #-3079]	; 0xfffff3f9
    2f24:	09050106 	stmdbeq	r5, {r1, r2, r8}
    2f28:	053e0620 	ldreq	r0, [lr, #-1568]!	; 0xfffff9e0
    2f2c:	15055c07 	strne	r5, [r5, #-3079]	; 0xfffff3f9
    2f30:	09050106 	stmdbeq	r5, {r1, r2, r8}
    2f34:	053e0620 	ldreq	r0, [lr, #-1568]!	; 0xfffff9e0
    2f38:	15055b07 	strne	r5, [r5, #-2823]	; 0xfffff4f9
    2f3c:	09050106 	stmdbeq	r5, {r1, r2, r8}
    2f40:	053e0620 	ldreq	r0, [lr, #-1568]!	; 0xfffff9e0
    2f44:	97030615 	smladls	r3, r5, r6, r0
    2f48:	2020587f 	eorcs	r5, r0, pc, ror r8
    2f4c:	20202020 	eorcs	r2, r0, r0, lsr #32
    2f50:	03052020 	movweq	r2, #20512	; 0x5020
    2f54:	01910306 	orrseq	r0, r1, r6, lsl #6
    2f58:	06010520 	streq	r0, [r1], -r0, lsr #10
    2f5c:	00030213 	andeq	r0, r3, r3, lsl r2
    2f60:	01050101 	tsteq	r5, r1, lsl #2
    2f64:	00020500 	andeq	r0, r2, r0, lsl #10
    2f68:	03000000 	movweq	r0, #0
    2f6c:	050106c3 	streq	r0, [r1, #-1731]	; 0xfffff93d
    2f70:	01051403 	tsteq	r5, r3, lsl #8
    2f74:	03025906 	movweq	r5, #10502	; 0x2906
    2f78:	05010100 	streq	r0, [r1, #-256]	; 0xffffff00
    2f7c:	02050001 	andeq	r0, r5, #1
    2f80:	00000000 	andeq	r0, r0, r0
    2f84:	0106d203 	tsteq	r6, r3, lsl #4
    2f88:	15130305 	ldrne	r0, [r3, #-773]	; 0xfffffcfb
    2f8c:	0643055b 			; <UNDEFINED> instruction: 0x0643055b
    2f90:	ac130501 	cfldr32ge	mvfx0, [r3], {1}
    2f94:	3d060305 	stccc	3, cr0, [r6, #-20]	; 0xffffffec
    2f98:	01060905 	tsteq	r6, r5, lsl #18
    2f9c:	22060505 	andcs	r0, r6, #20971520	; 0x1400000
    2fa0:	01061405 	tsteq	r6, r5, lsl #8
    2fa4:	1e060905 	vmlane.f16	s0, s12, s10	; <UNPREDICTABLE>
    2fa8:	01060b05 	tsteq	r6, r5, lsl #22
    2fac:	052e0905 	streq	r0, [lr, #-2309]!	; 0xfffff6fb
    2fb0:	04020035 	streq	r0, [r2], #-53	; 0xffffffcb
    2fb4:	03053c01 	movweq	r3, #23553	; 0x5c01
    2fb8:	07053206 	streq	r3, [r5, -r6, lsl #4]
    2fbc:	05200106 	streq	r0, [r0, #-262]!	; 0xfffffefa
    2fc0:	0a052006 	beq	14afe0 <_Min_Stack_Size+0x14abe0>
    2fc4:	2b0c0541 	blcs	3044d0 <_Min_Stack_Size+0x3040d0>
    2fc8:	02240105 	eoreq	r0, r4, #1073741825	; 0x40000001
    2fcc:	01010006 	tsteq	r1, r6
    2fd0:	05000105 	streq	r0, [r0, #-261]	; 0xfffffefb
    2fd4:	00000002 	andeq	r0, r0, r2
    2fd8:	06fe0300 	ldrbteq	r0, [lr], r0, lsl #6
    2fdc:	14030501 	strne	r0, [r3], #-1281	; 0xfffffaff
    2fe0:	055b5b15 	ldrbeq	r5, [fp, #-2837]	; 0xfffff4eb
    2fe4:	06010605 	streq	r0, [r1], -r5, lsl #12
    2fe8:	05212136 	streq	r2, [r1, #-310]!	; 0xfffffeca
    2fec:	01052403 	tsteq	r5, r3, lsl #8
    2ff0:	05055906 	streq	r5, [r5, #-2310]	; 0xfffff6fa
    2ff4:	20740306 	rsbscs	r0, r4, r6, lsl #6
    2ff8:	01000702 	tsteq	r0, r2, lsl #14
    2ffc:	00010501 	andeq	r0, r1, r1, lsl #10
    3000:	00000205 	andeq	r0, r0, r5, lsl #4
    3004:	b1030000 	mrslt	r0, (UNDEF: 3)
    3008:	03050107 	movweq	r0, #20743	; 0x5107
    300c:	5b771514 	blpl	1dc8464 <_Min_Stack_Size+0x1dc8064>
    3010:	01060505 	tsteq	r6, r5, lsl #10
    3014:	21213606 			; <UNDEFINED> instruction: 0x21213606
    3018:	05240305 	streq	r0, [r4, #-773]!	; 0xfffffcfb
    301c:	05590601 	ldrbeq	r0, [r9, #-1537]	; 0xfffff9ff
    3020:	74030605 	strvc	r0, [r3], #-1541	; 0xfffff9fb
    3024:	00070220 	andeq	r0, r7, r0, lsr #4
    3028:	01050101 	tsteq	r5, r1, lsl #2
    302c:	00020500 	andeq	r0, r2, r0, lsl #10
    3030:	03000000 	movweq	r0, #0
    3034:	050107da 	streq	r0, [r1, #-2010]	; 0xfffff826
    3038:	5f771503 	svcpl	0x00771503
    303c:	21060105 	tstcs	r6, r5, lsl #2
    3040:	01000502 	tsteq	r0, r2, lsl #10
    3044:	00010501 	andeq	r0, r1, r1, lsl #10
    3048:	00000205 	andeq	r0, r0, r5, lsl #4
    304c:	ab030000 	blge	c3054 <_Min_Stack_Size+0xc2c54>
    3050:	02160108 	andseq	r0, r6, #8, 2
    3054:	01010001 	tsteq	r1, r1
    3058:	05000105 	streq	r0, [r0, #-261]	; 0xfffffefb
    305c:	00000002 	andeq	r0, r0, r2
    3060:	08b80300 	ldmeq	r8!, {r8, r9}
    3064:	01021601 	tsteq	r2, r1, lsl #12
    3068:	05010100 	streq	r0, [r1, #-256]	; 0xffffff00
    306c:	02050001 	andeq	r0, r5, #1
    3070:	00000000 	andeq	r0, r0, r0
    3074:	0108c403 	tsteq	r8, r3, lsl #8
    3078:	00010216 	andeq	r0, r1, r6, lsl r2
    307c:	01050101 	tsteq	r5, r1, lsl #2
    3080:	00020500 	andeq	r0, r2, r0, lsl #10
    3084:	03000000 	movweq	r0, #0
    3088:	160108cf 	strne	r0, [r1], -pc, asr #17
    308c:	01000102 	tsteq	r0, r2, lsl #2
    3090:	00010501 	andeq	r0, r1, r1, lsl #10
    3094:	00000205 	andeq	r0, r0, r5, lsl #4
    3098:	f3030000 	vhadd.u8	d0, d3, d0
    309c:	03050107 	movweq	r0, #20743	; 0x5107
    30a0:	06060522 	streq	r0, [r6], -r2, lsr #10
    30a4:	2e050501 	cfsh32cs	mvfx0, mvfx5, #1
    30a8:	03060305 	movweq	r0, #25349	; 0x6305
    30ac:	06053c0a 	streq	r3, [r5], -sl, lsl #24
    30b0:	05050106 	streq	r0, [r5, #-262]	; 0xfffffefa
    30b4:	0603052e 	streq	r0, [r3], -lr, lsr #10
    30b8:	053c0a03 	ldreq	r0, [ip, #-2563]!	; 0xfffff5fd
    30bc:	05010606 	streq	r0, [r1, #-1542]	; 0xfffff9fa
    30c0:	03052e05 	movweq	r2, #24069	; 0x5e05
    30c4:	3c090306 	stccc	3, cr0, [r9], {6}
    30c8:	01060605 	tsteq	r6, r5, lsl #12
    30cc:	052e0505 	streq	r0, [lr, #-1285]!	; 0xfffffafb
    30d0:	05440603 	strbeq	r0, [r4, #-1539]	; 0xfffff9fd
    30d4:	05010606 	streq	r0, [r1, #-1542]	; 0xfffff9fa
    30d8:	01052e05 	tsteq	r5, r5, lsl #28
    30dc:	06050544 	streq	r0, [r5], -r4, asr #10
    30e0:	31205603 			; <UNDEFINED> instruction: 0x31205603
    30e4:	3151315f 	cmpcc	r1, pc, asr r1
    30e8:	314f3150 	cmpcc	pc, r0, asr r1	; <UNPREDICTABLE>
    30ec:	3e060105 	adfccs	f0, f6, f5
    30f0:	01000302 	tsteq	r0, r2, lsl #6
    30f4:	00010501 	andeq	r0, r1, r1, lsl #10
    30f8:	00000205 	andeq	r0, r0, r5, lsl #4
    30fc:	db030000 	blle	c3104 <_Min_Stack_Size+0xc2d04>
    3100:	03050108 	movweq	r0, #20744	; 0x5108
    3104:	06010514 			; <UNDEFINED> instruction: 0x06010514
    3108:	00030259 	andeq	r0, r3, r9, asr r2
    310c:	01050101 	tsteq	r5, r1, lsl #2
    3110:	00020500 	andeq	r0, r2, r0, lsl #10
    3114:	03000000 	movweq	r0, #0
    3118:	050108e7 	streq	r0, [r1, #-2279]	; 0xfffff719
    311c:	01051503 	tsteq	r5, r3, lsl #10
    3120:	03025906 	movweq	r5, #10502	; 0x2906
    3124:	05010100 	streq	r0, [r1, #-256]	; 0xffffff00
    3128:	02050001 	andeq	r0, r5, #1
    312c:	00000000 	andeq	r0, r0, r0
    3130:	0108f503 	tsteq	r8, r3, lsl #10	; <UNPREDICTABLE>
    3134:	05140305 	ldreq	r0, [r4, #-773]	; 0xfffffcfb
    3138:	02590601 	subseq	r0, r9, #1048576	; 0x100000
    313c:	01010003 	tsteq	r1, r3
    3140:	05000105 	streq	r0, [r0, #-261]	; 0xfffffefb
    3144:	000f5802 	andeq	r5, pc, r2, lsl #16
    3148:	09850308 	stmibeq	r5, {r3, r8, r9}
    314c:	14030501 	strne	r0, [r3], #-1281	; 0xfffffaff
    3150:	59060105 	stmdbpl	r6, {r0, r2, r8}
    3154:	01000302 	tsteq	r0, r2, lsl #6
    3158:	00075401 	andeq	r5, r7, r1, lsl #8
    315c:	b0000300 	andlt	r0, r0, r0, lsl #6
    3160:	02000001 	andeq	r0, r0, #1
    3164:	0d0efb01 	vstreq	d15, [lr, #-4]
    3168:	01010100 	mrseq	r0, (UNDEF: 17)
    316c:	00000001 	andeq	r0, r0, r1
    3170:	01000001 	tsteq	r0, r1
    3174:	76697244 	strbtvc	r7, [r9], -r4, asr #4
    3178:	2f737265 	svccs	0x00737265
    317c:	334d5453 	movtcc	r5, #54355	; 0xd453
    3180:	78344732 	ldmdavc	r4!, {r1, r4, r5, r8, r9, sl, lr}
    3184:	41485f78 	hvcmi	34296	; 0x85f8
    3188:	72445f4c 	subvc	r5, r4, #76, 30	; 0x130
    318c:	72657669 	rsbvc	r7, r5, #110100480	; 0x6900000
    3190:	6372532f 	cmnvs	r2, #-1140850688	; 0xbc000000
    3194:	69724400 	ldmdbvs	r2!, {sl, lr}^
    3198:	73726576 	cmnvc	r2, #494927872	; 0x1d800000
    319c:	534d432f 	movtpl	r4, #54063	; 0xd32f
    31a0:	492f5349 	stmdbmi	pc!, {r0, r3, r6, r8, r9, ip, lr}	; <UNPREDICTABLE>
    31a4:	756c636e 	strbvc	r6, [ip, #-878]!	; 0xfffffc92
    31a8:	44006564 	strmi	r6, [r0], #-1380	; 0xfffffa9c
    31ac:	65766972 	ldrbvs	r6, [r6, #-2418]!	; 0xfffff68e
    31b0:	432f7372 			; <UNDEFINED> instruction: 0x432f7372
    31b4:	5349534d 	movtpl	r5, #37709	; 0x934d
    31b8:	7665442f 	strbtvc	r4, [r5], -pc, lsr #8
    31bc:	2f656369 	svccs	0x00656369
    31c0:	532f5453 			; <UNDEFINED> instruction: 0x532f5453
    31c4:	32334d54 	eorscc	r4, r3, #84, 26	; 0x1500
    31c8:	78783447 	ldmdavc	r8!, {r0, r1, r2, r6, sl, ip, sp}^
    31cc:	636e492f 	cmnvs	lr, #770048	; 0xbc000
    31d0:	6564756c 	strbvs	r7, [r4, #-1388]!	; 0xfffffa94
    31d4:	5c3a6400 	cfldrspl	mvf6, [sl], #-0
    31d8:	676f7270 			; <UNDEFINED> instruction: 0x676f7270
    31dc:	206d6172 	rsbcs	r6, sp, r2, ror r1
    31e0:	656c6966 	strbvs	r6, [ip, #-2406]!	; 0xfffff69a
    31e4:	63675c73 	cmnvs	r7, #29440	; 0x7300
    31e8:	72612d63 	rsbvc	r2, r1, #6336	; 0x18c0
    31ec:	6f6e2d6d 	svcvs	0x006e2d6d
    31f0:	652d656e 	strvs	r6, [sp, #-1390]!	; 0xfffffa92
    31f4:	2d696261 	sfmcs	f6, 2, [r9, #-388]!	; 0xfffffe7c
    31f8:	332e3031 			; <UNDEFINED> instruction: 0x332e3031
    31fc:	3230322d 	eorscc	r3, r0, #-805306366	; 0xd0000002
    3200:	30312e31 	eorscc	r2, r1, r1, lsr lr
    3204:	6d72615c 	ldfvse	f6, [r2, #-368]!	; 0xfffffe90
    3208:	6e6f6e2d 	cdpvs	14, 6, cr6, cr15, cr13, {1}
    320c:	61652d65 	cmnvs	r5, r5, ror #26
    3210:	695c6962 	ldmdbvs	ip, {r1, r5, r6, r8, fp, sp, lr}^
    3214:	756c636e 	strbvc	r6, [ip, #-878]!	; 0xfffffc92
    3218:	6d5c6564 	cfldr64vs	mvdx6, [ip, #-400]	; 0xfffffe70
    321c:	69686361 	stmdbvs	r8!, {r0, r5, r6, r8, r9, sp, lr}^
    3220:	6400656e 	strvs	r6, [r0], #-1390	; 0xfffffa92
    3224:	72705c3a 	rsbsvc	r5, r0, #14848	; 0x3a00
    3228:	6172676f 	cmnvs	r2, pc, ror #14
    322c:	6966206d 	stmdbvs	r6!, {r0, r2, r3, r5, r6, sp}^
    3230:	5c73656c 	cfldr64pl	mvdx6, [r3], #-432	; 0xfffffe50
    3234:	2d636367 	stclcs	3, cr6, [r3, #-412]!	; 0xfffffe64
    3238:	2d6d7261 	sfmcs	f7, 2, [sp, #-388]!	; 0xfffffe7c
    323c:	656e6f6e 	strbvs	r6, [lr, #-3950]!	; 0xfffff092
    3240:	6261652d 	rsbvs	r6, r1, #188743680	; 0xb400000
    3244:	30312d69 	eorscc	r2, r1, r9, ror #26
    3248:	322d332e 	eorcc	r3, sp, #-1207959552	; 0xb8000000
    324c:	2e313230 	mrccs	2, 1, r3, cr1, cr0, {1}
    3250:	615c3031 	cmpvs	ip, r1, lsr r0
    3254:	6e2d6d72 	mcrvs	13, 1, r6, cr13, cr2, {3}
    3258:	2d656e6f 	stclcs	14, cr6, [r5, #-444]!	; 0xfffffe44
    325c:	69626165 	stmdbvs	r2!, {r0, r2, r5, r6, r8, sp, lr}^
    3260:	636e695c 	cmnvs	lr, #92, 18	; 0x170000
    3264:	6564756c 	strbvs	r7, [r4, #-1388]!	; 0xfffffa94
    3268:	7379735c 	cmnvc	r9, #92, 6	; 0x70000001
    326c:	69724400 	ldmdbvs	r2!, {sl, lr}^
    3270:	73726576 	cmnvc	r2, #494927872	; 0x1d800000
    3274:	4d54532f 	ldclmi	3, cr5, [r4, #-188]	; 0xffffff44
    3278:	34473233 	strbcc	r3, [r7], #-563	; 0xfffffdcd
    327c:	485f7878 	ldmdami	pc, {r3, r4, r5, r6, fp, ip, sp, lr}^	; <UNPREDICTABLE>
    3280:	445f4c41 	ldrbmi	r4, [pc], #-3137	; 3288 <_Min_Stack_Size+0x2e88>
    3284:	65766972 	ldrbvs	r6, [r6, #-2418]!	; 0xfffff68e
    3288:	6e492f72 	mcrvs	15, 2, r2, cr9, cr2, {3}
    328c:	73000063 	movwvc	r0, #99	; 0x63
    3290:	32336d74 	eorscc	r6, r3, #116, 26	; 0x1d00
    3294:	78783467 	ldmdavc	r8!, {r0, r1, r2, r5, r6, sl, ip, sp}^
    3298:	6c61685f 	stclvs	8, cr6, [r1], #-380	; 0xfffffe84
    329c:	726f635f 	rsbvc	r6, pc, #2080374785	; 0x7c000001
    32a0:	2e786574 	mrccs	5, 3, r6, cr8, cr4, {3}
    32a4:	00010063 	andeq	r0, r1, r3, rrx
    32a8:	726f6300 	rsbvc	r6, pc, #0, 6
    32ac:	6d635f65 	stclvs	15, cr5, [r3, #-404]!	; 0xfffffe6c
    32b0:	00682e34 	rsbeq	r2, r8, r4, lsr lr
    32b4:	63000002 	movwvs	r0, #2
    32b8:	7369736d 	cmnvc	r9, #-1275068415	; 0xb4000001
    32bc:	6363675f 	cmnvs	r3, #24903680	; 0x17c0000
    32c0:	0200682e 	andeq	r6, r0, #3014656	; 0x2e0000
    32c4:	74730000 	ldrbtvc	r0, [r3], #-0
    32c8:	6732336d 	ldrvs	r3, [r2, -sp, ror #6]!
    32cc:	78333734 	ldmdavc	r3!, {r2, r4, r5, r8, r9, sl, ip, sp}
    32d0:	00682e78 	rsbeq	r2, r8, r8, ror lr
    32d4:	5f000003 	svcpl	0x00000003
    32d8:	61666564 	cmnvs	r6, r4, ror #10
    32dc:	5f746c75 	svcpl	0x00746c75
    32e0:	65707974 	ldrbvs	r7, [r0, #-2420]!	; 0xfffff68c
    32e4:	00682e73 	rsbeq	r2, r8, r3, ror lr
    32e8:	5f000004 	svcpl	0x00000004
    32ec:	69647473 	stmdbvs	r4!, {r0, r1, r4, r5, r6, sl, ip, sp, lr}^
    32f0:	682e746e 	stmdavs	lr!, {r1, r2, r3, r5, r6, sl, ip, sp, lr}
    32f4:	00000500 	andeq	r0, r0, r0, lsl #10
    32f8:	336d7473 	cmncc	sp, #1929379840	; 0x73000000
    32fc:	78346732 	ldmdavc	r4!, {r1, r4, r5, r8, r9, sl, sp, lr}
    3300:	61685f78 	smcvs	34296	; 0x85f8
    3304:	6f635f6c 	svcvs	0x00635f6c
    3308:	78657472 	stmdavc	r5!, {r1, r4, r5, r6, sl, ip, sp, lr}^
    330c:	0600682e 	streq	r6, [r0], -lr, lsr #16
    3310:	05000000 	streq	r0, [r0, #-0]
    3314:	02050001 	andeq	r0, r5, #1
    3318:	08000f68 	stmdaeq	r0, {r3, r5, r6, r8, r9, sl, fp}
    331c:	0101a303 	tsteq	r1, r3, lsl #6
    3320:	15140305 	ldrne	r0, [r4, #-773]	; 0xfffffcfb
    3324:	16050204 	strne	r0, [r5], -r4, lsl #4
    3328:	010bc703 	tsteq	fp, r3, lsl #14
    332c:	13140305 	tstne	r4, #335544320	; 0x14000000
    3330:	060e0514 			; <UNDEFINED> instruction: 0x060e0514
    3334:	06030501 	streq	r0, [r3], -r1, lsl #10
    3338:	060d052f 	streq	r0, [sp], -pc, lsr #10
    333c:	03052e01 	movweq	r2, #24065	; 0x5e01
    3340:	23052f06 	movwcs	r2, #24326	; 0x5f06
    3344:	05201406 	streq	r1, [r0, #-1030]!	; 0xfffffbfa
    3348:	0e052d3e 	mcreq	13, 0, r2, cr5, cr14, {1}
    334c:	0603051f 			; <UNDEFINED> instruction: 0x0603051f
    3350:	060e054d 	streq	r0, [lr], -sp, asr #10
    3354:	01042001 	tsteq	r4, r1
    3358:	b0030105 	andlt	r0, r3, r5, lsl #2
    335c:	03020174 	movweq	r0, #8564	; 0x2174
    3360:	05010100 	streq	r0, [r1, #-256]	; 0xffffff00
    3364:	02050001 	andeq	r0, r5, #1
    3368:	08000f8c 	stmdaeq	r0, {r2, r3, r7, r8, r9, sl, fp}
    336c:	0101b903 	tsteq	r1, r3, lsl #18
    3370:	03050106 	movweq	r0, #20742	; 0x5106
    3374:	13152106 	tstne	r5, #-2147483647	; 0x80000001
    3378:	05020414 	streq	r0, [r2, #-1044]	; 0xfffffbec
    337c:	0bc2031a 	bleq	ff083fec <BootRAM+0xd27478d>
    3380:	14030501 	strne	r0, [r3], #-1281	; 0xfffffaff
    3384:	01061a05 	tsteq	r6, r5, lsl #20
    3388:	2e2e0b05 	vmulcs.f64	d0, d14, d5
    338c:	03050104 	movweq	r0, #20740	; 0x5104
    3390:	74be0306 	ldrtvc	r0, [lr], #774	; 0x306
    3394:	05020401 	streq	r0, [r2, #-1025]	; 0xfffffbff
    3398:	0cfd031a 	ldcleq	3, cr0, [sp], #104	; 0x68
    339c:	14030501 	strne	r0, [r3], #-1281	; 0xfffffaff
    33a0:	05141313 	ldreq	r1, [r4, #-787]	; 0xfffffced
    33a4:	0501061f 	streq	r0, [r1, #-1567]	; 0xfffff9e1
    33a8:	03052e17 	movweq	r2, #24087	; 0x5e17
    33ac:	2c055906 			; <UNDEFINED> instruction: 0x2c055906
    33b0:	6d050106 	stfvss	f0, [r5, #-24]	; 0xffffffe8
    33b4:	0603052e 	streq	r0, [r3], -lr, lsr #10
    33b8:	061e054c 	ldreq	r0, [lr], -ip, asr #10
    33bc:	052e2e13 	streq	r2, [lr, #-3603]!	; 0xfffff1ed
    33c0:	1e052e52 	mcrne	14, 0, r2, cr5, cr2, {2}
    33c4:	66052e21 	strvs	r2, [r5], -r1, lsr #28
    33c8:	1605202d 	strne	r2, [r5], -sp, lsr #32
    33cc:	01470306 	cmpeq	r7, r6, lsl #6
    33d0:	05140305 	ldreq	r0, [r4, #-773]	; 0xfffffcfb
    33d4:	05010606 	streq	r0, [r1, #-1542]	; 0xfffff9fa
    33d8:	05300605 	ldreq	r0, [r0, #-1541]!	; 0xfffff9fb
    33dc:	20010630 	andcs	r0, r1, r0, lsr r6
    33e0:	2e202e05 	cdpcs	14, 2, cr2, cr0, cr5, {0}
    33e4:	0501044a 	streq	r0, [r1, #-1098]	; 0xfffffbb6
    33e8:	73af0301 			; <UNDEFINED> instruction: 0x73af0301
    33ec:	05020401 	streq	r0, [r2, #-1025]	; 0xfffffbff
    33f0:	0d83036d 	stceq	3, cr0, [r3, #436]	; 0x1b4
    33f4:	0520202e 	streq	r2, [r0, #-46]!	; 0xffffffd2
    33f8:	52030605 	andpl	r0, r3, #5242880	; 0x500000
    33fc:	06200501 	strteq	r0, [r0], -r1, lsl #10
    3400:	2e300501 	cdpcs	5, 3, cr0, cr0, cr1, {0}
    3404:	202e0520 	eorcs	r0, lr, r0, lsr #10
    3408:	0501042e 	streq	r0, [r1, #-1070]	; 0xfffffbd2
    340c:	73ab0301 			; <UNDEFINED> instruction: 0x73ab0301
    3410:	00060201 	andeq	r0, r6, r1, lsl #4
    3414:	01050101 	tsteq	r5, r1, lsl #2
    3418:	00020500 	andeq	r0, r2, r0, lsl #10
    341c:	03000000 	movweq	r0, #0
    3420:	050101cf 	streq	r0, [r1, #-463]	; 0xfffffe31
    3424:	04151403 	ldreq	r1, [r5], #-1027	; 0xfffffbfd
    3428:	03160502 	tsteq	r6, #8388608	; 0x800000
    342c:	05010bba 	streq	r0, [r1, #-3002]	; 0xfffff446
    3430:	06051403 	streq	r1, [r5], -r3, lsl #8
    3434:	05200106 	streq	r0, [r0, #-262]!	; 0xfffffefa
    3438:	13220605 			; <UNDEFINED> instruction: 0x13220605
    343c:	01065105 	tsteq	r6, r5, lsl #2
    3440:	052e2205 	streq	r2, [lr, #-517]!	; 0xfffffdfb
    3444:	2b05202d 	blcs	14b500 <_Min_Stack_Size+0x14b100>
    3448:	0605052e 	streq	r0, [r5], -lr, lsr #10
    344c:	0401063d 	streq	r0, [r1], #-1597	; 0xfffff9c3
    3450:	03010501 	movweq	r0, #5377	; 0x1501
    3454:	020174c1 	andeq	r7, r1, #-1056964608	; 0xc1000000
    3458:	01010004 	tsteq	r1, r4
    345c:	05000105 	streq	r0, [r0, #-261]	; 0xfffffefb
    3460:	00000002 	andeq	r0, r0, r2
    3464:	01df0300 	bicseq	r0, pc, r0, lsl #6
    3468:	14030501 	strne	r0, [r3], #-1281	; 0xfffffaff
    346c:	05020415 	streq	r0, [r2, #-1045]	; 0xfffffbeb
    3470:	0bd00316 	bleq	ff4040d0 <BootRAM+0xd5f4871>
    3474:	14030501 	strne	r0, [r3], #-1281	; 0xfffffaff
    3478:	01060605 	tsteq	r6, r5, lsl #12
    347c:	06050520 	streq	r0, [r5], -r0, lsr #10
    3480:	06510522 	ldrbeq	r0, [r1], -r2, lsr #10
    3484:	2e220501 	cfsh64cs	mvdx0, mvdx2, #1
    3488:	05202d05 	streq	r2, [r0, #-3333]!	; 0xfffff2fb
    348c:	05052e2b 	streq	r2, [r5, #-3627]	; 0xfffff1d5
    3490:	03044b06 	movweq	r4, #19206	; 0x4b06
    3494:	f6031b05 			; <UNDEFINED> instruction: 0xf6031b05
    3498:	03050179 	movweq	r0, #20857	; 0x5179
    349c:	05020414 	streq	r0, [r2, #-1044]	; 0xfffffbec
    34a0:	06890305 	streq	r0, [r9], r5, lsl #6
    34a4:	0503042e 	streq	r0, [r3, #-1070]	; 0xfffffbd2
    34a8:	79ea031b 	stmibvc	sl!, {r0, r1, r3, r4, r8, r9}^
    34ac:	14030501 	strne	r0, [r3], #-1281	; 0xfffffaff
    34b0:	01042e06 	tsteq	r4, r6, lsl #28
    34b4:	bf030105 	svclt	0x00030105
    34b8:	0302017a 	movweq	r0, #8570	; 0x217a
    34bc:	05010100 	streq	r0, [r1, #-256]	; 0xffffff00
    34c0:	02050001 	andeq	r0, r5, #1
    34c4:	00000000 	andeq	r0, r0, r0
    34c8:	0101ec03 	tsteq	r1, r3, lsl #24
    34cc:	04140305 	ldreq	r0, [r4], #-773	; 0xfffffcfb
    34d0:	03220502 			; <UNDEFINED> instruction: 0x03220502
    34d4:	05010d9e 	streq	r0, [r1, #-3486]	; 0xfffff262
    34d8:	03041403 	movweq	r1, #17411	; 0x4403
    34dc:	a1031b05 	tstge	r3, r5, lsl #22
    34e0:	03050178 	movweq	r0, #20856	; 0x5178
    34e4:	03020414 	movweq	r0, #9236	; 0x2414
    34e8:	052e07df 	streq	r0, [lr, #-2015]!	; 0xfffff821
    34ec:	05130620 	ldreq	r0, [r3, #-1568]	; 0xfffff9e0
    34f0:	11052e28 	tstne	r5, r8, lsr #28
    34f4:	2e0f052d 	cfsh32cs	mvfx0, mvfx15, #29
    34f8:	23060305 	movwcs	r0, #25349	; 0x6305
    34fc:	1b050304 	blne	144114 <_Min_Stack_Size+0x143d14>
    3500:	01789c03 	cmneq	r8, r3, lsl #24
    3504:	04140305 	ldreq	r0, [r4], #-773	; 0xfffffcfb
    3508:	07e40302 	strbeq	r0, [r4, r2, lsl #6]!
    350c:	1405052e 	strne	r0, [r5], #-1326	; 0xfffffad2
    3510:	021e0805 	andseq	r0, lr, #327680	; 0x50000
    3514:	01010006 	tsteq	r1, r6
    3518:	05000105 	streq	r0, [r0, #-261]	; 0xfffffefb
    351c:	000ffc02 	andeq	pc, pc, r2, lsl #24
    3520:	01f90308 	mvnseq	r0, r8, lsl #6
    3524:	13040501 	movwne	r0, #17665	; 0x4501
    3528:	1a050204 	bne	143d40 <_Min_Stack_Size+0x143940>
    352c:	010de603 	tsteq	sp, r3, lsl #12
    3530:	05140305 	ldreq	r0, [r4, #-773]	; 0xfffffcfb
    3534:	0501060e 	streq	r0, [r1, #-1550]	; 0xfffff9f2
    3538:	03052006 	movweq	r2, #20486	; 0x5006
    353c:	12054106 	andne	r4, r5, #-2147483647	; 0x80000001
    3540:	03050106 	movweq	r0, #20742	; 0x5106
    3544:	16053d06 	strne	r3, [r5], -r6, lsl #26
    3548:	017ea803 	cmneq	lr, r3, lsl #16
    354c:	05140305 	ldreq	r0, [r4, #-773]	; 0xfffffcfb
    3550:	2e051805 	cdpcs	8, 0, cr1, cr5, cr5, {0}
    3554:	054a0106 	strbeq	r0, [sl, #-262]	; 0xfffffefa
    3558:	d1030603 	tstle	r3, r3, lsl #12
    355c:	12050101 	andne	r0, r5, #1073741824	; 0x40000000
    3560:	05200106 	streq	r0, [r0, #-262]!	; 0xfffffefa
    3564:	05210603 	streq	r0, [r1, #-1539]!	; 0xfffff9fd
    3568:	05010612 	streq	r0, [r1, #-1554]	; 0xfffff9ee
    356c:	05310603 	ldreq	r0, [r1, #-1539]!	; 0xfffff9fd
    3570:	0501060a 	streq	r0, [r1, #-1546]	; 0xfffff9f6
    3574:	2077030c 	rsbscs	r0, r7, ip, lsl #6
    3578:	05010420 	streq	r0, [r1, #-1056]	; 0xfffffbe0
    357c:	72970301 	addsvc	r0, r7, #67108864	; 0x4000000
    3580:	00030201 	andeq	r0, r3, r1, lsl #4
    3584:	01050101 	tsteq	r5, r1, lsl #2
    3588:	00020500 	andeq	r0, r2, r0, lsl #10
    358c:	03000000 	movweq	r0, #0
    3590:	05010295 	streq	r0, [r1, #-661]	; 0xfffffd6b
    3594:	02041403 	andeq	r1, r4, #50331648	; 0x3000000
    3598:	eb031a05 	bl	c9db4 <_Min_Stack_Size+0xc99b4>
    359c:	0305010a 	movweq	r0, #20746	; 0x510a
    35a0:	061a0514 			; <UNDEFINED> instruction: 0x061a0514
    35a4:	05010401 	streq	r0, [r1, #-1025]	; 0xfffffbff
    35a8:	75940301 	ldrvc	r0, [r4, #769]	; 0x301
    35ac:	0006022e 	andeq	r0, r6, lr, lsr #4
    35b0:	01050101 	tsteq	r5, r1, lsl #2
    35b4:	00020500 	andeq	r0, r2, r0, lsl #10
    35b8:	03000000 	movweq	r0, #0
    35bc:	060102b0 			; <UNDEFINED> instruction: 0x060102b0
    35c0:	06030501 	streq	r0, [r3], -r1, lsl #10
    35c4:	02041422 	andeq	r1, r4, #570425344	; 0x22000000
    35c8:	f2031a05 	vpmax.s8	d1, d3, d5
    35cc:	0305010b 	movweq	r0, #20747	; 0x510b
    35d0:	06060515 			; <UNDEFINED> instruction: 0x06060515
    35d4:	05052001 	streq	r2, [r5, #-1]
    35d8:	1f052206 	svcne	0x00052206
    35dc:	40050106 	andmi	r0, r5, r6, lsl #2
    35e0:	16052066 	strne	r2, [r5], -r6, rrx
    35e4:	012f0306 			; <UNDEFINED> instruction: 0x012f0306
    35e8:	05140305 	ldreq	r0, [r4, #-773]	; 0xfffffcfb
    35ec:	0501060c 	streq	r0, [r1, #-1548]	; 0xfffff9f4
    35f0:	132f0603 			; <UNDEFINED> instruction: 0x132f0603
    35f4:	061f0514 			; <UNDEFINED> instruction: 0x061f0514
    35f8:	2e170501 	cfmul32cs	mvfx0, mvfx7, mvfx1
    35fc:	59060305 	stmdbpl	r6, {r0, r2, r8, r9}
    3600:	01062c05 	tsteq	r6, r5, lsl #24
    3604:	05206d05 	streq	r6, [r0, #-3333]!	; 0xfffff2fb
    3608:	053e0603 	ldreq	r0, [lr, #-1539]!	; 0xfffff9fd
    360c:	05010621 	streq	r0, [r1, #-1569]	; 0xfffff9df
    3610:	054a2e35 	strbeq	r2, [sl, #-3637]	; 0xfffff1cb
    3614:	03052e15 	movweq	r2, #24085	; 0x5e15
    3618:	35052106 	strcc	r2, [r5, #-262]	; 0xfffffefa
    361c:	052e0106 	streq	r0, [lr, #-262]!	; 0xfffffefa
    3620:	04202e15 	strteq	r2, [r0], #-3605	; 0xfffff1eb
    3624:	03010501 	movweq	r0, #5377	; 0x1501
    3628:	040173d1 	streq	r7, [r1], #-977	; 0xfffffc2f
    362c:	06050502 	streq	r0, [r5], -r2, lsl #10
    3630:	200bfa03 	andcs	pc, fp, r3, lsl #20
    3634:	01063205 	tsteq	r6, r5, lsl #4
    3638:	052e1f05 	streq	r1, [lr, #-3845]!	; 0xfffff0fb
    363c:	052e2e40 	streq	r2, [lr, #-3648]!	; 0xfffff1c0
    3640:	0132036d 	teqeq	r2, sp, ror #6
    3644:	00030220 	andeq	r0, r3, r0, lsr #4
    3648:	01050101 	tsteq	r5, r1, lsl #2
    364c:	00020500 	andeq	r0, r2, r0, lsl #10
    3650:	03000000 	movweq	r0, #0
    3654:	050102bf 	streq	r0, [r1, #-703]	; 0xfffffd41
    3658:	04151403 	ldreq	r1, [r5], #-1027	; 0xfffffbfd
    365c:	03160502 	tsteq	r6, #8388608	; 0x800000
    3660:	05010b96 	streq	r0, [r1, #-2966]	; 0xfffff46a
    3664:	06051403 	streq	r1, [r5], -r3, lsl #8
    3668:	05200106 	streq	r0, [r0, #-262]!	; 0xfffffefa
    366c:	05220605 	streq	r0, [r2, #-1541]!	; 0xfffff9fb
    3670:	05010651 	streq	r0, [r1, #-1617]	; 0xfffff9af
    3674:	2d052e22 	stccs	14, cr2, [r5, #-136]	; 0xffffff78
    3678:	2e2b0520 	cfsh64cs	mvdx0, mvdx11, #16
    367c:	0501044a 	streq	r0, [r1, #-1098]	; 0xfffffbb6
    3680:	74e70301 	strbtvc	r0, [r7], #769	; 0x301
    3684:	00030201 	andeq	r0, r3, r1, lsl #4
    3688:	01050101 	tsteq	r5, r1, lsl #2
    368c:	00020500 	andeq	r0, r2, r0, lsl #10
    3690:	03000000 	movweq	r0, #0
    3694:	050102d1 	streq	r0, [r1, #-721]	; 0xfffffd2f
    3698:	04151403 	ldreq	r1, [r5], #-1027	; 0xfffffbfd
    369c:	031a0502 	tsteq	sl, #8388608	; 0x800000
    36a0:	05010af1 	streq	r0, [r1, #-2801]	; 0xfffff50f
    36a4:	06051403 	streq	r1, [r5], -r3, lsl #8
    36a8:	05200106 	streq	r0, [r0, #-262]!	; 0xfffffefa
    36ac:	05220605 	streq	r0, [r2, #-1541]!	; 0xfffff9fb
    36b0:	05010636 	streq	r0, [r1, #-1590]	; 0xfffff9ca
    36b4:	5b052023 	blpl	14b748 <_Min_Stack_Size+0x14b348>
    36b8:	2e67054a 	cdpcs	5, 6, cr0, cr7, cr10, {2}
    36bc:	052e0c05 	streq	r0, [lr, #-3077]!	; 0xfffff3fb
    36c0:	0420400b 	strteq	r4, [r0], #-11
    36c4:	03010501 	movweq	r0, #5377	; 0x1501
    36c8:	02017588 	andeq	r7, r1, #136, 10	; 0x22000000
    36cc:	01010003 	tsteq	r1, r3
    36d0:	05000105 	streq	r0, [r0, #-261]	; 0xfffffefb
    36d4:	00000002 	andeq	r0, r0, r2
    36d8:	02e10300 	rsceq	r0, r1, #0, 6
    36dc:	14030501 	strne	r0, [r3], #-1281	; 0xfffffaff
    36e0:	05020415 	streq	r0, [r2, #-1045]	; 0xfffffbeb
    36e4:	0b830316 	bleq	fe0c4344 <BootRAM+0xc2b4ae5>
    36e8:	14030501 	strne	r0, [r3], #-1281	; 0xfffffaff
    36ec:	01060605 	tsteq	r6, r5, lsl #12
    36f0:	06050520 	streq	r0, [r5], -r0, lsr #10
    36f4:	06510522 	ldrbeq	r0, [r1], -r2, lsr #10
    36f8:	2e220501 	cfsh64cs	mvdx0, mvdx2, #1
    36fc:	05202d05 	streq	r2, [r0, #-3333]!	; 0xfffff2fb
    3700:	044a2e2b 	strbeq	r2, [sl], #-3627	; 0xfffff1d5
    3704:	03010501 	movweq	r0, #5377	; 0x1501
    3708:	020174fa 	andeq	r7, r1, #-100663296	; 0xfa000000
    370c:	01010003 	tsteq	r1, r3
    3710:	05000105 	streq	r0, [r0, #-261]	; 0xfffffefb
    3714:	00000002 	andeq	r0, r0, r2
    3718:	02f20300 	rscseq	r0, r2, #0, 6
    371c:	14030501 	strne	r0, [r3], #-1281	; 0xfffffaff
    3720:	1a050204 	bne	143f38 <_Min_Stack_Size+0x143b38>
    3724:	010b8603 	tsteq	fp, r3, lsl #12
    3728:	05140305 	ldreq	r0, [r4, #-773]	; 0xfffffcfb
    372c:	20010606 	andcs	r0, r1, r6, lsl #12
    3730:	22060505 	andcs	r0, r6, #20971520	; 0x1400000
    3734:	01063605 	tsteq	r6, r5, lsl #12
    3738:	05202305 	streq	r2, [r0, #-773]!	; 0xfffffcfb
    373c:	67054a5b 	smlsdvs	r5, fp, sl, r4
    3740:	2e0c052e 	cfsh32cs	mvfx0, mvfx12, #30
    3744:	20400b05 	subcs	r0, r0, r5, lsl #22
    3748:	01050104 	tsteq	r5, r4, lsl #2
    374c:	0174f303 	cmneq	r4, r3, lsl #6	; <UNPREDICTABLE>
    3750:	01000302 	tsteq	r0, r2, lsl #6
    3754:	00010501 	andeq	r0, r1, r1, lsl #10
    3758:	00000205 	andeq	r0, r0, r5, lsl #4
    375c:	80030000 	andhi	r0, r3, r0
    3760:	03050103 	movweq	r0, #20739	; 0x5103
    3764:	06051314 			; <UNDEFINED> instruction: 0x06051314
    3768:	05050106 	streq	r0, [r5, #-262]	; 0xfffffefa
    376c:	13053406 	movwne	r3, #21510	; 0x5406
    3770:	01050106 	tsteq	r5, r6, lsl #2
    3774:	06050568 	streq	r0, [r5], -r8, ror #10
    3778:	05207a03 	streq	r7, [r0, #-2563]!	; 0xfffff5fd
    377c:	02010613 	andeq	r0, r1, #19922944	; 0x1300000
    3780:	01010007 	tsteq	r1, r7
    3784:	05000105 	streq	r0, [r0, #-261]	; 0xfffffefb
    3788:	00000002 	andeq	r0, r0, r2
    378c:	039b0300 	orrseq	r0, fp, #0, 6
    3790:	01021601 	tsteq	r2, r1, lsl #12
    3794:	05010100 	streq	r0, [r1, #-256]	; 0xffffff00
    3798:	02050001 	andeq	r0, r5, #1
    379c:	00000000 	andeq	r0, r0, r0
    37a0:	01039203 	tsteq	r3, r3, lsl #4
    37a4:	05210305 	streq	r0, [r1, #-773]!	; 0xfffffcfb
    37a8:	022f0601 	eoreq	r0, pc, #1048576	; 0x100000
    37ac:	01010001 	tsteq	r1, r1
    37b0:	05000105 	streq	r0, [r0, #-261]	; 0xfffffefb
    37b4:	00000002 	andeq	r0, r0, r2
    37b8:	03ae0300 			; <UNDEFINED> instruction: 0x03ae0300
    37bc:	14030501 	strne	r0, [r3], #-1281	; 0xfffffaff
    37c0:	01061c05 	tsteq	r6, r5, lsl #24
    37c4:	052e0d05 	streq	r0, [lr, #-3333]!	; 0xfffff2fb
    37c8:	043f0603 	ldrteq	r0, [pc], #-1539	; 37d0 <_Min_Stack_Size+0x33d0>
    37cc:	031b0503 	tsteq	fp, #12582912	; 0xc00000
    37d0:	050103fc 	streq	r0, [r1, #-1020]	; 0xfffffc04
    37d4:	01041403 	tsteq	r4, r3, lsl #8
    37d8:	2e7c8303 	cdpcs	3, 7, cr8, cr12, cr3, {0}
    37dc:	1b050304 	blne	1443f4 <_Min_Stack_Size+0x143ff4>
    37e0:	0103f003 	tsteq	r3, r3	; <UNPREDICTABLE>
    37e4:	04140305 	ldreq	r0, [r4], #-773	; 0xfffffcfb
    37e8:	06010501 	streq	r0, [r1], -r1, lsl #10
    37ec:	2e7c8f03 	cdpcs	15, 7, cr8, cr12, cr3, {0}
    37f0:	01000302 	tsteq	r0, r2, lsl #6
    37f4:	00010501 	andeq	r0, r1, r1, lsl #10
    37f8:	00000205 	andeq	r0, r0, r5, lsl #4
    37fc:	bd030000 	stclt	0, cr0, [r3, #-0]
    3800:	03050103 	movweq	r0, #20739	; 0x5103
    3804:	05030414 	streq	r0, [r3, #-1044]	; 0xfffffbec
    3808:	03fb031b 	mvnseq	r0, #1811939328	; 0x6c000000
    380c:	14030501 	strne	r0, [r3], #-1281	; 0xfffffaff
    3810:	86030104 	strhi	r0, [r3], -r4, lsl #2
    3814:	0e052e7c 	mcreq	14, 0, r2, cr5, cr12, {3}
    3818:	01050106 	tsteq	r5, r6, lsl #2
    381c:	0004024b 	andeq	r0, r4, fp, asr #4
    3820:	01050101 	tsteq	r5, r1, lsl #2
    3824:	00020500 	andeq	r0, r2, r0, lsl #10
    3828:	03000000 	movweq	r0, #0
    382c:	050103cd 	streq	r0, [r1, #-973]	; 0xfffffc33
    3830:	15131403 	ldrne	r1, [r3, #-1027]	; 0xfffffbfd
    3834:	01061605 	tsteq	r6, r5, lsl #12
    3838:	05200c05 	streq	r0, [r0, #-3077]!	; 0xfffff3fb
    383c:	053e0603 	ldreq	r0, [lr, #-1539]!	; 0xfffff9fd
    3840:	05010610 	streq	r0, [r1, #-1552]	; 0xfffff9f0
    3844:	05052006 	streq	r2, [r5, #-6]
    3848:	13132306 	tstne	r3, #402653184	; 0x18000000
    384c:	13131313 	tstne	r3, #1275068416	; 0x4c000000
    3850:	19051413 	stmdbne	r5, {r0, r1, r4, sl, ip}
    3854:	0f050106 	svceq	0x00050106
    3858:	06050520 	streq	r0, [r5], -r0, lsr #10
    385c:	0624053d 			; <UNDEFINED> instruction: 0x0624053d
    3860:	39052101 	stmdbcc	r5, {r0, r8, sp}
    3864:	1f4f0520 	svcne	0x004f0520
    3868:	05302405 	ldreq	r2, [r0, #-1029]!	; 0xfffffbfb
    386c:	24051f4f 	strcs	r1, [r5], #-3919	; 0xfffff0b1
    3870:	1f4f0530 	svcne	0x004f0530
    3874:	05302405 	ldreq	r2, [r0, #-1029]!	; 0xfffffbfb
    3878:	24051f4f 	strcs	r1, [r5], #-3919	; 0xfffff0b1
    387c:	1f4f0530 	svcne	0x004f0530
    3880:	05302405 	ldreq	r2, [r0, #-1029]!	; 0xfffffbfb
    3884:	24051f4f 	strcs	r1, [r5], #-3919	; 0xfffff0b1
    3888:	1f4f0530 	svcne	0x004f0530
    388c:	05302405 	ldreq	r2, [r0, #-1029]!	; 0xfffffbfb
    3890:	0f051f4f 	svceq	0x00051f4f
    3894:	05207903 	streq	r7, [r0, #-2307]!	; 0xfffff6fd
    3898:	0c030605 	stceq	6, cr0, [r3], {5}
    389c:	060f053c 			; <UNDEFINED> instruction: 0x060f053c
    38a0:	06050501 	streq	r0, [r5], -r1, lsl #10
    38a4:	060f054b 	streq	r0, [pc], -fp, asr #10
    38a8:	30010501 	andcc	r0, r1, r1, lsl #10
    38ac:	01000402 	tsteq	r0, r2, lsl #8
    38b0:	00007301 	andeq	r7, r0, r1, lsl #6
    38b4:	2c000300 	stccs	3, cr0, [r0], {-0}
    38b8:	02000000 	andeq	r0, r0, #0
    38bc:	0d0efb01 	vstreq	d15, [lr, #-4]
    38c0:	01010100 	mrseq	r0, (UNDEF: 17)
    38c4:	00000001 	andeq	r0, r0, r1
    38c8:	01000001 	tsteq	r0, r1
    38cc:	61747300 	cmnvs	r4, r0, lsl #6
    38d0:	70757472 	rsbsvc	r7, r5, r2, ror r4
    38d4:	6d74735f 	ldclvs	3, cr7, [r4, #-380]!	; 0xfffffe84
    38d8:	34673233 	strbtcc	r3, [r7], #-563	; 0xfffffdcd
    38dc:	78783337 	ldmdavc	r8!, {r0, r1, r2, r4, r5, r8, r9, ip, sp}^
    38e0:	0000732e 	andeq	r7, r0, lr, lsr #6
    38e4:	00000000 	andeq	r0, r0, r0
    38e8:	10240205 	eorne	r0, r4, r5, lsl #4
    38ec:	3d030800 	stccc	8, cr0, [r3, #-0]
    38f0:	21232101 			; <UNDEFINED> instruction: 0x21232101
    38f4:	23212121 			; <UNDEFINED> instruction: 0x23212121
    38f8:	21232121 			; <UNDEFINED> instruction: 0x21232121
    38fc:	21212321 			; <UNDEFINED> instruction: 0x21212321
    3900:	23212321 			; <UNDEFINED> instruction: 0x23212321
    3904:	30302321 	eorscc	r2, r0, r1, lsr #6
    3908:	20560331 	subscs	r0, r6, r1, lsr r3
    390c:	032f2f32 			; <UNDEFINED> instruction: 0x032f2f32
    3910:	022f2e0f 	eoreq	r2, pc, #15, 28	; 0xf0
    3914:	01010002 	tsteq	r1, r2
    3918:	74020500 	strvc	r0, [r2], #-1280	; 0xfffffb00
    391c:	03080010 	movweq	r0, #32784	; 0x8010
    3920:	020100f6 	andeq	r0, r1, #246	; 0xf6
    3924:	01010001 	tsteq	r1, r1

Disassembly of section .debug_str:

00000000 <.debug_str>:
       0:	4f706f74 	svcmi	0x00706f74
       4:	69614d66 	stmdbvs	r1!, {r1, r2, r5, r6, r8, sl, fp, lr}^
       8:	6174536e 	cmnvs	r4, lr, ror #6
       c:	4c006b63 			; <UNDEFINED> instruction: 0x4c006b63
      10:	00524b43 	subseq	r4, r2, r3, asr #22
      14:	45444f4d 	strbmi	r4, [r4, #-3917]	; 0xfffff0b3
      18:	72700052 	rsbsvc	r0, r0, #82	; 0x52
      1c:	73614d69 	cmnvc	r1, #6720	; 0x1a40
      20:	5342006b 	movtpl	r0, #8299	; 0x206b
      24:	73005252 	movwvc	r5, #594	; 0x252
      28:	74726f68 	ldrbtvc	r6, [r2], #-3944	; 0xfffff098
      2c:	736e7520 	cmnvc	lr, #32, 10	; 0x8000000
      30:	656e6769 	strbvs	r6, [lr, #-1897]!	; 0xfffff897
      34:	6e692064 	cdpvs	0, 6, cr2, cr9, cr4, {3}
      38:	5f5f0074 	svcpl	0x005f0074
      3c:	5f746573 	svcpl	0x00746573
      40:	0050534d 	subseq	r5, r0, sp, asr #6
      44:	555c3a43 	ldrbpl	r3, [ip, #-2627]	; 0xfffff5bd
      48:	73726573 	cmnvc	r2, #482344960	; 0x1cc00000
      4c:	61687a5c 	cmnvs	r8, ip, asr sl
      50:	6567676e 	strbvs	r6, [r7, #-1902]!	; 0xfffff892
      54:	7365445c 	cmnvc	r5, #92, 8	; 0x5c000000
      58:	706f746b 	rsbvc	r7, pc, fp, ror #8
      5c:	4d54535c 	ldclmi	3, cr5, [r4, #-368]	; 0xfffffe90
      60:	f9bb3233 			; <UNDEFINED> instruction: 0xf9bb3233
      64:	4549dad3 	strbmi	sp, [r9, #-2771]	; 0xfffff52d
      68:	30362d43 	eorscc	r2, r6, r3, asr #26
      6c:	43303337 	teqmi	r0, #-603979776	; 0xdc000000
      70:	5353414c 	cmppl	r3, #76, 2
      74:	eab12042 	b	fec48184 <BootRAM+0xce38925>
      78:	c4b5bcd7 	ldrtgt	fp, [r5], #3287	; 0xcd7
      7c:	d6cfb5ca 	strble	fp, [pc], sl, asr #11
      80:	666f735c 			; <UNDEFINED> instruction: 0x666f735c
      84:	6f727074 	svcvs	0x00727074
      88:	7463656a 	strbtvc	r6, [r3], #-1386	; 0xfffffa96
      8c:	6f6f625c 	svcvs	0x006f625c
      90:	616f6c74 	smcvs	63172	; 0xf6c4
      94:	544f0064 	strbpl	r0, [pc], #-100	; 9c <_Min_Heap_Size-0x164>
      98:	52455059 	subpl	r5, r5, #89	; 0x59
      9c:	736e7500 	cmnvc	lr, #0, 10
      a0:	656e6769 	strbvs	r6, [lr, #-1897]!	; 0xfffff897
      a4:	68632064 	stmdavs	r3!, {r2, r5, r6, sp}^
      a8:	69007261 	stmdbvs	r0, {r0, r5, r6, r9, ip, sp, lr}
      ac:	6c5f7061 	mrrcvs	0, 6, r7, pc, cr1	; <UNPREDICTABLE>
      b0:	5f64616f 	svcpl	0x0064616f
      b4:	00707061 	rsbseq	r7, r0, r1, rrx
      b8:	72646461 	rsbvc	r6, r4, #1627389952	; 0x61000000
      bc:	755f5f00 	ldrbvc	r5, [pc, #-3840]	; fffff1c4 <BootRAM+0xe1ef965>
      c0:	31746e69 	cmncc	r4, r9, ror #28
      c4:	00745f36 	rsbseq	r5, r4, r6, lsr pc
      c8:	746f6f62 	strbtvc	r6, [pc], #-3938	; d0 <_Min_Heap_Size-0x130>
      cc:	64616f6c 	strbtvs	r6, [r1], #-3948	; 0xfffff094
      d0:	6f6f622f 	svcvs	0x006f622f
      d4:	616f6c74 	smcvs	63172	; 0xf6c4
      d8:	00632e64 	rsbeq	r2, r3, r4, ror #28
      dc:	69755f5f 	ldmdbvs	r5!, {r0, r1, r2, r3, r4, r6, r8, r9, sl, fp, ip, lr}^
      e0:	3233746e 	eorscc	r7, r3, #1845493760	; 0x6e000000
      e4:	4d00745f 	cfstrsmi	mvf7, [r0, #-380]	; 0xfffffe84
      e8:	4d5f5253 	lfmmi	f5, 2, [pc, #-332]	; ffffffa4 <BootRAM+0xe1f0745>
      ec:	4f005053 	svcmi	0x00005053
      f0:	45455053 	strbmi	r5, [r5, #-83]	; 0xffffffad
      f4:	47005244 	strmi	r5, [r0, -r4, asr #4]
      f8:	5f4f4950 	svcpl	0x004f4950
      fc:	65707954 	ldrbvs	r7, [r0, #-2388]!	; 0xfffff6ac
     100:	00666544 	rsbeq	r6, r6, r4, asr #10
     104:	676e6f6c 	strbvs	r6, [lr, -ip, ror #30]!
     108:	6e6f6c20 	cdpvs	12, 6, cr6, cr15, cr0, {1}
     10c:	6e752067 	cdpvs	0, 7, cr2, cr5, cr7, {3}
     110:	6e676973 			; <UNDEFINED> instruction: 0x6e676973
     114:	69206465 	stmdbvs	r0!, {r0, r2, r5, r6, sl, sp, lr}
     118:	5000746e 	andpl	r7, r0, lr, ror #8
     11c:	52445055 	subpl	r5, r4, #85	; 0x55
     120:	6d756a00 	vldmdbvs	r5!, {s13-s12}
     124:	70613270 	rsbvc	r3, r1, r0, ror r2
     128:	6f6c0070 	svcvs	0x006c0070
     12c:	6c20676e 	stcvs	7, cr6, [r0], #-440	; 0xfffffe48
     130:	20676e6f 	rsbcs	r6, r7, pc, ror #28
     134:	00746e69 	rsbseq	r6, r4, r9, ror #28
     138:	65735f5f 	ldrbvs	r5, [r3, #-3935]!	; 0xfffff0a1
     13c:	52505f74 	subspl	r5, r0, #116, 30	; 0x1d0
     140:	53414d49 	movtpl	r4, #7497	; 0x1d49
     144:	4148004b 	cmpmi	r8, fp, asr #32
     148:	65445f4c 	strbvs	r5, [r4, #-3916]	; 0xfffff0b4
     14c:	0079616c 	rsbseq	r6, r9, ip, ror #2
     150:	5f4c4148 	svcpl	0x004c4148
     154:	4f495047 	svcmi	0x00495047
     158:	676f545f 			; <UNDEFINED> instruction: 0x676f545f
     15c:	50656c67 	rsbpl	r6, r5, r7, ror #24
     160:	73006e69 	movwvc	r6, #3689	; 0xe69
     164:	74726f68 	ldrbtvc	r6, [r2], #-3944	; 0xfffff098
     168:	746e6920 	strbtvc	r6, [lr], #-2336	; 0xfffff6e0
     16c:	50504100 	subspl	r4, r0, r0, lsl #2
     170:	4e55465f 	mrcmi	6, 2, r4, cr5, cr15, {2}
     174:	6f6c0043 	svcvs	0x006c0043
     178:	6420676e 	strtvs	r6, [r0], #-1902	; 0xfffff892
     17c:	6c62756f 	cfstr64vs	mvdx7, [r2], #-444	; 0xfffffe44
     180:	4e470065 	cdpmi	0, 4, cr0, cr7, cr5, {3}
     184:	31432055 	qdaddcc	r2, r5, r3
     188:	30312037 	eorscc	r2, r1, r7, lsr r0
     18c:	312e332e 			; <UNDEFINED> instruction: 0x312e332e
     190:	32303220 	eorscc	r3, r0, #32, 4
     194:	32383031 	eorscc	r3, r8, #49	; 0x31
     198:	72282034 	eorvc	r2, r8, #52	; 0x34
     19c:	61656c65 	cmnvs	r5, r5, ror #24
     1a0:	20296573 	eorcs	r6, r9, r3, ror r5
     1a4:	70636d2d 	rsbvc	r6, r3, sp, lsr #26
     1a8:	6f633d75 	svcvs	0x00633d75
     1ac:	78657472 	stmdavc	r5!, {r1, r4, r5, r6, sl, ip, sp, lr}^
     1b0:	20346d2d 	eorscs	r6, r4, sp, lsr #26
     1b4:	68746d2d 	ldmdavs	r4!, {r0, r2, r3, r5, r8, sl, fp, sp, lr}^
     1b8:	20626d75 	rsbcs	r6, r2, r5, ror sp
     1bc:	70666d2d 	rsbvc	r6, r6, sp, lsr #26
     1c0:	70663d75 	rsbvc	r3, r6, r5, ror sp
     1c4:	732d3476 			; <UNDEFINED> instruction: 0x732d3476
     1c8:	31642d70 	smccc	17104	; 0x42d0
     1cc:	6d2d2036 	stcvs	0, cr2, [sp, #-216]!	; 0xffffff28
     1d0:	616f6c66 	cmnvs	pc, r6, ror #24
     1d4:	62612d74 	rsbvs	r2, r1, #116, 26	; 0x1d00
     1d8:	61683d69 	cmnvs	r8, r9, ror #26
     1dc:	2d206472 	cfstrscs	mvf6, [r0, #-456]!	; 0xfffffe38
     1e0:	6372616d 	cmnvs	r2, #1073741851	; 0x4000001b
     1e4:	72613d68 	rsbvc	r3, r1, #104, 26	; 0x1a00
     1e8:	6537766d 	ldrvs	r7, [r7, #-1645]!	; 0xfffff993
     1ec:	662b6d2d 	strtvs	r6, [fp], -sp, lsr #26
     1f0:	672d2070 			; <UNDEFINED> instruction: 0x672d2070
     1f4:	64672d20 	strbtvs	r2, [r7], #-3360	; 0xfffff2e0
     1f8:	66726177 			; <UNDEFINED> instruction: 0x66726177
     1fc:	2d20322d 	sfmcs	f3, 4, [r0, #-180]!	; 0xffffff4c
     200:	2d20674f 	stccs	7, cr6, [r0, #-316]!	; 0xfffffec4
     204:	74616466 	strbtvc	r6, [r1], #-1126	; 0xfffffb9a
     208:	65732d61 	ldrbvs	r2, [r3, #-3425]!	; 0xfffff29f
     20c:	6f697463 	svcvs	0x00697463
     210:	2d20736e 	stccs	3, cr7, [r0, #-440]!	; 0xfffffe48
     214:	6e756666 	cdpvs	6, 7, cr6, cr5, cr6, {3}
     218:	6f697463 	svcvs	0x00697463
     21c:	65732d6e 	ldrbvs	r2, [r3, #-3438]!	; 0xfffff292
     220:	6f697463 	svcvs	0x00697463
     224:	5200736e 	andpl	r7, r0, #-1207959551	; 0xb8000001
     228:	435f4343 	cmpmi	pc, #201326593	; 0xc000001
     22c:	6e496b6c 	vmlsvs.f64	d22, d9, d28
     230:	74537469 	ldrbvc	r7, [r3], #-1129	; 0xfffffb97
     234:	74637572 	strbtvc	r7, [r3], #-1394	; 0xfffffa8e
     238:	5f584d00 	svcpl	0x00584d00
     23c:	4f495047 	svcmi	0x00495047
     240:	696e495f 	stmdbvs	lr!, {r0, r1, r2, r3, r4, r6, r8, fp, lr}^
     244:	53480074 	movtpl	r0, #32884	; 0x8074
     248:	6c614349 	stclvs	3, cr4, [r1], #-292	; 0xfffffedc
     24c:	61726269 	cmnvs	r2, r9, ror #4
     250:	6e6f6974 			; <UNDEFINED> instruction: 0x6e6f6974
     254:	756c6156 	strbvc	r6, [ip, #-342]!	; 0xfffffeaa
     258:	43520065 	cmpmi	r2, #101	; 0x65
     25c:	6c435f43 	mcrrvs	15, 4, r5, r3, cr3
     260:	696e496b 	stmdbvs	lr!, {r0, r1, r3, r5, r6, r8, fp, lr}^
     264:	70795474 	rsbsvc	r5, r9, r4, ror r4
     268:	66654465 	strbtvs	r4, [r5], -r5, ror #8
     26c:	4c414800 	mcrrmi	8, 0, r4, r1, cr0
     270:	5252455f 	subspl	r4, r2, #398458880	; 0x17c00000
     274:	4800524f 	stmdami	r0, {r0, r1, r2, r3, r6, r9, ip, lr}
     278:	4f5f4c41 	svcmi	0x005f4c41
     27c:	4148004b 	cmpmi	r8, fp, asr #32
     280:	6e495f4c 	cdpvs	15, 4, cr5, cr9, cr12, {2}
     284:	41007469 	tstmi	r0, r9, ror #8
     288:	43314250 	teqmi	r1, #80, 4
     28c:	69444b4c 	stmdbvs	r4, {r2, r3, r6, r8, r9, fp, lr}^
     290:	65646976 	strbvs	r6, [r4, #-2422]!	; 0xfffff68a
     294:	6c430072 	mcrrvs	0, 7, r0, r3, cr2
     298:	546b636f 	strbtpl	r6, [fp], #-879	; 0xfffffc91
     29c:	00657079 	rsbeq	r7, r5, r9, ror r0
     2a0:	43424841 	movtmi	r4, #10305	; 0x2841
     2a4:	69444b4c 	stmdbvs	r4, {r2, r3, r6, r8, r9, fp, lr}^
     2a8:	65646976 	strbvs	r6, [r4, #-2422]!	; 0xfffff68a
     2ac:	5f5f0072 	svcpl	0x005f0072
     2b0:	6c697562 	cfstr64vs	mvdx7, [r9], #-392	; 0xfffffe78
     2b4:	5f6e6974 	svcpl	0x006e6974
     2b8:	736d656d 	cmnvc	sp, #457179136	; 0x1b400000
     2bc:	41007465 	tstmi	r0, r5, ror #8
     2c0:	43324250 	teqmi	r2, #80, 4
     2c4:	69444b4c 	stmdbvs	r4, {r2, r3, r6, r8, r9, fp, lr}^
     2c8:	65646976 	strbvs	r6, [r4, #-2422]!	; 0xfffff68a
     2cc:	41480072 	hvcmi	32770	; 0x8002
     2d0:	57505f4c 	ldrbpl	r5, [r0, -ip, asr #30]
     2d4:	5f784552 	svcpl	0x00784552
     2d8:	746e6f43 	strbtvc	r6, [lr], #-3907	; 0xfffff0bd
     2dc:	566c6f72 	uqsub16pl	r6, ip, r2
     2e0:	61746c6f 	cmnvs	r4, pc, ror #24
     2e4:	63536567 	cmpvs	r3, #432013312	; 0x19c00000
     2e8:	6e696c61 	cdpvs	12, 6, cr6, cr9, cr1, {3}
     2ec:	72450067 	subvc	r0, r5, #103	; 0x67
     2f0:	5f726f72 	svcpl	0x00726f72
     2f4:	646e6148 	strbtvs	r6, [lr], #-328	; 0xfffffeb8
     2f8:	0072656c 	rsbseq	r6, r2, ip, ror #10
     2fc:	6e69616d 	powvsez	f6, f1, #5.0
     300:	4c4c5000 	marmi	acc0, r5, ip
     304:	4c50004e 	mrrcmi	0, 4, r0, r0, cr14	; <UNPREDICTABLE>
     308:	5000504c 	andpl	r5, r0, ip, asr #32
     30c:	00514c4c 	subseq	r4, r1, ip, asr #24
     310:	524c4c50 	subpl	r4, ip, #80, 24	; 0x5000
     314:	4c4c5000 	marmi	acc0, r5, ip
     318:	5348004d 	movtpl	r0, #32845	; 0x804d
     31c:	61745345 	cmnvs	r4, r5, asr #6
     320:	50006574 	andpl	r6, r0, r4, ror r5
     324:	74534c4c 	ldrbvc	r4, [r3], #-3148	; 0xfffff3b4
     328:	00657461 	rsbeq	r7, r5, r1, ror #8
     32c:	5f4c4148 	svcpl	0x004c4148
     330:	5f434352 	svcpl	0x00434352
     334:	4363734f 	cmnmi	r3, #1006632961	; 0x3c000001
     338:	69666e6f 	stmdbvs	r6!, {r0, r1, r2, r3, r5, r6, r9, sl, fp, sp, lr}^
     33c:	43520067 	cmpmi	r2, #103	; 0x67
     340:	4c505f43 	mrrcmi	15, 4, r5, r0, cr3
     344:	696e494c 	stmdbvs	lr!, {r2, r3, r6, r8, fp, lr}^
     348:	70795474 	rsbsvc	r5, r9, r4, ror r4
     34c:	66654465 	strbtvs	r4, [r5], -r5, ror #8
     350:	49534800 	ldmdbmi	r3, {fp, lr}^
     354:	74617453 	strbtvc	r7, [r1], #-1107	; 0xfffffbad
     358:	41480065 	cmpmi	r8, r5, rrx
     35c:	55425f4c 	strbpl	r5, [r2, #-3916]	; 0xfffff0b4
     360:	53005953 	movwpl	r5, #2387	; 0x953
     364:	65747379 	ldrbvs	r7, [r4, #-889]!	; 0xfffffc87
     368:	6f6c436d 	svcvs	0x006c436d
     36c:	435f6b63 	cmpmi	pc, #101376	; 0x18c00
     370:	69666e6f 	stmdbvs	r6!, {r0, r1, r2, r3, r5, r6, r9, sl, fp, sp, lr}^
     374:	43520067 	cmpmi	r2, #103	; 0x67
     378:	734f5f43 	movtvc	r5, #65347	; 0xff43
     37c:	696e4963 	stmdbvs	lr!, {r0, r1, r5, r6, r8, fp, lr}^
     380:	70795474 	rsbsvc	r5, r9, r4, ror r4
     384:	66654465 	strbtvs	r4, [r5], -r5, ror #8
     388:	43435200 	movtmi	r5, #12800	; 0x3200
     38c:	63734f5f 	cmnvs	r3, #380	; 0x17c
     390:	74696e49 	strbtvc	r6, [r9], #-3657	; 0xfffff1b7
     394:	75727453 	ldrbvc	r7, [r2, #-1107]!	; 0xfffffbad
     398:	48007463 	stmdami	r0, {r0, r1, r5, r6, sl, ip, sp, lr}
     39c:	545f4c41 	ldrbpl	r4, [pc], #-3137	; 3a4 <_Min_Heap_Size+0x1a4>
     3a0:	4f454d49 	svcmi	0x00454d49
     3a4:	48005455 	stmdami	r0, {r0, r2, r4, r6, sl, ip, lr}
     3a8:	38344953 	ldmdacc	r4!, {r0, r1, r4, r6, r8, fp, lr}
     3ac:	74617453 	strbtvc	r7, [r1], #-1107	; 0xfffffbad
     3b0:	534c0065 	movtpl	r0, #49253	; 0xc065
     3b4:	61745349 	cmnvs	r4, r9, asr #6
     3b8:	53006574 	movwpl	r6, #1396	; 0x574
     3bc:	6d2f6372 	stcvs	3, cr6, [pc, #-456]!	; 1fc <_Min_Heap_Size-0x4>
     3c0:	2e6e6961 	vnmulcs.f16	s13, s28, s3	; <UNPREDICTABLE>
     3c4:	41480063 	cmpmi	r8, r3, rrx
     3c8:	43525f4c 	cmpmi	r2, #76, 30	; 0x130
     3cc:	6c435f43 	mcrrvs	15, 4, r5, r3, cr3
     3d0:	436b636f 	cmnmi	fp, #-1140850687	; 0xbc000001
     3d4:	69666e6f 	stmdbvs	r6!, {r0, r1, r2, r3, r5, r6, r9, sl, fp, sp, lr}^
     3d8:	5f5f0067 	svcpl	0x005f0067
     3dc:	61736964 	cmnvs	r3, r4, ror #18
     3e0:	5f656c62 	svcpl	0x00656c62
     3e4:	00717269 	rsbseq	r7, r1, r9, ror #4
     3e8:	5345534c 	movtpl	r5, #21324	; 0x534c
     3ec:	65746174 	ldrbvs	r6, [r4, #-372]!	; 0xfffffe8c
     3f0:	53595300 	cmppl	r9, #0, 6
     3f4:	534b4c43 	movtpl	r4, #48195	; 0xbc43
     3f8:	6372756f 	cmnvs	r2, #465567744	; 0x1bc00000
     3fc:	734f0065 	movtvc	r0, #61541	; 0xf065
     400:	6c6c6963 			; <UNDEFINED> instruction: 0x6c6c6963
     404:	726f7461 	rsbvc	r7, pc, #1627389952	; 0x61000000
     408:	65707954 	ldrbvs	r7, [r0, #-2388]!	; 0xfffff6ac
     40c:	4c414800 	mcrrmi	8, 0, r4, r1, cr0
     410:	4950475f 	ldmdbmi	r0, {r0, r1, r2, r3, r4, r6, r8, r9, sl, lr}^
     414:	6e495f4f 	cdpvs	15, 4, cr5, cr9, cr15, {2}
     418:	50007469 	andpl	r7, r0, r9, ror #8
     41c:	46434c4c 	strbmi	r4, [r3], -ip, asr #24
     420:	41005247 	tstmi	r0, r7, asr #4
     424:	52314250 	eorspl	r4, r1, #80, 4
     428:	31525453 	cmpcc	r2, r3, asr r4
     42c:	42504100 	subsmi	r4, r0, #0, 2
     430:	54535231 	ldrbpl	r5, [r3], #-561	; 0xfffffdcf
     434:	41003252 	tstmi	r0, r2, asr r2
     438:	45324248 	ldrmi	r4, [r2, #-584]!	; 0xfffffdb8
     43c:	4200524e 	andmi	r5, r0, #-536870908	; 0xe0000004
     440:	00524344 	subseq	r4, r2, r4, asr #6
     444:	6c6c7550 	cfstr64vs	mvdx7, [ip], #-320	; 0xfffffec0
     448:	49434300 	stmdbmi	r3, {r8, r9, lr}^
     44c:	43005250 	movwmi	r5, #592	; 0x250
     450:	00524349 	subseq	r4, r2, r9, asr #6
     454:	31424841 	cmpcc	r2, r1, asr #16
     458:	52545352 	subspl	r5, r4, #1207959553	; 0x48000001
     45c:	45494300 	strbmi	r4, [r9, #-768]	; 0xfffffd00
     460:	48410052 	stmdami	r1, {r1, r4, r6}^
     464:	4e453342 	cdpmi	3, 4, cr3, cr5, cr2, {2}
     468:	50470052 	subpl	r0, r7, r2, asr r0
     46c:	505f4f49 	subspl	r4, pc, r9, asr #30
     470:	535f4e49 	cmppl	pc, #1168	; 0x490
     474:	41005445 	tstmi	r0, r5, asr #8
     478:	53314250 	teqpl	r1, #80, 4
     47c:	524e454d 	subpl	r4, lr, #322961408	; 0x13400000
     480:	50410031 	subpl	r0, r1, r1, lsr r0
     484:	4d533142 	ldfmie	f3, [r3, #-264]	; 0xfffffef8
     488:	32524e45 	subscc	r4, r2, #1104	; 0x450
     48c:	43435200 	movtmi	r5, #12800	; 0x3200
     490:	7079545f 	rsbsvc	r5, r9, pc, asr r4
     494:	66654465 	strbtvs	r4, [r5], -r5, ror #8
     498:	42484100 	submi	r4, r8, #0, 2
     49c:	454d5332 	strbmi	r5, [sp, #-818]	; 0xfffffcce
     4a0:	4100524e 	tstmi	r0, lr, asr #4
     4a4:	52324250 	eorspl	r4, r2, #80, 4
     4a8:	00525453 	subseq	r5, r2, r3, asr r4
     4ac:	5f4c4148 	svcpl	0x004c4148
     4b0:	4f495047 	svcmi	0x00495047
     4b4:	6972575f 	ldmdbvs	r2!, {r0, r1, r2, r3, r4, r6, r8, r9, sl, ip, lr}^
     4b8:	69506574 	ldmdbvs	r0, {r2, r4, r5, r6, r8, sl, sp, lr}^
     4bc:	6d74006e 	ldclvs	0, cr0, [r4, #-440]!	; 0xfffffe48
     4c0:	67657270 			; <UNDEFINED> instruction: 0x67657270
     4c4:	49504700 	ldmdbmi	r0, {r8, r9, sl, lr}^
     4c8:	49505f4f 	ldmdbmi	r0, {r0, r1, r2, r3, r6, r8, r9, sl, fp, ip, lr}^
     4cc:	45525f4e 	ldrbmi	r5, [r2, #-3918]	; 0xfffff0b2
     4d0:	00544553 	subseq	r4, r4, r3, asr r5
     4d4:	32425041 	subcc	r5, r2, #65	; 0x41
     4d8:	00524e45 	subseq	r4, r2, r5, asr #28
     4dc:	43525243 	cmpmi	r2, #805306372	; 0x30000004
     4e0:	50470052 	subpl	r0, r7, r2, asr r0
     4e4:	495f4f49 	ldmdbmi	pc, {r0, r3, r6, r8, r9, sl, fp, lr}^	; <UNPREDICTABLE>
     4e8:	5374696e 	cmnpl	r4, #1802240	; 0x1b8000
     4ec:	63757274 	cmnvs	r5, #116, 4	; 0x40000007
     4f0:	48410074 	stmdami	r1, {r2, r4, r5, r6}^
     4f4:	53523242 	cmppl	r2, #536870916	; 0x20000004
     4f8:	41005254 	tstmi	r0, r4, asr r2
     4fc:	45314250 	ldrmi	r4, [r1, #-592]!	; 0xfffffdb0
     500:	0031524e 	eorseq	r5, r1, lr, asr #4
     504:	31425041 	cmpcc	r2, r1, asr #32
     508:	32524e45 	subscc	r4, r2, #1104	; 0x450
     50c:	49434300 	stmdbmi	r3, {r8, r9, lr}^
     510:	00325250 	eorseq	r5, r2, r0, asr r2
     514:	43534349 	cmpmi	r3, #603979777	; 0x24000001
     518:	50410052 	subpl	r0, r1, r2, asr r0
     51c:	4d533242 	lfmmi	f3, 2, [r3, #-264]	; 0xfffffef8
     520:	00524e45 	subseq	r4, r2, r5, asr #28
     524:	45534552 	ldrbmi	r4, [r3, #-1362]	; 0xfffffaae
     528:	44455652 	strbmi	r5, [r5], #-1618	; 0xfffff9ae
     52c:	45520030 	ldrbmi	r0, [r2, #-48]	; 0xffffffd0
     530:	56524553 			; <UNDEFINED> instruction: 0x56524553
     534:	00314445 	eorseq	r4, r1, r5, asr #8
     538:	45534552 	ldrbmi	r4, [r3, #-1362]	; 0xfffffaae
     53c:	44455652 	strbmi	r5, [r5], #-1618	; 0xfffff9ae
     540:	45520032 	ldrbmi	r0, [r2, #-50]	; 0xffffffce
     544:	56524553 			; <UNDEFINED> instruction: 0x56524553
     548:	00334445 	eorseq	r4, r3, r5, asr #8
     54c:	45534552 	ldrbmi	r4, [r3, #-1362]	; 0xfffffaae
     550:	44455652 	strbmi	r5, [r5], #-1618	; 0xfffff9ae
     554:	45520034 	ldrbmi	r0, [r2, #-52]	; 0xffffffcc
     558:	56524553 			; <UNDEFINED> instruction: 0x56524553
     55c:	00354445 	eorseq	r4, r5, r5, asr #8
     560:	45534552 	ldrbmi	r4, [r3, #-1362]	; 0xfffffaae
     564:	44455652 	strbmi	r5, [r5], #-1618	; 0xfffff9ae
     568:	45520036 	ldrbmi	r0, [r2, #-54]	; 0xffffffca
     56c:	56524553 			; <UNDEFINED> instruction: 0x56524553
     570:	00374445 	eorseq	r4, r7, r5, asr #8
     574:	45534552 	ldrbmi	r4, [r3, #-1362]	; 0xfffffaae
     578:	44455652 	strbmi	r5, [r5], #-1618	; 0xfffff9ae
     57c:	45520038 	ldrbmi	r0, [r2, #-56]	; 0xffffffc8
     580:	56524553 			; <UNDEFINED> instruction: 0x56524553
     584:	00394445 	eorseq	r4, r9, r5, asr #8
     588:	52464943 	subpl	r4, r6, #1097728	; 0x10c000
     58c:	42484100 	submi	r4, r8, #0, 2
     590:	524e4531 	subpl	r4, lr, #205520896	; 0xc400000
     594:	63725300 	cmnvs	r2, #0, 6
     598:	6970672f 	ldmdbvs	r0!, {r0, r1, r2, r3, r5, r8, r9, sl, sp, lr}^
     59c:	00632e6f 	rsbeq	r2, r3, pc, ror #28
     5a0:	65657053 	strbvs	r7, [r5, #-83]!	; 0xffffffad
     5a4:	50470064 	subpl	r0, r7, r4, rrx
     5a8:	495f4f49 	ldmdbmi	pc, {r0, r3, r6, r8, r9, sl, fp, lr}^	; <UNPREDICTABLE>
     5ac:	5474696e 	ldrbtpl	r6, [r4], #-2414	; 0xfffff692
     5b0:	44657079 	strbtmi	r7, [r5], #-121	; 0xffffff87
     5b4:	41006665 	tstmi	r0, r5, ror #12
     5b8:	53334248 	teqpl	r3, #72, 4	; 0x80000004
     5bc:	524e454d 	subpl	r4, lr, #322961408	; 0x13400000
     5c0:	42484100 	submi	r4, r8, #0, 2
     5c4:	454d5331 	strbmi	r5, [sp, #-817]	; 0xfffffccf
     5c8:	4100524e 	tstmi	r0, lr, asr #4
     5cc:	52334248 	eorspl	r4, r3, #72, 4	; 0x80000004
     5d0:	00525453 	subseq	r5, r2, r3, asr r4
     5d4:	65746c41 	ldrbvs	r6, [r4, #-3137]!	; 0xfffff3bf
     5d8:	74616e72 	strbtvc	r6, [r1], #-3698	; 0xfffff18e
     5dc:	65500065 	ldrbvs	r0, [r0, #-101]	; 0xffffff9b
     5e0:	5653646e 	ldrbpl	r6, [r3], -lr, ror #8
     5e4:	6e61485f 	mcrvs	8, 3, r4, cr1, cr15, {2}
     5e8:	72656c64 	rsbvc	r6, r5, #100, 24	; 0x6400
     5ec:	4c414800 	mcrrmi	8, 0, r4, r1, cr0
     5f0:	636e495f 	cmnvs	lr, #1556480	; 0x17c000
     5f4:	6b636954 	blvs	18dab4c <_Min_Stack_Size+0x18da74c>
     5f8:	61735500 	cmnvs	r3, r0, lsl #10
     5fc:	61466567 	cmpvs	r6, r7, ror #10
     600:	5f746c75 	svcpl	0x00746c75
     604:	646e6148 	strbtvs	r6, [lr], #-328	; 0xfffffeb8
     608:	0072656c 	rsbseq	r6, r2, ip, ror #10
     60c:	46737542 	ldrbtmi	r7, [r3], -r2, asr #10
     610:	746c7561 	strbtvc	r7, [ip], #-1377	; 0xfffffa9f
     614:	6e61485f 	mcrvs	8, 3, r4, cr1, cr15, {2}
     618:	72656c64 	rsbvc	r6, r5, #100, 24	; 0x6400
     61c:	72614800 	rsbvc	r4, r1, #0, 16
     620:	75614664 	strbvc	r4, [r1, #-1636]!	; 0xfffff99c
     624:	485f746c 	ldmdami	pc, {r2, r3, r5, r6, sl, ip, sp, lr}^	; <UNPREDICTABLE>
     628:	6c646e61 	stclvs	14, cr6, [r4], #-388	; 0xfffffe7c
     62c:	4e007265 	cdpmi	2, 0, cr7, cr0, cr5, {3}
     630:	485f494d 	ldmdami	pc, {r0, r2, r3, r6, r8, fp, lr}^	; <UNPREDICTABLE>
     634:	6c646e61 	stclvs	14, cr6, [r4], #-388	; 0xfffffe7c
     638:	4d007265 	sfmmi	f7, 4, [r0, #-404]	; 0xfffffe6c
     63c:	614d6d65 	cmpvs	sp, r5, ror #26
     640:	6567616e 	strbvs	r6, [r7, #-366]!	; 0xfffffe92
     644:	6e61485f 	mcrvs	8, 3, r4, cr1, cr15, {2}
     648:	72656c64 	rsbvc	r6, r5, #100, 24	; 0x6400
     64c:	73795300 	cmnvc	r9, #0, 6
     650:	6b636954 	blvs	18daba8 <_Min_Stack_Size+0x18da7a8>
     654:	6e61485f 	mcrvs	8, 3, r4, cr1, cr15, {2}
     658:	72656c64 	rsbvc	r6, r5, #100, 24	; 0x6400
     65c:	43565300 	cmpmi	r6, #0, 6
     660:	6e61485f 	mcrvs	8, 3, r4, cr1, cr15, {2}
     664:	72656c64 	rsbvc	r6, r5, #100, 24	; 0x6400
     668:	62654400 	rsbvs	r4, r5, #0, 8
     66c:	6f4d6775 	svcvs	0x004d6775
     670:	61485f6e 	cmpvs	r8, lr, ror #30
     674:	656c646e 	strbvs	r6, [ip, #-1134]!	; 0xfffffb92
     678:	72530072 	subsvc	r0, r3, #114	; 0x72
     67c:	74732f63 	ldrbtvc	r2, [r3], #-3939	; 0xfffff09d
     680:	6732336d 	ldrvs	r3, [r2, -sp, ror #6]!
     684:	5f787834 	svcpl	0x00787834
     688:	632e7469 			; <UNDEFINED> instruction: 0x632e7469
     68c:	63725300 	cmnvs	r2, #0, 6
     690:	6d74732f 	ldclvs	3, cr7, [r4, #-188]!	; 0xffffff44
     694:	34673233 	strbtcc	r3, [r7], #-563	; 0xfffffdcd
     698:	685f7878 	ldmdavs	pc, {r3, r4, r5, r6, fp, ip, sp, lr}^	; <UNPREDICTABLE>
     69c:	6d5f6c61 	ldclvs	12, cr6, [pc, #-388]	; 520 <_Min_Stack_Size+0x120>
     6a0:	632e7073 			; <UNDEFINED> instruction: 0x632e7073
     6a4:	4c414800 	mcrrmi	8, 0, r4, r1, cr0
     6a8:	70734d5f 	rsbsvc	r4, r3, pc, asr sp
     6ac:	74696e49 	strbtvc	r6, [r9], #-3657	; 0xfffff1b7
     6b0:	4c414800 	mcrrmi	8, 0, r4, r1, cr0
     6b4:	5257505f 	subspl	r5, r7, #95	; 0x5f
     6b8:	445f7845 	ldrbmi	r7, [pc], #-2117	; 6c0 <_Min_Stack_Size+0x2c0>
     6bc:	62617369 	rsbvs	r7, r1, #-1543503871	; 0xa4000001
     6c0:	4355656c 	cmpmi	r5, #108, 10	; 0x1b000000
     6c4:	65444450 	strbvs	r4, [r4, #-1104]	; 0xfffffbb0
     6c8:	61426461 	cmpvs	r2, r1, ror #8
     6cc:	72657474 	rsbvc	r7, r5, #116, 8	; 0x74000000
     6d0:	50430079 	subpl	r0, r3, r9, ror r0
     6d4:	00444955 	subeq	r4, r4, r5, asr r9
     6d8:	74737953 	ldrbtvc	r7, [r3], #-2387	; 0xfffff6ad
     6dc:	6e496d65 	cdpvs	13, 4, cr6, cr9, cr5, {3}
     6e0:	53007469 	movwpl	r7, #1129	; 0x469
     6e4:	545f4243 	ldrbpl	r4, [pc], #-579	; 6ec <_Min_Stack_Size+0x2ec>
     6e8:	00657079 	rsbeq	r7, r5, r9, ror r0
     6ec:	50424841 	subpl	r4, r2, r1, asr #16
     6f0:	63736572 	cmnvs	r3, #478150656	; 0x1c800000
     6f4:	6c626154 	stfvse	f6, [r2], #-336	; 0xfffffeb0
     6f8:	43490065 	movtmi	r0, #36965	; 0x9065
     6fc:	42005253 	andmi	r5, r0, #805306373	; 0x30000005
     700:	00524146 	subseq	r4, r2, r6, asr #2
     704:	69755f5f 	ldmdbvs	r5!, {r0, r1, r2, r3, r4, r6, r8, r9, sl, fp, ip, lr}^
     708:	5f38746e 	svcpl	0x0038746e
     70c:	46430074 			; <UNDEFINED> instruction: 0x46430074
     710:	41005253 	tstmi	r0, r3, asr r2
     714:	72504250 	subsvc	r4, r0, #80, 4
     718:	54637365 	strbtpl	r7, [r3], #-869	; 0xfffffc9b
     71c:	656c6261 	strbvs	r6, [ip, #-609]!	; 0xfffffd9f
     720:	6c6c7000 	stclvs	0, cr7, [ip], #-0
     724:	72756f73 	rsbsvc	r6, r5, #460	; 0x1cc
     728:	70006563 	andvc	r6, r0, r3, ror #10
     72c:	006d6c6c 	rsbeq	r6, sp, ip, ror #24
     730:	726c6c70 	rsbvc	r6, ip, #112, 24	; 0x7000
     734:	52494100 	subpl	r4, r9, #0, 2
     738:	53005243 	movwpl	r5, #579	; 0x243
     73c:	52534348 	subspl	r4, r3, #72, 6	; 0x20000001
     740:	464d4d00 	strbmi	r4, [sp], -r0, lsl #26
     744:	70005241 	andvc	r5, r0, r1, asr #4
     748:	63766c6c 	cmnvs	r6, #108, 24	; 0x6c00
     74c:	5456006f 	ldrbpl	r0, [r6], #-111	; 0xffffff91
     750:	5300524f 	movwpl	r5, #591	; 0x24f
     754:	65747379 	ldrbvs	r7, [r4, #-889]!	; 0xfffffc87
     758:	726f436d 	rsbvc	r4, pc, #-1275068415	; 0xb4000001
     75c:	6f6c4365 	svcvs	0x006c4365
     760:	70556b63 	subsvc	r6, r5, r3, ror #22
     764:	65746164 	ldrbvs	r6, [r4, #-356]!	; 0xfffffe9c
     768:	41534900 	cmpmi	r3, r0, lsl #18
     76c:	46440052 			; <UNDEFINED> instruction: 0x46440052
     770:	53005253 	movwpl	r5, #595	; 0x253
     774:	65747379 	ldrbvs	r7, [r4, #-889]!	; 0xfffffc87
     778:	726f436d 	rsbvc	r4, pc, #-1275068415	; 0xb4000001
     77c:	6f6c4365 	svcvs	0x006c4365
     780:	48006b63 	stmdami	r0, {r0, r1, r5, r6, r8, r9, fp, sp, lr}
     784:	00525346 	subseq	r5, r2, r6, asr #6
     788:	2f637253 	svccs	0x00637253
     78c:	74737973 	ldrbtvc	r7, [r3], #-2419	; 0xfffff68d
     790:	735f6d65 	cmpvc	pc, #6464	; 0x1940
     794:	32336d74 	eorscc	r6, r3, #116, 26	; 0x1d00
     798:	78783467 	ldmdavc	r8!, {r0, r1, r2, r5, r6, sl, ip, sp}^
     79c:	4d00632e 	stcmi	3, cr6, [r0, #-184]	; 0xffffff48
     7a0:	0052464d 	subseq	r4, r2, sp, asr #12
     7a4:	52534641 	subspl	r4, r3, #68157440	; 0x4100000
     7a8:	41504300 	cmpmi	r0, r0, lsl #6
     7ac:	48005243 	stmdami	r0, {r0, r1, r6, r9, ip, lr}
     7b0:	475f4c41 	ldrbmi	r4, [pc, -r1, asr #24]
     7b4:	61487465 	cmpvs	r8, r5, ror #8
     7b8:	7265566c 	rsbvc	r5, r5, #108, 12	; 0x6c00000
     7bc:	6e6f6973 			; <UNDEFINED> instruction: 0x6e6f6973
     7c0:	4d495400 	cfstrdmi	mvd5, [r9, #-0]
     7c4:	52545f31 	subspl	r5, r4, #49, 30	; 0xc4
     7c8:	4f435f47 	svcmi	0x00435f47
     7cc:	49545f4d 	ldmdbmi	r4, {r0, r2, r3, r6, r8, r9, sl, fp, ip, lr}^
     7d0:	5f37314d 	svcpl	0x0037314d
     7d4:	6e515249 	cdpvs	2, 5, cr5, cr1, cr9, {2}
     7d8:	54584500 	ldrbpl	r4, [r8], #-1280	; 0xfffffb00
     7dc:	355f3949 	ldrbcc	r3, [pc, #-2377]	; fffffe9b <BootRAM+0xe1f063c>
     7e0:	5152495f 	cmppl	r2, pc, asr r9
     7e4:	6954006e 	ldmdbvs	r4, {r1, r2, r3, r5, r6}^
     7e8:	72506b63 	subsvc	r6, r0, #101376	; 0x18c00
     7ec:	69726f69 	ldmdbvs	r2!, {r0, r3, r5, r6, r8, r9, sl, fp, sp, lr}^
     7f0:	49007974 	stmdbmi	r0, {r2, r4, r5, r6, r8, fp, ip, sp, lr}
     7f4:	5f314332 	svcpl	0x00314332
     7f8:	495f5645 	ldmdbmi	pc, {r0, r2, r6, r9, sl, ip, lr}^	; <UNPREDICTABLE>
     7fc:	006e5152 	rsbeq	r5, lr, r2, asr r1
     800:	31414d44 	cmpcc	r1, r4, asr #26
     804:	6168435f 	cmnvs	r8, pc, asr r3
     808:	6c656e6e 	stclvs	14, cr6, [r5], #-440	; 0xfffffe48
     80c:	52495f38 	subpl	r5, r9, #56, 30	; 0xe0
     810:	48006e51 	stmdami	r0, {r0, r4, r6, r9, sl, fp, sp, lr}
     814:	535f4c41 	cmppl	pc, #16640	; 0x4100
     818:	69547465 	ldmdbvs	r4, {r0, r2, r5, r6, sl, ip, sp, lr}^
     81c:	72466b63 	subvc	r6, r6, #101376	; 0x18c00
     820:	43007165 	movwmi	r7, #357	; 0x165
     824:	37504d4f 	ldrbcc	r4, [r0, -pc, asr #26]
     828:	5152495f 	cmppl	r2, pc, asr r9
     82c:	454d006e 	strbmi	r0, [sp, #-110]	; 0xffffff92
     830:	504d524d 	subpl	r5, sp, sp, asr #4
     834:	49505300 	ldmdbmi	r0, {r8, r9, ip, lr}^
     838:	52495f34 	subpl	r5, r9, #52, 30	; 0xd0
     83c:	44006e51 	strmi	r6, [r0], #-3665	; 0xfffff1af
     840:	5f32414d 	svcpl	0x0032414d
     844:	6e616843 	cdpvs	8, 6, cr6, cr1, cr3, {2}
     848:	316c656e 	cmncc	ip, lr, ror #10
     84c:	5152495f 	cmppl	r2, pc, asr r9
     850:	5452006e 	ldrbpl	r0, [r2], #-110	; 0xffffff92
     854:	6c415f43 	mcrrvs	15, 4, r5, r1, cr3
     858:	5f6d7261 	svcpl	0x006d7261
     85c:	6e515249 	cdpvs	2, 5, cr5, cr1, cr9, {2}
     860:	43324900 	teqmi	r2, #0, 18
     864:	52455f32 	subpl	r5, r5, #50, 30	; 0xc8
     868:	5152495f 	cmppl	r2, pc, asr r9
     86c:	4954006e 	ldmdbmi	r4, {r1, r2, r3, r5, r6}^
     870:	495f344d 	ldmdbmi	pc, {r0, r2, r3, r6, sl, ip, sp}^	; <UNPREDICTABLE>
     874:	006e5152 	rsbeq	r5, lr, r2, asr r1
     878:	5f435452 	svcpl	0x00435452
     87c:	50554b57 	subspl	r4, r5, r7, asr fp
     880:	5152495f 	cmppl	r2, pc, asr r9
     884:	4148006e 	cmpmi	r8, lr, rrx
     888:	59535f4c 	ldmdbpl	r3, {r2, r3, r6, r8, r9, sl, fp, ip, lr}^
     88c:	47464353 	smlsldmi	r4, r6, r3, r3
     890:	4552565f 	ldrbmi	r5, [r2, #-1631]	; 0xfffff9a1
     894:	46554246 	ldrbmi	r4, [r5], -r6, asr #4
     898:	6769485f 			; <UNDEFINED> instruction: 0x6769485f
     89c:	706d4968 	rsbvc	r4, sp, r8, ror #18
     8a0:	6e616465 	cdpvs	4, 6, cr6, cr1, cr5, {3}
     8a4:	6f436563 	svcvs	0x00436563
     8a8:	6769666e 	strbvs	r6, [r9, -lr, ror #12]!
     8ac:	44575700 	ldrbmi	r5, [r7], #-1792	; 0xfffff900
     8b0:	52495f47 	subpl	r5, r9, #284	; 0x11c
     8b4:	54006e51 	strpl	r6, [r0], #-3665	; 0xfffff1af
     8b8:	5f384d49 	svcpl	0x00384d49
     8bc:	495f4343 	ldmdbmi	pc, {r0, r1, r6, r8, r9, lr}^	; <UNPREDICTABLE>
     8c0:	006e5152 	rsbeq	r5, lr, r2, asr r1
     8c4:	34433249 	strbcc	r3, [r3], #-585	; 0xfffffdb7
     8c8:	5f52455f 	svcpl	0x0052455f
     8cc:	6e515249 	cdpvs	2, 5, cr5, cr1, cr9, {2}
     8d0:	4c414800 	mcrrmi	8, 0, r4, r1, cr0
     8d4:	4742445f 	smlsldmi	r4, r2, pc, r4	; <UNPREDICTABLE>
     8d8:	5f55434d 	svcpl	0x0055434d
     8dc:	62616e45 	rsbvs	r6, r1, #1104	; 0x450
     8e0:	4244656c 	submi	r6, r4, #108, 10	; 0x1b000000
     8e4:	61745347 	cmnvs	r4, r7, asr #6
     8e8:	7962646e 	stmdbvc	r2!, {r1, r2, r3, r5, r6, sl, sp, lr}^
     8ec:	65646f4d 	strbvs	r6, [r4, #-3917]!	; 0xfffff0b3
     8f0:	43444600 	movtmi	r4, #17920	; 0x4600
     8f4:	5f314e41 	svcpl	0x00314e41
     8f8:	5f305449 	svcpl	0x00305449
     8fc:	6e515249 	cdpvs	2, 5, cr5, cr1, cr9, {2}
     900:	69617700 	stmdbvs	r1!, {r8, r9, sl, ip, sp, lr}^
     904:	44460074 	strbmi	r0, [r6], #-116	; 0xffffff8c
     908:	324e4143 	subcc	r4, lr, #-1073741808	; 0xc0000010
     90c:	3054495f 	subscc	r4, r4, pc, asr r9
     910:	5152495f 	cmppl	r2, pc, asr r9
     914:	4954006e 	ldmdbmi	r4, {r1, r2, r3, r5, r6}^
     918:	5f30324d 	svcpl	0x0030324d
     91c:	5f4b5242 	svcpl	0x004b5242
     920:	6e515249 	cdpvs	2, 5, cr5, cr1, cr9, {2}
     924:	4c414800 	mcrrmi	8, 0, r4, r1, cr0
     928:	7465475f 	strbtvc	r4, [r5], #-1887	; 0xfffff8a1
     92c:	6b636954 	blvs	18dae84 <_Min_Stack_Size+0x18daa84>
     930:	6f697250 	svcvs	0x00697250
     934:	43444100 	movtmi	r4, #16640	; 0x4100
     938:	52495f33 	subpl	r5, r9, #51, 30	; 0xcc
     93c:	46006e51 			; <UNDEFINED> instruction: 0x46006e51
     940:	4e414344 	cdpmi	3, 4, cr4, cr1, cr4, {2}
     944:	54495f33 	strbpl	r5, [r9], #-3891	; 0xfffff0cd
     948:	52495f30 	subpl	r5, r9, #48, 30	; 0xc0
     94c:	48006e51 	stmdami	r0, {r0, r4, r6, r9, sl, fp, sp, lr}
     950:	535f4c41 	cmppl	pc, #16640	; 0x4100
     954:	46435359 			; <UNDEFINED> instruction: 0x46435359
     958:	6e455f47 	cdpvs	15, 4, cr5, cr5, cr7, {2}
     95c:	656c6261 	strbvs	r6, [ip, #-609]!	; 0xfffffd9f
     960:	46455256 			; <UNDEFINED> instruction: 0x46455256
     964:	00465542 	subeq	r5, r6, r2, asr #10
     968:	44524f43 	ldrbmi	r4, [r2], #-3907	; 0xfffff0bd
     96c:	495f4349 	ldmdbmi	pc, {r0, r3, r6, r8, r9, lr}^	; <UNPREDICTABLE>
     970:	006e5152 	rsbeq	r5, lr, r2, asr r1
     974:	5f4c4148 	svcpl	0x004c4148
     978:	43535953 	cmpmi	r3, #1359872	; 0x14c000
     97c:	445f4746 	ldrbmi	r4, [pc], #-1862	; 984 <_Min_Stack_Size+0x584>
     980:	62617369 	rsbvs	r7, r1, #-1543503871	; 0xa4000001
     984:	5256656c 	subspl	r6, r6, #108, 10	; 0x1b000000
     988:	55424645 	strbpl	r4, [r2, #-1605]	; 0xfffff9bb
     98c:	41480046 	cmpmi	r8, r6, asr #32
     990:	65445f4c 	strbvs	r5, [r4, #-3916]	; 0xfffff0b4
     994:	74696e49 	strbtvc	r6, [r9], #-3657	; 0xfffff1b7
     998:	43444100 	movtmi	r4, #16640	; 0x4100
     99c:	5f325f31 	svcpl	0x00325f31
     9a0:	6e515249 	cdpvs	2, 5, cr5, cr1, cr9, {2}
     9a4:	4d495400 	cfstrdmi	mvd5, [r9, #-0]
     9a8:	41445f36 	cmpmi	r4, r6, lsr pc
     9ac:	52495f43 	subpl	r5, r9, #268	; 0x10c
     9b0:	75006e51 	strvc	r6, [r0, #-3665]	; 0xfffff1af
     9b4:	63695477 	cmnvs	r9, #1996488704	; 0x77000000
     9b8:	6572466b 	ldrbvs	r4, [r2, #-1643]!	; 0xfffff995
     9bc:	49540071 	ldmdbmi	r4, {r0, r4, r5, r6}^
     9c0:	445f374d 	ldrbmi	r3, [pc], #-1869	; 9c8 <_Min_Stack_Size+0x5c8>
     9c4:	495f4341 	ldmdbmi	pc, {r0, r6, r8, r9, lr}^	; <UNPREDICTABLE>
     9c8:	006e5152 	rsbeq	r5, lr, r2, asr r1
     9cc:	33433249 	movtcc	r3, #12873	; 0x3249
     9d0:	5f52455f 	svcpl	0x0052455f
     9d4:	6e515249 	cdpvs	2, 5, cr5, cr1, cr9, {2}
     9d8:	6e655000 	cdpvs	0, 6, cr5, cr5, cr0, {0}
     9dc:	5f565364 	svcpl	0x00565364
     9e0:	6e515249 	cdpvs	2, 5, cr5, cr1, cr9, {2}
     9e4:	414d4400 	cmpmi	sp, r0, lsl #8
     9e8:	68435f32 	stmdavs	r3, {r1, r4, r5, r8, r9, sl, fp, ip, lr}^
     9ec:	656e6e61 	strbvs	r6, [lr, #-3681]!	; 0xfffff19f
     9f0:	495f386c 	ldmdbmi	pc, {r2, r3, r5, r6, fp, ip, sp}^	; <UNPREDICTABLE>
     9f4:	006e5152 	rsbeq	r5, lr, r2, asr r1
     9f8:	5f4c4148 	svcpl	0x004c4148
     9fc:	43535953 	cmpmi	r3, #1359872	; 0x14c000
     a00:	565f4746 	ldrbpl	r4, [pc], -r6, asr #14
     a04:	42464552 	submi	r4, r6, #343932928	; 0x14800000
     a08:	545f4655 	ldrbpl	r4, [pc], #-1621	; a10 <_Min_Stack_Size+0x610>
     a0c:	6d6d6972 			; <UNDEFINED> instruction: 0x6d6d6972
     a10:	43676e69 	cmnmi	r7, #1680	; 0x690
     a14:	69666e6f 	stmdbvs	r6!, {r0, r1, r2, r3, r5, r6, r9, sl, fp, sp, lr}^
     a18:	41480067 	cmpmi	r8, r7, rrx
     a1c:	734d5f4c 	movtvc	r5, #57164	; 0xdf4c
     a20:	49654470 	stmdbmi	r5!, {r4, r5, r6, sl, lr}^
     a24:	0074696e 	rsbseq	r6, r4, lr, ror #18
     a28:	5f4c4148 	svcpl	0x004c4148
     a2c:	43535953 	cmpmi	r3, #1359872	; 0x14c000
     a30:	455f4746 	ldrbmi	r4, [pc, #-1862]	; 2f2 <_Min_Heap_Size+0xf2>
     a34:	6c62616e 	stfvse	f6, [r2], #-440	; 0xfffffe48
     a38:	534f4965 	movtpl	r4, #63845	; 0xf965
     a3c:	63746977 	cmnvs	r4, #1949696	; 0x1dc000
     a40:	6f6f4268 	svcvs	0x006f4268
     a44:	72657473 	rsbvc	r7, r5, #1929379840	; 0x73000000
     a48:	43444600 	movtmi	r4, #17920	; 0x4600
     a4c:	5f314e41 	svcpl	0x00314e41
     a50:	5f315449 	svcpl	0x00315449
     a54:	6e515249 	cdpvs	2, 5, cr5, cr1, cr9, {2}
     a58:	4c414800 	mcrrmi	8, 0, r4, r1, cr0
     a5c:	4742445f 	smlsldmi	r4, r2, pc, r4	; <UNPREDICTABLE>
     a60:	5f55434d 	svcpl	0x0055434d
     a64:	61736944 	cmnvs	r3, r4, asr #18
     a68:	44656c62 	strbtmi	r6, [r5], #-3170	; 0xfffff39e
     a6c:	6c534742 	mrrcvs	7, 4, r4, r3, cr2
     a70:	4d706565 	cfldr64mi	mvdx6, [r0, #-404]!	; 0xfffffe6c
     a74:	0065646f 	rsbeq	r6, r5, pc, ror #8
     a78:	46737542 	ldrbtmi	r7, [r3], -r2, asr #10
     a7c:	746c7561 	strbtvc	r7, [ip], #-1377	; 0xfffffa9f
     a80:	5152495f 	cmppl	r2, pc, asr r9
     a84:	5355006e 	cmppl	r5, #110	; 0x6e
     a88:	50485f42 	subpl	r5, r8, r2, asr #30
     a8c:	5152495f 	cmppl	r2, pc, asr r9
     a90:	4954006e 	ldmdbmi	r4, {r1, r2, r3, r5, r6}^
     a94:	5f30324d 	svcpl	0x0030324d
     a98:	495f4343 	ldmdbmi	pc, {r0, r1, r6, r8, r9, lr}^	; <UNPREDICTABLE>
     a9c:	006e5152 	rsbeq	r5, lr, r2, asr r1
     aa0:	52505753 	subspl	r5, r0, #21757952	; 0x14c0000
     aa4:	42504100 	subsmi	r4, r0, #0, 2
     aa8:	525a4631 	subspl	r4, sl, #51380224	; 0x3100000
     aac:	43530032 	cmpmi	r3, #50	; 0x32
     ab0:	54005253 	strpl	r5, [r0], #-595	; 0xfffffdad
     ab4:	30324d49 	eorscc	r4, r2, r9, asr #26
     ab8:	4752545f 			; <UNDEFINED> instruction: 0x4752545f
     abc:	4d4f435f 	stclmi	3, cr4, [pc, #-380]	; 948 <_Min_Stack_Size+0x548>
     ac0:	5152495f 	cmppl	r2, pc, asr r9
     ac4:	4d44006e 	stclmi	0, cr0, [r4, #-440]	; 0xfffffe48
     ac8:	435f3241 	cmpmi	pc, #268435460	; 0x10000004
     acc:	6e6e6168 	powvsez	f6, f6, #0.0
     ad0:	5f366c65 	svcpl	0x00366c65
     ad4:	6e515249 	cdpvs	2, 5, cr5, cr1, cr9, {2}
     ad8:	43444600 	movtmi	r4, #17920	; 0x4600
     adc:	5f334e41 	svcpl	0x00334e41
     ae0:	5f315449 	svcpl	0x00315449
     ae4:	6e515249 	cdpvs	2, 5, cr5, cr1, cr9, {2}
     ae8:	54504c00 	ldrbpl	r4, [r0], #-3072	; 0xfffff400
     aec:	5f314d49 	svcpl	0x00314d49
     af0:	6e515249 	cdpvs	2, 5, cr5, cr1, cr9, {2}
     af4:	4c414800 	mcrrmi	8, 0, r4, r1, cr0
     af8:	4742445f 	smlsldmi	r4, r2, pc, r4	; <UNPREDICTABLE>
     afc:	5f55434d 	svcpl	0x0055434d
     b00:	61736944 	cmnvs	r3, r4, asr #18
     b04:	44656c62 	strbtmi	r6, [r5], #-3170	; 0xfffff39e
     b08:	74534742 	ldrbvc	r4, [r3], #-1858	; 0xfffff8be
     b0c:	6f4d706f 	svcvs	0x004d706f
     b10:	50006564 	andpl	r6, r0, r4, ror #10
     b14:	505f4456 	subspl	r4, pc, r6, asr r4	; <UNPREDICTABLE>
     b18:	495f4d56 	ldmdbmi	pc, {r1, r2, r4, r6, r8, sl, fp, lr}^	; <UNPREDICTABLE>
     b1c:	006e5152 	rsbeq	r5, lr, r2, asr r1
     b20:	34434441 	strbcc	r4, [r3], #-1089	; 0xfffffbbf
     b24:	5152495f 	cmppl	r2, pc, asr r9
     b28:	7775006e 	ldrbvc	r0, [r5, -lr, rrx]!
     b2c:	6b636954 	blvs	18db084 <_Min_Stack_Size+0x18dac84>
     b30:	43324900 	teqmi	r2, #0, 18
     b34:	56455f33 			; <UNDEFINED> instruction: 0x56455f33
     b38:	5152495f 	cmppl	r2, pc, asr r9
     b3c:	4153006e 	cmpmi	r3, lr, rrx
     b40:	495f3149 	ldmdbmi	pc, {r0, r3, r6, r8, ip, sp}^	; <UNPREDICTABLE>
     b44:	006e5152 	rsbeq	r5, lr, r2, asr r1
     b48:	54524155 	ldrbpl	r4, [r2], #-341	; 0xfffffeab
     b4c:	52495f34 	subpl	r5, r9, #52, 30	; 0xd0
     b50:	44006e51 	strmi	r6, [r0], #-3665	; 0xfffff1af
     b54:	5f31414d 	svcpl	0x0031414d
     b58:	6e616843 	cdpvs	8, 6, cr6, cr1, cr3, {2}
     b5c:	356c656e 	strbcc	r6, [ip, #-1390]!	; 0xfffffa92
     b60:	5152495f 	cmppl	r2, pc, asr r9
     b64:	4143006e 	cmpmi	r3, lr, rrx
     b68:	0042494c 	subeq	r4, r2, ip, asr #18
     b6c:	6d697254 	sfmvs	f7, 2, [r9, #-336]!	; 0xfffffeb0
     b70:	676e696d 	strbvs	r6, [lr, -sp, ror #18]!
     b74:	756c6156 	strbvc	r6, [ip, #-342]!	; 0xfffffeaa
     b78:	41480065 	cmpmi	r8, r5, rrx
     b7c:	42445f4c 	submi	r5, r4, #76, 30	; 0x130
     b80:	55434d47 	strbpl	r4, [r3, #-3399]	; 0xfffff2b9
     b84:	616e455f 	cmnvs	lr, pc, asr r5
     b88:	44656c62 	strbtmi	r6, [r5], #-3170	; 0xfffff39e
     b8c:	74534742 	ldrbvc	r4, [r3], #-1858	; 0xfffff8be
     b90:	6f4d706f 	svcvs	0x004d706f
     b94:	51006564 	tstpl	r0, r4, ror #10
     b98:	53444155 	movtpl	r4, #16725	; 0x4155
     b9c:	495f4950 	ldmdbmi	pc, {r4, r6, r8, fp, lr}^	; <UNPREDICTABLE>
     ba0:	006e5152 	rsbeq	r5, lr, r2, asr r1
     ba4:	64726148 	ldrbtvs	r6, [r2], #-328	; 0xfffffeb8
     ba8:	6c756146 	ldfvse	f6, [r5], #-280	; 0xfffffee8
     bac:	52495f74 	subpl	r5, r9, #116, 30	; 0x1d0
     bb0:	45006e51 	strmi	r6, [r0, #-3665]	; 0xfffff1af
     bb4:	31495458 	cmpcc	r9, r8, asr r4
     bb8:	30315f35 	eorscc	r5, r1, r5, lsr pc
     bbc:	5152495f 	cmppl	r2, pc, asr r9
     bc0:	5041006e 	subpl	r0, r1, lr, rrx
     bc4:	5a463242 	bpl	118d4d4 <_Min_Stack_Size+0x118d0d4>
     bc8:	49505300 	ldmdbmi	r0, {r8, r9, ip, lr}^
     bcc:	52495f31 	subpl	r5, r9, #49, 30	; 0xc4
     bd0:	53006e51 	movwpl	r6, #3665	; 0xe51
     bd4:	69547379 	ldmdbvs	r4, {r0, r3, r4, r5, r6, r8, r9, ip, sp, lr}^
     bd8:	545f6b63 	ldrbpl	r6, [pc], #-2915	; be0 <_Min_Stack_Size+0x7e0>
     bdc:	00657079 	rsbeq	r7, r5, r9, ror r0
     be0:	32414d44 	subcc	r4, r1, #68, 26	; 0x1100
     be4:	6168435f 	cmnvs	r8, pc, asr r3
     be8:	6c656e6e 	stclvs	14, cr6, [r5], #-440	; 0xfffffe48
     bec:	52495f37 	subpl	r5, r9, #55, 30	; 0xdc
     bf0:	48006e51 	stmdami	r0, {r0, r4, r6, r9, sl, fp, sp, lr}
     bf4:	535f4c41 	cmppl	pc, #16640	; 0x4100
     bf8:	75746174 	ldrbvc	r6, [r4, #-372]!	; 0xfffffe8c
     bfc:	70795473 	rsbsvc	r5, r9, r3, ror r4
     c00:	66654465 	strbtvs	r4, [r5], -r5, ror #8
     c04:	4c414800 	mcrrmi	8, 0, r4, r1, cr0
     c08:	5359535f 	cmppl	r9, #2080374785	; 0x7c000001
     c0c:	4b434954 	blmi	10d3164 <_Min_Stack_Size+0x10d2d64>
     c10:	6e6f435f 	mcrvs	3, 3, r4, cr15, cr15, {2}
     c14:	00676966 	rsbeq	r6, r7, r6, ror #18
     c18:	31414d44 	cmpcc	r1, r4, asr #26
     c1c:	6168435f 	cmnvs	r8, pc, asr r3
     c20:	6c656e6e 	stclvs	14, cr6, [r5], #-440	; 0xfffffe48
     c24:	52495f37 	subpl	r5, r9, #55, 30	; 0xdc
     c28:	44006e51 	strmi	r6, [r0], #-3665	; 0xfffff1af
     c2c:	5f31414d 	svcpl	0x0031414d
     c30:	6e616843 	cdpvs	8, 6, cr6, cr1, cr3, {2}
     c34:	346c656e 	strbtcc	r6, [ip], #-1390	; 0xfffffa92
     c38:	5152495f 	cmppl	r2, pc, asr r9
     c3c:	4441006e 	strbmi	r0, [r1], #-110	; 0xffffff92
     c40:	495f3543 	ldmdbmi	pc, {r0, r1, r6, r8, sl, ip, sp}^	; <UNPREDICTABLE>
     c44:	006e5152 	rsbeq	r5, lr, r2, asr r1
     c48:	54737953 	ldrbtpl	r7, [r3], #-2387	; 0xfffff6ad
     c4c:	5f6b6369 	svcpl	0x006b6369
     c50:	6e515249 	cdpvs	2, 5, cr5, cr1, cr9, {2}
     c54:	4d495400 	cfstrdmi	mvd5, [r9, #-0]
     c58:	43435f31 	movtmi	r5, #16177	; 0x3f31
     c5c:	5152495f 	cmppl	r2, pc, asr r9
     c60:	4449006e 	strbmi	r0, [r9], #-110	; 0xffffff92
     c64:	45444f43 	strbmi	r4, [r4, #-3907]	; 0xfffff0bd
     c68:	4d4f4300 	stclmi	3, cr4, [pc, #-0]	; c70 <_Min_Stack_Size+0x870>
     c6c:	355f3450 	ldrbcc	r3, [pc, #-1104]	; 824 <_Min_Stack_Size+0x424>
     c70:	495f365f 	ldmdbmi	pc, {r0, r1, r2, r3, r4, r6, r9, sl, ip, sp}^	; <UNPREDICTABLE>
     c74:	006e5152 	rsbeq	r5, lr, r2, asr r1
     c78:	31414d44 	cmpcc	r1, r4, asr #26
     c7c:	6168435f 	cmnvs	r8, pc, asr r3
     c80:	6c656e6e 	stclvs	14, cr6, [r5], #-440	; 0xfffffe48
     c84:	52495f32 	subpl	r5, r9, #50, 30	; 0xc8
     c88:	54006e51 	strpl	r6, [r0], #-3665	; 0xfffff1af
     c8c:	5f384d49 	svcpl	0x00384d49
     c90:	5f4b5242 	svcpl	0x004b5242
     c94:	6e515249 	cdpvs	2, 5, cr5, cr1, cr9, {2}
     c98:	43324900 	teqmi	r2, #0, 18
     c9c:	56455f34 			; <UNDEFINED> instruction: 0x56455f34
     ca0:	5152495f 	cmppl	r2, pc, asr r9
     ca4:	4f4c006e 	svcmi	0x004c006e
     ca8:	48004441 	stmdami	r0, {r0, r6, sl, lr}
     cac:	475f4c41 	ldrbmi	r4, [pc, -r1, asr #24]
     cb0:	69547465 	ldmdbvs	r4, {r0, r2, r5, r6, sl, ip, sp, lr}^
     cb4:	53006b63 	movwpl	r6, #2915	; 0xb63
     cb8:	6c614356 	stclvs	3, cr4, [r1], #-344	; 0xfffffea8
     cbc:	52495f6c 	subpl	r5, r9, #108, 30	; 0x1b0
     cc0:	48006e51 	stmdami	r0, {r0, r4, r6, r9, sl, fp, sp, lr}
     cc4:	535f4c41 	cmppl	pc, #16640	; 0x4100
     cc8:	46435359 			; <UNDEFINED> instruction: 0x46435359
     ccc:	69445f47 	stmdbvs	r4, {r0, r1, r2, r6, r8, r9, sl, fp, ip, lr}^
     cd0:	6c626173 	stfvse	f6, [r2], #-460	; 0xfffffe34
     cd4:	534f4965 	movtpl	r4, #63845	; 0xf965
     cd8:	63746977 	cmnvs	r4, #1949696	; 0x1dc000
     cdc:	44445668 	strbmi	r5, [r4], #-1640	; 0xfffff998
     ce0:	414d4400 	cmpmi	sp, r0, lsl #8
     ce4:	68435f32 	stmdavs	r3, {r1, r4, r5, r8, r9, sl, fp, ip, lr}^
     ce8:	656e6e61 	strbvs	r6, [lr, #-3681]!	; 0xfffff19f
     cec:	495f326c 	ldmdbmi	pc, {r2, r3, r5, r6, r9, ip, sp}^	; <UNPREDICTABLE>
     cf0:	006e5152 	rsbeq	r5, lr, r2, asr r1
     cf4:	32414d44 	subcc	r4, r1, #68, 26	; 0x1100
     cf8:	6168435f 	cmnvs	r8, pc, asr r3
     cfc:	6c656e6e 	stclvs	14, cr6, [r5], #-440	; 0xfffffe48
     d00:	52495f35 	subpl	r5, r9, #53, 30	; 0xd4
     d04:	54006e51 	strpl	r6, [r0], #-3665	; 0xfffff1af
     d08:	5f354d49 	svcpl	0x00354d49
     d0c:	6e515249 	cdpvs	2, 5, cr5, cr1, cr9, {2}
     d10:	49505300 	ldmdbmi	r0, {r8, r9, ip, lr}^
     d14:	52495f32 	subpl	r5, r9, #50, 30	; 0xc8
     d18:	55006e51 	strpl	r6, [r0, #-3665]	; 0xfffff1af
     d1c:	35545241 	ldrbcc	r5, [r4, #-577]	; 0xfffffdbf
     d20:	5152495f 	cmppl	r2, pc, asr r9
     d24:	7244006e 	subvc	r0, r4, #110	; 0x6e
     d28:	72657669 	rsbvc	r7, r5, #110100480	; 0x6900000
     d2c:	54532f73 	ldrbpl	r2, [r3], #-3955	; 0xfffff08d
     d30:	4732334d 	ldrmi	r3, [r2, -sp, asr #6]!
     d34:	5f787834 	svcpl	0x00787834
     d38:	5f4c4148 	svcpl	0x004c4148
     d3c:	76697244 	strbtvc	r7, [r9], -r4, asr #4
     d40:	532f7265 			; <UNDEFINED> instruction: 0x532f7265
     d44:	732f6372 			; <UNDEFINED> instruction: 0x732f6372
     d48:	32336d74 	eorscc	r6, r3, #116, 26	; 0x1d00
     d4c:	78783467 	ldmdavc	r8!, {r0, r1, r2, r5, r6, sl, ip, sp}^
     d50:	6c61685f 	stclvs	8, cr6, [r1], #-380	; 0xfffffe84
     d54:	4800632e 	stmdami	r0, {r1, r2, r3, r5, r8, r9, sp, lr}
     d58:	4e5f4c41 	cdpmi	12, 5, cr4, cr15, cr1, {2}
     d5c:	5f434956 	svcpl	0x00434956
     d60:	50746553 	rsbspl	r6, r4, r3, asr r5
     d64:	726f6972 	rsbvc	r6, pc, #1867776	; 0x1c8000
     d68:	00797469 	rsbseq	r7, r9, r9, ror #8
     d6c:	5f4c4148 	svcpl	0x004c4148
     d70:	43535953 	cmpmi	r3, #1359872	; 0x14c000
     d74:	565f4746 	ldrbpl	r4, [pc], -r6, asr #14
     d78:	42464552 	submi	r4, r6, #343932928	; 0x14800000
     d7c:	565f4655 			; <UNDEFINED> instruction: 0x565f4655
     d80:	61746c6f 	cmnvs	r4, pc, ror #24
     d84:	63536567 	cmpvs	r3, #432013312	; 0x19c00000
     d88:	6e696c61 	cdpvs	12, 6, cr6, cr9, cr1, {3}
     d8c:	6e6f4367 	cdpvs	3, 6, cr4, cr15, cr7, {3}
     d90:	00676966 	rsbeq	r6, r7, r6, ror #18
     d94:	46455256 			; <UNDEFINED> instruction: 0x46455256
     d98:	5f465542 	svcpl	0x00465542
     d9c:	65707954 	ldrbvs	r7, [r0, #-2388]!	; 0xfffff6ac
     da0:	00666544 	rsbeq	r6, r6, r4, asr #10
     da4:	5f4c4148 	svcpl	0x004c4148
     da8:	75736552 	ldrbvc	r6, [r3, #-1362]!	; 0xfffffaae
     dac:	6954656d 	ldmdbvs	r4, {r0, r2, r3, r5, r6, r8, sl, sp, lr}^
     db0:	44006b63 	strmi	r6, [r0], #-2915	; 0xfffff49d
     db4:	5f31414d 	svcpl	0x0031414d
     db8:	6e616843 	cdpvs	8, 6, cr6, cr1, cr3, {2}
     dbc:	316c656e 	cmncc	ip, lr, ror #10
     dc0:	5152495f 	cmppl	r2, pc, asr r9
     dc4:	654d006e 	strbvs	r0, [sp, #-110]	; 0xffffff92
     dc8:	79726f6d 	ldmdbvc	r2!, {r0, r2, r3, r5, r6, r8, r9, sl, fp, sp, lr}^
     dcc:	616e614d 	cmnvs	lr, sp, asr #2
     dd0:	656d6567 	strbvs	r6, [sp, #-1383]!	; 0xfffffa99
     dd4:	495f746e 	ldmdbmi	pc, {r1, r2, r3, r5, r6, sl, ip, sp, lr}^	; <UNPREDICTABLE>
     dd8:	006e5152 	rsbeq	r5, lr, r2, asr r1
     ddc:	5f4c4148 	svcpl	0x004c4148
     de0:	43535953 	cmpmi	r3, #1359872	; 0x14c000
     de4:	455f4746 	ldrbmi	r4, [pc, #-1862]	; 6a6 <_Min_Stack_Size+0x2a6>
     de8:	6c62616e 	stfvse	f6, [r2], #-440	; 0xfffffe48
     dec:	6d654d65 	stclvs	13, cr4, [r5, #-404]!	; 0xfffffe6c
     df0:	5379726f 	cmnpl	r9, #-268435450	; 0xf0000006
     df4:	70706177 	rsbsvc	r6, r0, r7, ror r1
     df8:	42676e69 	rsbmi	r6, r7, #1680	; 0x690
     dfc:	006b6e61 	rsbeq	r6, fp, r1, ror #28
     e00:	5f4c4148 	svcpl	0x004c4148
     e04:	74696e49 	strbtvc	r6, [r9], #-3657	; 0xfffff1b7
     e08:	6b636954 	blvs	18db360 <_Min_Stack_Size+0x18daf60>
     e0c:	53524300 	cmppl	r2, #0, 6
     e10:	5152495f 	cmppl	r2, pc, asr r9
     e14:	4446006e 	strbmi	r0, [r6], #-110	; 0xffffff92
     e18:	324e4143 	subcc	r4, lr, #-1073741808	; 0xc0000010
     e1c:	3154495f 	cmpcc	r4, pc, asr r9
     e20:	5152495f 	cmppl	r2, pc, asr r9
     e24:	4d44006e 	stclmi	0, cr0, [r4, #-440]	; 0xfffffe48
     e28:	435f3241 	cmpmi	pc, #268435460	; 0x10000004
     e2c:	6e6e6168 	powvsez	f6, f6, #0.0
     e30:	5f336c65 	svcpl	0x00336c65
     e34:	6e515249 	cdpvs	2, 5, cr5, cr1, cr9, {2}
     e38:	53595300 	cmppl	r9, #0, 6
     e3c:	5f474643 	svcpl	0x00474643
     e40:	65707954 	ldrbvs	r7, [r0, #-2388]!	; 0xfffff6ac
     e44:	00666544 	rsbeq	r6, r6, r4, asr #10
     e48:	324d4954 	subcc	r4, sp, #84, 18	; 0x150000
     e4c:	50555f30 	subspl	r5, r5, r0, lsr pc
     e50:	5152495f 	cmppl	r2, pc, asr r9
     e54:	4148006e 	cmpmi	r8, lr, rrx
     e58:	59535f4c 	ldmdbpl	r3, {r2, r3, r6, r8, r9, sl, fp, ip, lr}^
     e5c:	47464353 	smlsldmi	r4, r6, r3, r3
     e60:	616e455f 	cmnvs	lr, pc, asr r5
     e64:	49656c62 	stmdbmi	r5!, {r1, r5, r6, sl, fp, sp, lr}^
     e68:	6977534f 	ldmdbvs	r7!, {r0, r1, r2, r3, r6, r8, r9, ip, lr}^
     e6c:	56686374 			; <UNDEFINED> instruction: 0x56686374
     e70:	45004444 	strmi	r4, [r0, #-1092]	; 0xfffffbbc
     e74:	34495458 	strbcc	r5, [r9], #-1112	; 0xfffffba8
     e78:	5152495f 	cmppl	r2, pc, asr r9
     e7c:	4e52006e 	cdpmi	0, 5, cr0, cr2, cr14, {3}
     e80:	52495f47 	subpl	r5, r9, #284	; 0x11c
     e84:	48006e51 	stmdami	r0, {r0, r4, r6, r9, sl, fp, sp, lr}
     e88:	445f4c41 	ldrbmi	r4, [pc], #-3137	; e90 <_Min_Stack_Size+0xa90>
     e8c:	434d4742 	movtmi	r4, #55106	; 0xd742
     e90:	69445f55 	stmdbvs	r4, {r0, r2, r4, r6, r8, r9, sl, fp, ip, lr}^
     e94:	6c626173 	stfvse	f6, [r2], #-460	; 0xfffffe34
     e98:	47424465 	strbmi	r4, [r2, -r5, ror #8]
     e9c:	6e617453 	mcrvs	4, 3, r7, cr1, cr3, {2}
     ea0:	4d796264 	lfmmi	f6, 2, [r9, #-400]!	; 0xfffffe70
     ea4:	0065646f 	rsbeq	r6, r5, pc, ror #8
     ea8:	6b636974 	blvs	18db480 <_Min_Stack_Size+0x18db080>
     eac:	72617473 	rsbvc	r7, r1, #1929379840	; 0x73000000
     eb0:	504c0074 	subpl	r0, ip, r4, ror r0
     eb4:	54524155 	ldrbpl	r4, [r2], #-341	; 0xfffffeab
     eb8:	52495f31 	subpl	r5, r9, #49, 30	; 0xc4
     ebc:	44006e51 	strmi	r6, [r0], #-3665	; 0xfffff1af
     ec0:	5f31414d 	svcpl	0x0031414d
     ec4:	6e616843 	cdpvs	8, 6, cr6, cr1, cr3, {2}
     ec8:	336c656e 	cmncc	ip, #461373440	; 0x1b800000
     ecc:	5152495f 	cmppl	r2, pc, asr r9
     ed0:	4d46006e 	stclmi	0, cr0, [r6, #-440]	; 0xfffffe48
     ed4:	52495f43 	subpl	r5, r9, #268	; 0x10c
     ed8:	43006e51 	movwmi	r6, #3665	; 0xe51
     edc:	31504d4f 	cmpcc	r0, pc, asr #26
     ee0:	335f325f 	cmpcc	pc, #-268435451	; 0xf0000005
     ee4:	5152495f 	cmppl	r2, pc, asr r9
     ee8:	4148006e 	cmpmi	r8, lr, rrx
     eec:	564e5f4c 	strbpl	r5, [lr], -ip, asr #30
     ef0:	535f4349 	cmppl	pc, #603979777	; 0x24000001
     ef4:	72507465 	subsvc	r7, r0, #1694498816	; 0x65000000
     ef8:	69726f69 	ldmdbvs	r2!, {r0, r3, r5, r6, r8, r9, sl, fp, sp, lr}^
     efc:	72477974 	subvc	r7, r7, #116, 18	; 0x1d0000
     f00:	6970756f 	ldmdbvs	r0!, {r0, r1, r2, r3, r5, r6, r8, sl, ip, sp, lr}^
     f04:	4500676e 	strmi	r6, [r0, #-1902]	; 0xfffff892
     f08:	32495458 	subcc	r5, r9, #88, 8	; 0x58000000
     f0c:	5152495f 	cmppl	r2, pc, asr r9
     f10:	4148006e 	cmpmi	r8, lr, rrx
     f14:	75535f4c 	ldrbvc	r5, [r3, #-3916]	; 0xfffff0b4
     f18:	6e657073 	mcrvs	0, 3, r7, cr5, cr3, {3}
     f1c:	63695464 	cmnvs	r9, #100, 8	; 0x64000000
     f20:	4148006b 	cmpmi	r8, fp, rrx
     f24:	42445f4c 	submi	r5, r4, #76, 30	; 0x130
     f28:	55434d47 	strbpl	r4, [r3, #-3399]	; 0xfffff2b9
     f2c:	616e455f 	cmnvs	lr, pc, asr r5
     f30:	44656c62 	strbtmi	r6, [r5], #-3170	; 0xfffff39e
     f34:	6c534742 	mrrcvs	7, 4, r4, r3, cr2
     f38:	4d706565 	cfldr64mi	mvdx6, [r0, #-404]!	; 0xfffffe6c
     f3c:	0065646f 	rsbeq	r6, r5, pc, ror #8
     f40:	53414c46 	movtpl	r4, #7238	; 0x1c46
     f44:	52495f48 	subpl	r5, r9, #72, 30	; 0x120
     f48:	54006e51 	strpl	r6, [r0], #-3665	; 0xfffff1af
     f4c:	5f314d49 	svcpl	0x00314d49
     f50:	545f5055 	ldrbpl	r5, [pc], #-85	; f58 <_Min_Stack_Size+0xb58>
     f54:	36314d49 	ldrtcc	r4, [r1], -r9, asr #26
     f58:	5152495f 	cmppl	r2, pc, asr r9
     f5c:	4244006e 	submi	r0, r4, #110	; 0x6e
     f60:	55434d47 	strbpl	r4, [r3, #-3399]	; 0xfffff2b9
     f64:	7079545f 	rsbsvc	r5, r9, pc, asr r4
     f68:	66654465 	strbtvs	r4, [r5], -r5, ror #8
     f6c:	4c414800 	mcrrmi	8, 0, r4, r1, cr0
     f70:	7465475f 	strbtvc	r4, [r5], #-1887	; 0xfffff8a1
     f74:	49564552 	ldmdbmi	r6, {r1, r4, r6, r8, sl, lr}^
     f78:	49540044 	ldmdbmi	r4, {r2, r6}^
     f7c:	545f384d 	ldrbpl	r3, [pc], #-2125	; f84 <_Min_Stack_Size+0xb84>
     f80:	435f4752 	cmpmi	pc, #21495808	; 0x1480000
     f84:	495f4d4f 	ldmdbmi	pc, {r0, r1, r2, r3, r6, r8, sl, fp, lr}^	; <UNPREDICTABLE>
     f88:	006e5152 	rsbeq	r5, lr, r2, asr r1
     f8c:	52415355 	subpl	r5, r1, #1409286145	; 0x54000001
     f90:	495f3254 	ldmdbmi	pc, {r2, r4, r6, r9, ip, sp}^	; <UNPREDICTABLE>
     f94:	006e5152 	rsbeq	r5, lr, r2, asr r1
     f98:	67617355 			; <UNDEFINED> instruction: 0x67617355
     f9c:	75614665 	strbvc	r4, [r1, #-1637]!	; 0xfffff99b
     fa0:	495f746c 	ldmdbmi	pc, {r2, r3, r5, r6, sl, ip, sp, lr}^	; <UNPREDICTABLE>
     fa4:	006e5152 	rsbeq	r5, lr, r2, asr r1
     fa8:	5f4c4148 	svcpl	0x004c4148
     fac:	43535953 	cmpmi	r3, #1359872	; 0x14c000
     fb0:	445f4746 	ldrbmi	r4, [pc], #-1862	; fb8 <_Min_Stack_Size+0xbb8>
     fb4:	62617369 	rsbvs	r7, r1, #-1543503871	; 0xa4000001
     fb8:	654d656c 	strbvs	r6, [sp, #-1388]	; 0xfffffa94
     fbc:	79726f6d 	ldmdbvc	r2!, {r0, r2, r3, r5, r6, r8, r9, sl, fp, sp, lr}^
     fc0:	70617753 	rsbvc	r7, r1, r3, asr r7
     fc4:	676e6970 			; <UNDEFINED> instruction: 0x676e6970
     fc8:	6b6e6142 	blvs	1b994d8 <_Min_Stack_Size+0x1b990d8>
     fcc:	54777500 	ldrbtpl	r7, [r7], #-1280	; 0xfffffb00
     fd0:	506b6369 	rsbpl	r6, fp, r9, ror #6
     fd4:	006f6972 	rsbeq	r6, pc, r2, ror r9	; <UNPREDICTABLE>
     fd8:	32414d44 	subcc	r4, r1, #68, 26	; 0x1100
     fdc:	6168435f 	cmnvs	r8, pc, asr r3
     fe0:	6c656e6e 	stclvs	14, cr6, [r5], #-440	; 0xfffffe48
     fe4:	52495f34 	subpl	r5, r9, #52, 30	; 0xd0
     fe8:	52006e51 	andpl	r6, r0, #1296	; 0x510
     fec:	545f4354 	ldrbpl	r4, [pc], #-852	; ff4 <_Min_Stack_Size+0xbf4>
     ff0:	5f504d41 	svcpl	0x00504d41
     ff4:	4345534c 	movtmi	r5, #21324	; 0x534c
     ff8:	495f5353 	ldmdbmi	pc, {r0, r1, r4, r6, r8, r9, ip, lr}^	; <UNPREDICTABLE>
     ffc:	006e5152 	rsbeq	r5, lr, r2, asr r1
    1000:	5f4c4148 	svcpl	0x004c4148
    1004:	54746547 	ldrbtpl	r6, [r4], #-1351	; 0xfffffab9
    1008:	466b6369 	strbtmi	r6, [fp], -r9, ror #6
    100c:	00716572 	rsbseq	r6, r1, r2, ror r5
    1010:	4d6e6f4e 	stclmi	15, cr6, [lr, #-312]!	; 0xfffffec8
    1014:	616b7361 	cmnvs	fp, r1, ror #6
    1018:	49656c62 	stmdbmi	r5!, {r1, r5, r6, sl, fp, sp, lr}^
    101c:	495f746e 	ldmdbmi	pc, {r1, r2, r3, r5, r6, sl, ip, sp, lr}^	; <UNPREDICTABLE>
    1020:	006e5152 	rsbeq	r5, lr, r2, asr r1
    1024:	5f4c4148 	svcpl	0x004c4148
    1028:	43535953 	cmpmi	r3, #1359872	; 0x14c000
    102c:	435f4746 	cmpmi	pc, #18350080	; 0x1180000
    1030:	52534d43 	subspl	r4, r3, #4288	; 0x10c0
    1034:	575f4d41 	ldrbpl	r4, [pc, -r1, asr #26]
    1038:	65746972 	ldrbvs	r6, [r4, #-2418]!	; 0xfffff68e
    103c:	746f7250 	strbtvc	r7, [pc], #-592	; 1044 <_Min_Stack_Size+0xc44>
    1040:	69746365 	ldmdbvs	r4!, {r0, r2, r5, r6, r8, r9, sp, lr}^
    1044:	6e456e6f 	cdpvs	14, 4, cr6, cr5, cr15, {3}
    1048:	656c6261 	strbvs	r6, [ip, #-609]!	; 0xfffffd9f
    104c:	414d4400 	cmpmi	sp, r0, lsl #8
    1050:	68435f31 	stmdavs	r3, {r0, r4, r5, r8, r9, sl, fp, ip, lr}^
    1054:	656e6e61 	strbvs	r6, [lr, #-3681]!	; 0xfffff19f
    1058:	495f366c 	ldmdbmi	pc, {r2, r3, r5, r6, r9, sl, ip, sp}^	; <UNPREDICTABLE>
    105c:	006e5152 	rsbeq	r5, lr, r2, asr r1
    1060:	76657270 			; <UNDEFINED> instruction: 0x76657270
    1064:	6b636954 	blvs	18db5bc <_Min_Stack_Size+0x18db1bc>
    1068:	71657246 	cmnvc	r5, r6, asr #4
    106c:	42535500 	subsmi	r5, r3, #0, 10
    1070:	5f504c5f 	svcpl	0x00504c5f
    1074:	6e515249 	cdpvs	2, 5, cr5, cr1, cr9, {2}
    1078:	42535500 	subsmi	r5, r3, #0, 10
    107c:	656b6157 	strbvs	r6, [fp, #-343]!	; 0xfffffea9
    1080:	495f7055 	ldmdbmi	pc, {r0, r2, r4, r6, ip, sp, lr}^	; <UNPREDICTABLE>
    1084:	006e5152 	rsbeq	r5, lr, r2, asr r1
    1088:	75626544 	strbvc	r6, [r2, #-1348]!	; 0xfffffabc
    108c:	6e6f4d67 	cdpvs	13, 6, cr4, cr15, cr7, {3}
    1090:	726f7469 	rsbvc	r7, pc, #1761607680	; 0x69000000
    1094:	5152495f 	cmppl	r2, pc, asr r9
    1098:	5443006e 	strbpl	r0, [r3], #-110	; 0xffffff92
    109c:	44004c52 	strmi	r4, [r0], #-3154	; 0xfffff3ae
    10a0:	554d414d 	strbpl	r4, [sp, #-333]	; 0xfffffeb3
    10a4:	564f5f58 			; <UNDEFINED> instruction: 0x564f5f58
    10a8:	52495f52 	subpl	r5, r9, #328	; 0x148
    10ac:	49006e51 	stmdbmi	r0, {r0, r4, r6, r9, sl, fp, sp, lr}
    10b0:	5f324332 	svcpl	0x00324332
    10b4:	495f5645 	ldmdbmi	pc, {r0, r2, r6, r9, sl, ip, lr}^	; <UNPREDICTABLE>
    10b8:	006e5152 	rsbeq	r5, lr, r2, asr r1
    10bc:	52415355 	subpl	r5, r1, #1409286145	; 0x54000001
    10c0:	495f3354 	ldmdbmi	pc, {r2, r4, r6, r8, r9, ip, sp}^	; <UNPREDICTABLE>
    10c4:	006e5152 	rsbeq	r5, lr, r2, asr r1
    10c8:	324d4954 	subcc	r4, sp, #84, 18	; 0x150000
    10cc:	5152495f 	cmppl	r2, pc, asr r9
    10d0:	4954006e 	ldmdbmi	r4, {r1, r2, r3, r5, r6}^
    10d4:	555f384d 	ldrbpl	r3, [pc, #-2125]	; 88f <_Min_Stack_Size+0x48f>
    10d8:	52495f50 	subpl	r5, r9, #80, 30	; 0x140
    10dc:	45006e51 	strmi	r6, [r0, #-3665]	; 0xfffff1af
    10e0:	30495458 	subcc	r5, r9, r8, asr r4
    10e4:	5152495f 	cmppl	r2, pc, asr r9
    10e8:	4148006e 	cmpmi	r8, lr, rrx
    10ec:	59535f4c 	ldmdbpl	r3, {r2, r3, r6, r8, r9, sl, fp, ip, lr}^
    10f0:	47464353 	smlsldmi	r4, r6, r3, r3
    10f4:	7369445f 	cmnvc	r9, #1593835520	; 0x5f000000
    10f8:	656c6261 	strbvs	r6, [ip, #-609]!	; 0xfffffd9f
    10fc:	77534f49 	ldrbvc	r4, [r3, -r9, asr #30]
    1100:	68637469 	stmdavs	r3!, {r0, r3, r5, r6, sl, ip, sp, lr}^
    1104:	736f6f42 	cmnvc	pc, #264	; 0x108
    1108:	00726574 	rsbseq	r6, r2, r4, ror r5
    110c:	52415355 	subpl	r5, r1, #1409286145	; 0x54000001
    1110:	495f3154 	ldmdbmi	pc, {r2, r4, r6, r8, ip, sp}^	; <UNPREDICTABLE>
    1114:	006e5152 	rsbeq	r5, lr, r2, asr r1
    1118:	65676150 	strbvs	r6, [r7, #-336]!	; 0xfffffeb0
    111c:	54584500 	ldrbpl	r4, [r8], #-1280	; 0xfffffb00
    1120:	495f3349 	ldmdbmi	pc, {r0, r3, r6, r8, r9, ip, sp}^	; <UNPREDICTABLE>
    1124:	006e5152 	rsbeq	r5, lr, r2, asr r1
    1128:	31425041 	cmpcc	r2, r1, asr #32
    112c:	31525a46 	cmpcc	r2, r6, asr #20
    1130:	47464300 	strbmi	r4, [r6, -r0, lsl #6]
    1134:	43003152 	movwmi	r3, #338	; 0x152
    1138:	32524746 	subscc	r4, r2, #18350080	; 0x1180000
    113c:	43435200 	movtmi	r5, #12800	; 0x3200
    1140:	5152495f 	cmppl	r2, pc, asr r9
    1144:	4954006e 	ldmdbmi	r4, {r1, r2, r3, r5, r6}^
    1148:	425f314d 	subsmi	r3, pc, #1073741843	; 0x40000013
    114c:	545f4b52 	ldrbpl	r4, [pc], #-2898	; 1154 <_Min_Stack_Size+0xd54>
    1150:	35314d49 	ldrcc	r4, [r1, #-3401]!	; 0xfffff2b7
    1154:	5152495f 	cmppl	r2, pc, asr r9
    1158:	5845006e 	stmdapl	r5, {r1, r2, r3, r5, r6}^
    115c:	5f314954 	svcpl	0x00314954
    1160:	6e515249 	cdpvs	2, 5, cr5, cr1, cr9, {2}
    1164:	4c414800 	mcrrmi	8, 0, r4, r1, cr0
    1168:	7465475f 	strbtvc	r4, [r5], #-1887	; 0xfffff8a1
    116c:	49564544 	ldmdbmi	r6, {r2, r6, r8, sl, lr}^
    1170:	50460044 	subpl	r0, r6, r4, asr #32
    1174:	52495f55 	subpl	r5, r9, #340	; 0x154
    1178:	48006e51 	stmdami	r0, {r0, r4, r6, r9, sl, fp, sp, lr}
    117c:	535f4c41 	cmppl	pc, #16640	; 0x4100
    1180:	46435359 			; <UNDEFINED> instruction: 0x46435359
    1184:	43435f47 	movtmi	r5, #16199	; 0x3f47
    1188:	4152534d 	cmpmi	r2, sp, asr #6
    118c:	6172454d 	cmnvs	r2, sp, asr #10
    1190:	55006573 	strpl	r6, [r0, #-1395]	; 0xfffffa8d
    1194:	31445043 	cmpcc	r4, r3, asr #32
    1198:	5152495f 	cmppl	r2, pc, asr r9
    119c:	3249006e 	subcc	r0, r9, #110	; 0x6e
    11a0:	455f3143 	ldrbmi	r3, [pc, #-323]	; 1065 <_Min_Stack_Size+0xc65>
    11a4:	52495f52 	subpl	r5, r9, #328	; 0x148
    11a8:	53006e51 	movwpl	r6, #3665	; 0xe51
    11ac:	5f334950 	svcpl	0x00334950
    11b0:	6e515249 	cdpvs	2, 5, cr5, cr1, cr9, {2}
    11b4:	414d4600 	cmpmi	sp, r0, lsl #12
    11b8:	52495f43 	subpl	r5, r9, #268	; 0x10c
    11bc:	54006e51 	strpl	r6, [r0], #-3665	; 0xfffff1af
    11c0:	5f334d49 	svcpl	0x00334d49
    11c4:	6e515249 	cdpvs	2, 5, cr5, cr1, cr9, {2}
    11c8:	54584500 	ldrbpl	r4, [r8], #-1280	; 0xfffffb00
    11cc:	00524349 	subseq	r4, r2, r9, asr #6
    11d0:	5f4c4148 	svcpl	0x004c4148
    11d4:	5f434352 	svcpl	0x00434352
    11d8:	43535343 	cmpmi	r3, #201326593	; 0xc000001
    11dc:	626c6c61 	rsbvs	r6, ip, #24832	; 0x6100
    11e0:	006b6361 	rsbeq	r6, fp, r1, ror #6
    11e4:	4f524350 	svcmi	0x00524350
    11e8:	52533250 	subspl	r3, r3, #80, 4
    11ec:	616c4600 	cmnvs	ip, r0, lsl #12
    11f0:	61745367 	cmnvs	r4, r7, ror #6
    11f4:	00737574 	rsbseq	r7, r3, r4, ror r5
    11f8:	52434450 	subpl	r4, r3, #80, 8	; 0x50000000
    11fc:	44500041 	ldrbmi	r0, [r0], #-65	; 0xffffffbf
    1200:	00425243 	subeq	r5, r2, r3, asr #4
    1204:	52434450 	subpl	r4, r3, #80, 8	; 0x50000000
    1208:	44500043 	ldrbmi	r0, [r0], #-67	; 0xffffffbd
    120c:	00445243 	subeq	r5, r4, r3, asr #4
    1210:	52434450 	subpl	r4, r3, #80, 8	; 0x50000000
    1214:	43520045 	cmpmi	r2, #69	; 0x45
    1218:	65475f43 	strbvs	r5, [r7, #-3907]	; 0xfffff0bd
    121c:	73795374 	cmnvc	r9, #116, 6	; 0xd0000001
    1220:	636f6c43 	cmnvs	pc, #17152	; 0x4300
    1224:	6572466b 	ldrbvs	r4, [r2, #-1643]!	; 0xfffff995
    1228:	6f724671 	svcvs	0x00724671
    122c:	4c4c506d 	mcrrmi	0, 6, r5, ip, cr13
    1230:	72756f53 	rsbsvc	r6, r5, #332	; 0x14c
    1234:	70006563 	andvc	r6, r0, r3, ror #10
    1238:	6c637277 	sfmvs	f7, 2, [r3], #-476	; 0xfffffe24
    123c:	6168636b 	cmnvs	r8, fp, ror #6
    1240:	6465676e 	strbtvs	r6, [r5], #-1902	; 0xfffff892
    1244:	69724400 	ldmdbvs	r2!, {sl, lr}^
    1248:	73726576 	cmnvc	r2, #494927872	; 0x1d800000
    124c:	4d54532f 	ldclmi	3, cr5, [r4, #-188]	; 0xffffff44
    1250:	34473233 	strbcc	r3, [r7], #-563	; 0xfffffdcd
    1254:	485f7878 	ldmdami	pc, {r3, r4, r5, r6, fp, ip, sp, lr}^	; <UNPREDICTABLE>
    1258:	445f4c41 	ldrbmi	r4, [pc], #-3137	; 1260 <_Min_Stack_Size+0xe60>
    125c:	65766972 	ldrbvs	r6, [r6, #-2418]!	; 0xfffff68e
    1260:	72532f72 	subsvc	r2, r3, #456	; 0x1c8
    1264:	74732f63 	ldrbtvc	r2, [r3], #-3939	; 0xfffff09d
    1268:	6732336d 	ldrvs	r3, [r2, -sp, ror #6]!
    126c:	5f787834 	svcpl	0x00787834
    1270:	5f6c6168 	svcpl	0x006c6168
    1274:	2e636372 	mcrcs	3, 3, r6, cr3, cr2, {3}
    1278:	44500063 	ldrbmi	r0, [r0], #-99	; 0xffffff9d
    127c:	00465243 	subeq	r5, r6, r3, asr #4
    1280:	53414c46 	movtpl	r4, #7238	; 0x1c46
    1284:	79545f48 	ldmdbvc	r4, {r3, r6, r8, r9, sl, fp, ip, lr}^
    1288:	65446570 	strbvs	r6, [r4, #-1392]	; 0xfffffa90
    128c:	55500066 	ldrbpl	r0, [r0, #-102]	; 0xffffff9a
    1290:	00415243 	subeq	r5, r1, r3, asr #4
    1294:	52435550 	subpl	r5, r3, #80, 10	; 0x14000000
    1298:	55500042 	ldrbpl	r0, [r0, #-66]	; 0xffffffbe
    129c:	00435243 	subeq	r5, r3, r3, asr #4
    12a0:	52435550 	subpl	r5, r3, #80, 10	; 0x14000000
    12a4:	55500044 	ldrbpl	r0, [r0, #-68]	; 0xffffffbc
    12a8:	00455243 	subeq	r5, r5, r3, asr #4
    12ac:	52435550 	subpl	r5, r3, #80, 10	; 0x14000000
    12b0:	55500046 	ldrbpl	r0, [r0, #-70]	; 0xffffffba
    12b4:	00475243 	subeq	r5, r7, r3, asr #4
    12b8:	4b54504f 	blmi	15153fc <_Min_Stack_Size+0x1514ffc>
    12bc:	00525945 	subseq	r5, r2, r5, asr #18
    12c0:	52434450 	subpl	r4, r3, #80, 8	; 0x50000000
    12c4:	52570047 	subspl	r0, r7, #71	; 0x47
    12c8:	52413250 	subpl	r3, r1, #80, 4
    12cc:	4b445000 	blmi	11152d4 <_Min_Stack_Size+0x1114ed4>
    12d0:	00525945 	subseq	r5, r2, r5, asr #18
    12d4:	4f524350 	svcmi	0x00524350
    12d8:	52533150 	subspl	r3, r3, #80, 2
    12dc:	43435200 	movtmi	r5, #12800	; 0x3200
    12e0:	4f434d5f 	svcmi	0x00434d5f
    12e4:	00766944 	rsbseq	r6, r6, r4, asr #18
    12e8:	5f4c4148 	svcpl	0x004c4148
    12ec:	5f434352 	svcpl	0x00434352
    12f0:	61736944 	cmnvs	r3, r4, asr #18
    12f4:	4c656c62 	stclmi	12, cr6, [r5], #-392	; 0xfffffe78
    12f8:	53434553 	movtpl	r4, #13651	; 0x3553
    12fc:	52570053 	subspl	r0, r7, #83	; 0x53
    1300:	52423250 	subpl	r3, r2, #80, 4
    1304:	4c414800 	mcrrmi	8, 0, r4, r1, cr0
    1308:	4343525f 	movtmi	r5, #12895	; 0x325f
    130c:	616e455f 	cmnvs	lr, pc, asr r5
    1310:	43656c62 	cmnmi	r5, #25088	; 0x6200
    1314:	57005353 	smlsdpl	r0, r3, r3, r5
    1318:	41315052 	teqmi	r1, r2, asr r0
    131c:	79730052 	ldmdbvc	r3!, {r1, r4, r6}^
    1320:	6f6c6373 	svcvs	0x006c6373
    1324:	72666b63 	rsbvc	r6, r6, #101376	; 0x18c00
    1328:	50007165 	andpl	r7, r0, r5, ror #2
    132c:	504f5243 	subpl	r5, pc, r3, asr #4
    1330:	00524532 	subseq	r4, r2, r2, lsr r5
    1334:	31434553 	cmpcc	r3, r3, asr r5
    1338:	504f0052 	subpl	r0, pc, r2, asr r0	; <UNPREDICTABLE>
    133c:	48005254 	stmdami	r0, {r2, r4, r6, r9, ip, lr}
    1340:	525f4c41 	subspl	r4, pc, #16640	; 0x4100
    1344:	4d5f4343 	ldclmi	3, cr4, [pc, #-268]	; 1240 <_Min_Stack_Size+0xe40>
    1348:	6f434f43 	svcvs	0x00434f43
    134c:	6769666e 	strbvs	r6, [r9, -lr, ror #12]!
    1350:	50525700 	subspl	r5, r2, r0, lsl #14
    1354:	00524231 	subseq	r4, r2, r1, lsr r2
    1358:	5f6f636d 	svcpl	0x006f636d
    135c:	6f697067 	svcvs	0x00697067
    1360:	646e695f 	strbtvs	r6, [lr], #-2399	; 0xfffff6a1
    1364:	48007865 	stmdami	r0, {r0, r2, r5, r6, fp, ip, sp, lr}
    1368:	525f4c41 	subspl	r4, pc, #16640	; 0x4100
    136c:	475f4343 	ldrbmi	r4, [pc, -r3, asr #6]
    1370:	43507465 	cmpmi	r0, #1694498816	; 0x65000000
    1374:	46324b4c 	ldrtmi	r4, [r2], -ip, asr #22
    1378:	00716572 	rsbseq	r6, r1, r2, ror r5
    137c:	32434553 	subcc	r4, r3, #348127232	; 0x14c00000
    1380:	45520052 	ldrbmi	r0, [r2, #-82]	; 0xffffffae
    1384:	56524553 			; <UNDEFINED> instruction: 0x56524553
    1388:	48004445 	stmdami	r0, {r0, r2, r6, sl, lr}
    138c:	525f4c41 	subspl	r4, pc, #16640	; 0x4100
    1390:	455f4343 	ldrbmi	r4, [pc, #-835]	; 1055 <_Min_Stack_Size+0xc55>
    1394:	6c62616e 	stfvse	f6, [r2], #-440	; 0xfffffe48
    1398:	45534c65 	ldrbmi	r4, [r3, #-3173]	; 0xfffff39b
    139c:	00535343 	subseq	r5, r3, r3, asr #6
    13a0:	6f697067 	svcvs	0x00697067
    13a4:	696e695f 	stmdbvs	lr!, {r0, r1, r2, r3, r4, r6, r8, fp, sp, lr}^
    13a8:	72747374 	rsbsvc	r7, r4, #116, 6	; 0xd0000001
    13ac:	00746375 	rsbseq	r6, r4, r5, ror r3
    13b0:	52434345 	subpl	r4, r3, #335544321	; 0x14000001
    13b4:	4c414800 	mcrrmi	8, 0, r4, r1, cr0
    13b8:	4343525f 	movtmi	r5, #12895	; 0x325f
    13bc:	7465475f 	strbtvc	r4, [r5], #-1887	; 0xfffff8a1
    13c0:	43737953 	cmnmi	r3, #1359872	; 0x14c000
    13c4:	6b636f6c 	blvs	18dd17c <_Min_Stack_Size+0x18dcd7c>
    13c8:	71657246 	cmnvc	r5, r6, asr #4
    13cc:	4c414800 	mcrrmi	8, 0, r4, r1, cr0
    13d0:	4343525f 	movtmi	r5, #12895	; 0x325f
    13d4:	4965445f 	stmdbmi	r5!, {r0, r1, r2, r3, r4, r6, sl, lr}^
    13d8:	0074696e 	rsbseq	r6, r4, lr, ror #18
    13dc:	5f434352 	svcpl	0x00434352
    13e0:	534f434d 	movtpl	r4, #62285	; 0xf34d
    13e4:	6372756f 	cmnvs	r2, #465567744	; 0x1bc00000
    13e8:	41480065 	cmpmi	r8, r5, rrx
    13ec:	43525f4c 	cmpmi	r2, #76, 30	; 0x130
    13f0:	65475f43 	strbvs	r5, [r7, #-3907]	; 0xfffff0bd
    13f4:	6f6c4374 	svcvs	0x006c4374
    13f8:	6f436b63 	svcvs	0x00436b63
    13fc:	6769666e 	strbvs	r6, [r9, -lr, ror #12]!
    1400:	52575000 	subspl	r5, r7, #0
    1404:	7079545f 	rsbsvc	r5, r9, pc, asr r4
    1408:	66654465 	strbtvs	r4, [r5], -r5, ror #8
    140c:	6d657400 	cfstrdvs	mvd7, [r5, #-0]
    1410:	6c705f70 	ldclvs	15, cr5, [r0], #-448	; 0xfffffe40
    1414:	636b636c 	cmnvs	fp, #108, 6	; 0xb0000001
    1418:	48006766 	stmdami	r0, {r1, r2, r5, r6, r8, r9, sl, sp, lr}
    141c:	525f4c41 	subspl	r4, pc, #16640	; 0x4100
    1420:	475f4343 	ldrbmi	r4, [pc, -r3, asr #6]
    1424:	43487465 	movtmi	r7, #33893	; 0x8465
    1428:	72464b4c 	subvc	r4, r6, #76, 22	; 0x13000
    142c:	50007165 	andpl	r7, r0, r5, ror #2
    1430:	504f5243 	subpl	r5, pc, r3, asr #4
    1434:	00524531 	subseq	r4, r2, r1, lsr r5
    1438:	666c6c70 			; <UNDEFINED> instruction: 0x666c6c70
    143c:	00716572 	rsbseq	r6, r1, r2, ror r5
    1440:	706d6574 	rsbvc	r6, sp, r4, ror r5
    1444:	7379735f 	cmnvc	r9, #2080374785	; 0x7c000001
    1448:	736b6c63 	cmnvc	fp, #25344	; 0x6300
    144c:	6d006372 	stcvs	3, cr6, [r0, #-456]	; 0xfffffe38
    1450:	6e696f63 	cdpvs	15, 6, cr6, cr9, cr3, {3}
    1454:	00786564 	rsbseq	r6, r8, r4, ror #10
    1458:	5f434352 	svcpl	0x00434352
    145c:	784f434d 	stmdavc	pc, {r0, r2, r3, r6, r8, r9, lr}^	; <UNPREDICTABLE>
    1460:	4c467000 	marmi	acc0, r7, r6
    1464:	6e657461 	cdpvs	4, 6, cr7, cr5, cr1, {3}
    1468:	48007963 	stmdami	r0, {r0, r1, r5, r6, r8, fp, ip, sp, lr}
    146c:	525f4c41 	subspl	r4, pc, #16640	; 0x4100
    1470:	475f4343 	ldrbmi	r4, [pc, -r3, asr #6]
    1474:	734f7465 	movtvc	r7, #62565	; 0xf465
    1478:	6e6f4363 	cdpvs	3, 6, cr4, cr15, cr3, {3}
    147c:	00676966 	rsbeq	r6, r7, r6, ror #18
    1480:	5f4c4148 	svcpl	0x004c4148
    1484:	5f434352 	svcpl	0x00434352
    1488:	5f494d4e 	svcpl	0x00494d4e
    148c:	48515249 	ldmdami	r1, {r0, r3, r6, r9, ip, lr}^
    1490:	6c646e61 	stclvs	14, cr6, [r4], #-388	; 0xfffffe7c
    1494:	48007265 	stmdami	r0, {r0, r2, r5, r6, r9, ip, sp, lr}
    1498:	525f4c41 	subspl	r4, pc, #16640	; 0x4100
    149c:	475f4343 	ldrbmi	r4, [pc, -r3, asr #6]
    14a0:	43507465 	cmpmi	r0, #1694498816	; 0x65000000
    14a4:	46314b4c 	ldrtmi	r4, [r1], -ip, asr #22
    14a8:	00716572 	rsbseq	r6, r1, r2, ror r5
    14ac:	5f6f636d 	svcpl	0x006f636d
    14b0:	6f697067 	svcvs	0x00697067
    14b4:	726f705f 	rsbvc	r7, pc, #95	; 0x5f
    14b8:	70680074 	rsbvc	r0, r8, r4, ror r0
    14bc:	47006572 	smlsdxmi	r0, r2, r5, r6
    14c0:	5f4f4950 	svcpl	0x004f4950
    14c4:	006e6950 	rsbeq	r6, lr, r0, asr r9
    14c8:	5f4c4148 	svcpl	0x004c4148
    14cc:	4f495047 	svcmi	0x00495047
    14d0:	636f4c5f 	cmnvs	pc, #24320	; 0x5f00
    14d4:	6e69506b 	cdpvs	0, 6, cr5, cr9, cr11, {3}
    14d8:	6d657400 	cfstrdvs	mvd7, [r5, #-0]
    14dc:	41480070 	hvcmi	32768	; 0x8000
    14e0:	50475f4c 	subpl	r5, r7, ip, asr #30
    14e4:	455f4f49 	ldrbmi	r4, [pc, #-3913]	; 5a3 <_Min_Stack_Size+0x1a3>
    14e8:	5f495458 	svcpl	0x00495458
    14ec:	48515249 	ldmdami	r1, {r0, r3, r6, r9, ip, lr}^
    14f0:	6c646e61 	stclvs	14, cr6, [r4], #-388	; 0xfffffe7c
    14f4:	53007265 	movwpl	r7, #613	; 0x265
    14f8:	52454957 	subpl	r4, r5, #1425408	; 0x15c000
    14fc:	57530031 	smmlarpl	r3, r1, r0, r0
    1500:	32524549 	subscc	r4, r2, #306184192	; 0x12400000
    1504:	54584500 	ldrbpl	r4, [r8], #-1280	; 0xfffffb00
    1508:	79545f49 	ldmdbvc	r4, {r0, r3, r6, r8, r9, sl, fp, ip, lr}^
    150c:	65446570 	strbvs	r6, [r4, #-1392]	; 0xfffffa90
    1510:	41480066 	cmpmi	r8, r6, rrx
    1514:	50475f4c 	subpl	r5, r7, ip, asr #30
    1518:	525f4f49 	subspl	r4, pc, #292	; 0x124
    151c:	50646165 	rsbpl	r6, r4, r5, ror #2
    1520:	62006e69 	andvs	r6, r0, #1680	; 0x690
    1524:	74737469 	ldrbtvc	r7, [r3], #-1129	; 0xfffffb97
    1528:	73757461 	cmnvc	r5, #1627389952	; 0x61000000
    152c:	736f7000 	cmnvc	pc, #0
    1530:	6f697469 	svcvs	0x00697469
    1534:	5452006e 	ldrbpl	r0, [r2], #-110	; 0xffffff92
    1538:	00315253 	eorseq	r5, r1, r3, asr r2
    153c:	5f4c4148 	svcpl	0x004c4148
    1540:	4f495047 	svcmi	0x00495047
    1544:	5458455f 	ldrbpl	r4, [r8], #-1375	; 0xfffffaa1
    1548:	61435f49 	cmpvs	r3, r9, asr #30
    154c:	61626c6c 	cmnvs	r2, ip, ror #24
    1550:	52006b63 	andpl	r6, r0, #101376	; 0x18c00
    1554:	32525354 	subscc	r5, r2, #84, 6	; 0x50000001
    1558:	69724400 	ldmdbvs	r2!, {sl, lr}^
    155c:	73726576 	cmnvc	r2, #494927872	; 0x1d800000
    1560:	4d54532f 	ldclmi	3, cr5, [r4, #-188]	; 0xffffff44
    1564:	34473233 	strbcc	r3, [r7], #-563	; 0xfffffdcd
    1568:	485f7878 	ldmdami	pc, {r3, r4, r5, r6, fp, ip, sp, lr}^	; <UNPREDICTABLE>
    156c:	445f4c41 	ldrbmi	r4, [pc], #-3137	; 1574 <_Min_Stack_Size+0x1174>
    1570:	65766972 	ldrbvs	r6, [r6, #-2418]!	; 0xfffff68e
    1574:	72532f72 	subsvc	r2, r3, #456	; 0x1c8
    1578:	74732f63 	ldrbtvc	r2, [r3], #-3939	; 0xfffff09d
    157c:	6732336d 	ldrvs	r3, [r2, -sp, ror #6]!
    1580:	5f787834 	svcpl	0x00787834
    1584:	5f6c6168 	svcpl	0x006c6168
    1588:	6f697067 	svcvs	0x00697067
    158c:	4700632e 	strmi	r6, [r0, -lr, lsr #6]
    1590:	784f4950 	stmdavc	pc, {r4, r6, r8, fp, lr}^	; <UNPREDICTABLE>
    1594:	524d4500 	subpl	r4, sp, #0, 10
    1598:	4d450031 	stclmi	0, cr0, [r5, #-196]	; 0xffffff3c
    159c:	49003252 	stmdbmi	r0, {r1, r4, r6, r9, ip, sp}
    15a0:	0031524d 	eorseq	r5, r1, sp, asr #4
    15a4:	32524d49 	subscc	r4, r2, #4672	; 0x1240
    15a8:	53544600 	cmppl	r4, #0, 12
    15ac:	48003152 	stmdami	r0, {r1, r4, r6, r8, ip, sp}
    15b0:	475f4c41 	ldrbmi	r4, [pc, -r1, asr #24]
    15b4:	5f4f4950 	svcpl	0x004f4950
    15b8:	6e496544 	cdpvs	5, 4, cr6, cr9, cr4, {2}
    15bc:	47007469 	strmi	r7, [r0, -r9, ror #8]
    15c0:	5f4f4950 	svcpl	0x004f4950
    15c4:	536e6950 	cmnpl	lr, #80, 18	; 0x140000
    15c8:	65746174 	ldrbvs	r6, [r4, #-372]!	; 0xfffffe8c
    15cc:	53544600 	cmppl	r4, #0, 12
    15d0:	69003252 	stmdbvs	r0, {r1, r4, r6, r9, ip, sp}
    15d4:	7275636f 	rsbsvc	r6, r5, #-1140850687	; 0xbc000001
    15d8:	746e6572 	strbtvc	r6, [lr], #-1394	; 0xfffffa8e
    15dc:	49504700 	ldmdbmi	r0, {r8, r9, sl, lr}^
    15e0:	6d754e4f 	ldclvs	14, cr4, [r5, #-316]!	; 0xfffffec4
    15e4:	00726562 	rsbseq	r6, r2, r2, ror #10
    15e8:	5f4c4148 	svcpl	0x004c4148
    15ec:	45525750 	ldrbmi	r5, [r2, #-1872]	; 0xfffff8b0
    15f0:	6e455f78 	mcrvs	15, 2, r5, cr5, cr8, {3}
    15f4:	656c6261 	strbvs	r6, [ip, #-609]!	; 0xfffffd9f
    15f8:	65746e49 	ldrbvs	r6, [r4, #-3657]!	; 0xfffff1b7
    15fc:	6c616e72 	stclvs	14, cr6, [r1], #-456	; 0xfffffe38
    1600:	656b6157 	strbvs	r6, [fp, #-343]!	; 0xfffffea9
    1604:	694c7055 	stmdbvs	ip, {r0, r2, r4, r6, ip, sp, lr}^
    1608:	4800656e 	stmdami	r0, {r1, r2, r3, r5, r6, r8, sl, sp, lr}
    160c:	505f4c41 	subspl	r4, pc, r1, asr #24
    1610:	78455257 	stmdavc	r5, {r0, r1, r2, r4, r6, r9, ip, lr}^
    1614:	616e455f 	cmnvs	lr, pc, asr r5
    1618:	4c656c62 	stclmi	12, cr6, [r5], #-392	; 0xfffffe78
    161c:	6f50776f 	svcvs	0x0050776f
    1620:	52726577 	rsbspl	r6, r2, #499122176	; 0x1dc00000
    1624:	6f4d6e75 	svcvs	0x004d6e75
    1628:	48006564 	stmdami	r0, {r2, r5, r6, r8, sl, sp, lr}
    162c:	505f4c41 	subspl	r4, pc, r1, asr #24
    1630:	78455257 	stmdavc	r5, {r0, r1, r2, r4, r6, r9, ip, lr}^
    1634:	616e455f 	cmnvs	lr, pc, asr r5
    1638:	47656c62 	strbmi	r6, [r5, -r2, ror #24]!
    163c:	504f4950 	subpl	r4, pc, r0, asr r9	; <UNPREDICTABLE>
    1640:	446c6c75 	strbtmi	r6, [ip], #-3189	; 0xfffff38b
    1644:	006e776f 	rsbeq	r7, lr, pc, ror #14
    1648:	5f4c4148 	svcpl	0x004c4148
    164c:	45525750 	ldrbmi	r5, [r2, #-1872]	; 0xfffff8b0
    1650:	69445f78 	stmdbvs	r4, {r3, r4, r5, r6, r8, r9, sl, fp, ip, lr}^
    1654:	6c626173 	stfvse	f6, [r2], #-460	; 0xfffffe34
    1658:	4d565065 	ldclmi	0, cr5, [r6, #-404]	; 0xfffffe6c
    165c:	41480031 	cmpmi	r8, r1, lsr r0
    1660:	57505f4c 	ldrbpl	r5, [r0, -ip, asr #30]
    1664:	5f784552 	svcpl	0x00784552
    1668:	61736944 	cmnvs	r3, r4, asr #18
    166c:	50656c62 	rsbpl	r6, r5, r2, ror #24
    1670:	00334d56 	eorseq	r4, r3, r6, asr sp
    1674:	5f4c4148 	svcpl	0x004c4148
    1678:	45525750 	ldrbmi	r5, [r2, #-1872]	; 0xfffff8b0
    167c:	69445f78 	stmdbvs	r4, {r3, r4, r5, r6, r8, r9, sl, fp, ip, lr}^
    1680:	6c626173 	stfvse	f6, [r2], #-460	; 0xfffffe34
    1684:	4d565065 	ldclmi	0, cr5, [r6, #-404]	; 0xfffffe6c
    1688:	41480034 	cmpmi	r8, r4, lsr r0
    168c:	57505f4c 	ldrbpl	r5, [r0, -ip, asr #30]
    1690:	5f784552 	svcpl	0x00784552
    1694:	314d5650 	cmpcc	sp, r0, asr r6
    1698:	6c6c6143 	stfvse	f6, [ip], #-268	; 0xfffffef4
    169c:	6b636162 	blvs	18d9c2c <_Min_Stack_Size+0x18d982c>
    16a0:	4c414800 	mcrrmi	8, 0, r4, r1, cr0
    16a4:	5257505f 	subspl	r5, r7, #95	; 0x5f
    16a8:	445f7845 	ldrbmi	r7, [pc], #-2117	; 16b0 <_Min_Stack_Size+0x12b0>
    16ac:	62617369 	rsbvs	r7, r1, #-1543503871	; 0xa4000001
    16b0:	6e49656c 	cdpvs	5, 4, cr6, cr9, cr12, {3}
    16b4:	6e726574 	mrcvs	5, 3, r6, cr2, cr4, {3}
    16b8:	61576c61 	cmpvs	r7, r1, ror #24
    16bc:	7055656b 	subsvc	r6, r5, fp, ror #10
    16c0:	656e694c 	strbvs	r6, [lr, #-2380]!	; 0xfffff6b4
    16c4:	4c414800 	mcrrmi	8, 0, r4, r1, cr0
    16c8:	5257505f 	subspl	r5, r7, #95	; 0x5f
    16cc:	445f7845 	ldrbmi	r7, [pc], #-2117	; 16d4 <_Min_Stack_Size+0x12d4>
    16d0:	62617369 	rsbvs	r7, r1, #-1543503871	; 0xa4000001
    16d4:	5047656c 	subpl	r6, r7, ip, ror #10
    16d8:	75504f49 	ldrbvc	r4, [r0, #-3913]	; 0xfffff0b7
    16dc:	70556c6c 	subsvc	r6, r5, ip, ror #24
    16e0:	4c414800 	mcrrmi	8, 0, r4, r1, cr0
    16e4:	5257505f 	subspl	r5, r7, #95	; 0x5f
    16e8:	445f7845 	ldrbmi	r7, [pc], #-2117	; 16f0 <_Min_Stack_Size+0x12f0>
    16ec:	62617369 	rsbvs	r7, r1, #-1543503871	; 0xa4000001
    16f0:	7550656c 	ldrbvc	r6, [r0, #-1388]	; 0xfffffa94
    16f4:	70556c6c 	subsvc	r6, r5, ip, ror #24
    16f8:	6c6c7550 	cfstr64vs	mvdx7, [ip], #-320	; 0xfffffec0
    16fc:	6e776f44 	cdpvs	15, 7, cr6, cr7, cr4, {2}
    1700:	666e6f43 	strbtvs	r6, [lr], -r3, asr #30
    1704:	48006769 	stmdami	r0, {r0, r3, r5, r6, r8, r9, sl, sp, lr}
    1708:	505f4c41 	subspl	r4, pc, r1, asr #24
    170c:	78455257 	stmdavc	r5, {r0, r1, r2, r4, r6, r9, ip, lr}^
    1710:	4d56505f 	ldclmi	0, cr5, [r6, #-380]	; 0xfffffe84
    1714:	6c614332 	stclvs	3, cr4, [r1], #-200	; 0xffffff38
    1718:	6361626c 	cmnvs	r1, #108, 4	; 0xc0000006
    171c:	7244006b 	subvc	r0, r4, #107	; 0x6b
    1720:	72657669 	rsbvc	r7, r5, #110100480	; 0x6900000
    1724:	54532f73 	ldrbpl	r2, [r3], #-3955	; 0xfffff08d
    1728:	4732334d 	ldrmi	r3, [r2, -sp, asr #6]!
    172c:	5f787834 	svcpl	0x00787834
    1730:	5f4c4148 	svcpl	0x004c4148
    1734:	76697244 	strbtvc	r7, [r9], -r4, asr #4
    1738:	532f7265 			; <UNDEFINED> instruction: 0x532f7265
    173c:	732f6372 			; <UNDEFINED> instruction: 0x732f6372
    1740:	32336d74 	eorscc	r6, r3, #116, 26	; 0x1d00
    1744:	78783467 	ldmdavc	r8!, {r0, r1, r2, r5, r6, sl, ip, sp}^
    1748:	6c61685f 	stclvs	8, cr6, [r1], #-380	; 0xfffffe84
    174c:	7277705f 	rsbsvc	r7, r7, #95	; 0x5f
    1750:	2e78655f 	mrccs	5, 3, r6, cr8, cr15, {2}
    1754:	41480063 	cmpmi	r8, r3, rrx
    1758:	57505f4c 	ldrbpl	r5, [r0, -ip, asr #30]
    175c:	5f784552 	svcpl	0x00784552
    1760:	62616e45 	rsbvs	r6, r1, #1104	; 0x450
    1764:	5253656c 	subspl	r6, r3, #108, 10	; 0x1b000000
    1768:	43324d41 	teqmi	r2, #4160	; 0x1040
    176c:	65746e6f 	ldrbvs	r6, [r4, #-3695]!	; 0xfffff191
    1770:	6552746e 	ldrbvs	r7, [r2, #-1134]	; 0xfffffb92
    1774:	746e6574 	strbtvc	r6, [lr], #-1396	; 0xfffffa8c
    1778:	006e6f69 	rsbeq	r6, lr, r9, ror #30
    177c:	5f4c4148 	svcpl	0x004c4148
    1780:	45525750 	ldrbmi	r5, [r2, #-1872]	; 0xfffff8b0
    1784:	6e455f78 	mcrvs	15, 2, r5, cr5, cr8, {3}
    1788:	656c6261 	strbvs	r6, [ip, #-609]!	; 0xfffffd9f
    178c:	44504355 	ldrbmi	r4, [r0], #-853	; 0xfffffcab
    1790:	64616544 	strbtvs	r6, [r1], #-1348	; 0xfffffabc
    1794:	74746142 	ldrbtvc	r6, [r4], #-322	; 0xfffffebe
    1798:	00797265 	rsbseq	r7, r9, r5, ror #4
    179c:	5f4c4148 	svcpl	0x004c4148
    17a0:	45525750 	ldrbmi	r5, [r2, #-1872]	; 0xfffff8b0
    17a4:	6e455f78 	mcrvs	15, 2, r5, cr5, cr8, {3}
    17a8:	656c6261 	strbvs	r6, [ip, #-609]!	; 0xfffffd9f
    17ac:	314d5650 	cmpcc	sp, r0, asr r6
    17b0:	4c414800 	mcrrmi	8, 0, r4, r1, cr0
    17b4:	5257505f 	subspl	r5, r7, #95	; 0x5f
    17b8:	455f7845 	ldrbmi	r7, [pc, #-2117]	; f7b <_Min_Stack_Size+0xb7b>
    17bc:	6c62616e 	stfvse	f6, [r2], #-440	; 0xfffffe48
    17c0:	4d565065 	ldclmi	0, cr5, [r6, #-404]	; 0xfffffe6c
    17c4:	41480032 	cmpmi	r8, r2, lsr r0
    17c8:	57505f4c 	ldrbpl	r5, [r0, -ip, asr #30]
    17cc:	5f784552 	svcpl	0x00784552
    17d0:	62616e45 	rsbvs	r6, r1, #1104	; 0x450
    17d4:	5650656c 	ldrbpl	r6, [r0], -ip, ror #10
    17d8:	4800334d 	stmdami	r0, {r0, r2, r3, r6, r8, r9, ip, sp}
    17dc:	505f4c41 	subspl	r4, pc, r1, asr #24
    17e0:	78455257 	stmdavc	r5, {r0, r1, r2, r4, r6, r9, ip, lr}^
    17e4:	616e455f 	cmnvs	lr, pc, asr r5
    17e8:	50656c62 	rsbpl	r6, r5, r2, ror #24
    17ec:	00344d56 	eorseq	r4, r4, r6, asr sp
    17f0:	544d5650 	strbpl	r5, [sp], #-1616	; 0xfffff9b0
    17f4:	00657079 	rsbeq	r7, r5, r9, ror r0
    17f8:	5f4c4148 	svcpl	0x004c4148
    17fc:	45525750 	ldrbmi	r5, [r2, #-1872]	; 0xfffff8b0
    1800:	6e455f78 	mcrvs	15, 2, r5, cr5, cr8, {3}
    1804:	656c6261 	strbvs	r6, [ip, #-609]!	; 0xfffffd9f
    1808:	74746142 	ldrbtvc	r6, [r4], #-322	; 0xfffffebe
    180c:	43797265 	cmnmi	r9, #1342177286	; 0x50000006
    1810:	67726168 	ldrbvs	r6, [r2, -r8, ror #2]!
    1814:	00676e69 	rsbeq	r6, r7, r9, ror #28
    1818:	5f4c4148 	svcpl	0x004c4148
    181c:	45525750 	ldrbmi	r5, [r2, #-1872]	; 0xfffff8b0
    1820:	56505f78 	usub16pl	r5, r0, r8
    1824:	6143334d 	cmpvs	r3, sp, asr #6
    1828:	61626c6c 	cmnvs	r2, ip, ror #24
    182c:	77006b63 	strvc	r6, [r0, -r3, ror #22]
    1830:	5f746961 	svcpl	0x00746961
    1834:	706f6f6c 	rsbvc	r6, pc, ip, ror #30
    1838:	646e695f 	strbtvs	r6, [lr], #-2399	; 0xfffff6a1
    183c:	48007865 	stmdami	r0, {r0, r2, r5, r6, fp, ip, sp, lr}
    1840:	505f4c41 	subspl	r4, pc, r1, asr #24
    1844:	78455257 	stmdavc	r5, {r0, r1, r2, r4, r6, r9, ip, lr}^
    1848:	746e455f 	strbtvc	r4, [lr], #-1375	; 0xfffffaa1
    184c:	48537265 	ldmdami	r3, {r0, r2, r5, r6, r9, ip, sp, lr}^
    1850:	4f445455 	svcmi	0x00445455
    1854:	6f4d4e57 	svcvs	0x004d4e57
    1858:	48006564 	stmdami	r0, {r2, r5, r6, r8, sl, sp, lr}
    185c:	505f4c41 	subspl	r4, pc, r1, asr #24
    1860:	505f5257 	subspl	r5, pc, r7, asr r2	; <UNPREDICTABLE>
    1864:	61434456 	cmpvs	r3, r6, asr r4
    1868:	61626c6c 	cmnvs	r2, ip, ror #24
    186c:	48006b63 	stmdami	r0, {r0, r1, r5, r6, r8, r9, fp, sp, lr}
    1870:	505f4c41 	subspl	r4, pc, r1, asr #24
    1874:	78455257 	stmdavc	r5, {r0, r1, r2, r4, r6, r9, ip, lr}^
    1878:	746e455f 	strbtvc	r4, [lr], #-1375	; 0xfffffaa1
    187c:	54537265 	ldrbpl	r7, [r3], #-613	; 0xfffffd9b
    1880:	4d31504f 	ldcmi	0, cr5, [r1, #-316]!	; 0xfffffec4
    1884:	0065646f 	rsbeq	r6, r5, pc, ror #8
    1888:	5f4c4148 	svcpl	0x004c4148
    188c:	45525750 	ldrbmi	r5, [r2, #-1872]	; 0xfffff8b0
    1890:	6e455f78 	mcrvs	15, 2, r5, cr5, cr8, {3}
    1894:	656c6261 	strbvs	r6, [ip, #-609]!	; 0xfffffd9f
    1898:	44504355 	ldrbmi	r4, [r0], #-853	; 0xfffffcab
    189c:	6e617453 	mcrvs	4, 3, r7, cr1, cr3, {2}
    18a0:	4d796264 	lfmmi	f6, 2, [r9, #-400]!	; 0xfffffe70
    18a4:	0065646f 	rsbeq	r6, r5, pc, ror #8
    18a8:	5f4c4148 	svcpl	0x004c4148
    18ac:	45525750 	ldrbmi	r5, [r2, #-1872]	; 0xfffff8b0
    18b0:	56505f78 	usub16pl	r5, r0, r8
    18b4:	6143344d 	cmpvs	r3, sp, asr #8
    18b8:	61626c6c 	cmnvs	r2, ip, ror #24
    18bc:	48006b63 	stmdami	r0, {r0, r1, r5, r6, r8, r9, fp, sp, lr}
    18c0:	505f4c41 	subspl	r4, pc, r1, asr #24
    18c4:	78455257 	stmdavc	r5, {r0, r1, r2, r4, r6, r9, ip, lr}^
    18c8:	7369445f 	cmnvc	r9, #1593835520	; 0x5f000000
    18cc:	656c6261 	strbvs	r6, [ip, #-609]!	; 0xfffffd9f
    18d0:	4d415253 	sfmmi	f5, 2, [r1, #-332]	; 0xfffffeb4
    18d4:	6e6f4332 	mcrvs	3, 3, r4, cr15, cr2, {1}
    18d8:	746e6574 	strbtvc	r6, [lr], #-1396	; 0xfffffa8c
    18dc:	65746552 	ldrbvs	r6, [r4, #-1362]!	; 0xfffffaae
    18e0:	6f69746e 	svcvs	0x0069746e
    18e4:	4148006e 	cmpmi	r8, lr, rrx
    18e8:	57505f4c 	ldrbpl	r5, [r0, -ip, asr #30]
    18ec:	5f784552 	svcpl	0x00784552
    18f0:	61736944 	cmnvs	r3, r4, asr #18
    18f4:	47656c62 	strbmi	r6, [r5, -r2, ror #24]!
    18f8:	504f4950 	subpl	r4, pc, r0, asr r9	; <UNPREDICTABLE>
    18fc:	446c6c75 	strbtmi	r6, [ip], #-3189	; 0xfffff38b
    1900:	006e776f 	rsbeq	r7, lr, pc, ror #14
    1904:	5f4c4148 	svcpl	0x004c4148
    1908:	45525750 	ldrbmi	r5, [r2, #-1872]	; 0xfffff8b0
    190c:	69445f78 	stmdbvs	r4, {r3, r4, r5, r6, r8, r9, sl, fp, ip, lr}^
    1910:	6c626173 	stfvse	f6, [r2], #-460	; 0xfffffe34
    1914:	776f4c65 	strbvc	r4, [pc, -r5, ror #24]!
    1918:	65776f50 	ldrbvs	r6, [r7, #-3920]!	; 0xfffff0b0
    191c:	6e755272 	mrcvs	2, 3, r5, cr5, cr2, {3}
    1920:	65646f4d 	strbvs	r6, [r4, #-3917]!	; 0xfffff0b3
    1924:	4c414800 	mcrrmi	8, 0, r4, r1, cr0
    1928:	5257505f 	subspl	r5, r7, #95	; 0x5f
    192c:	445f7845 	ldrbmi	r7, [pc], #-2117	; 1934 <_Min_Stack_Size+0x1534>
    1930:	62617369 	rsbvs	r7, r1, #-1543503871	; 0xa4000001
    1934:	5650656c 	ldrbpl	r6, [r0], -ip, ror #10
    1938:	4800324d 	stmdami	r0, {r0, r2, r3, r6, r9, ip, sp}
    193c:	505f4c41 	subspl	r4, pc, r1, asr #24
    1940:	78455257 	stmdavc	r5, {r0, r1, r2, r4, r6, r9, ip, lr}^
    1944:	6e6f435f 	mcrvs	3, 3, r4, cr15, cr15, {2}
    1948:	50676966 	rsbpl	r6, r7, r6, ror #18
    194c:	48004d56 	stmdami	r0, {r1, r2, r4, r6, r8, sl, fp, lr}
    1950:	505f4c41 	subspl	r4, pc, r1, asr #24
    1954:	78455257 	stmdavc	r5, {r0, r1, r2, r4, r6, r9, ip, lr}^
    1958:	616e455f 	cmnvs	lr, pc, asr r5
    195c:	47656c62 	strbmi	r6, [r5, -r2, ror #24]!
    1960:	504f4950 	subpl	r4, pc, r0, asr r9	; <UNPREDICTABLE>
    1964:	556c6c75 	strbpl	r6, [ip, #-3189]!	; 0xfffff38b
    1968:	43730070 	cmnmi	r3, #112	; 0x70
    196c:	69666e6f 	stmdbvs	r6!, {r0, r1, r2, r3, r5, r6, r9, sl, fp, sp, lr}^
    1970:	4d565067 	ldclmi	0, cr5, [r6, #-412]	; 0xfffffe64
    1974:	52575000 	subspl	r5, r7, #0
    1978:	4d56505f 	ldclmi	0, cr5, [r6, #-380]	; 0xfffffe84
    197c:	65707954 	ldrbvs	r7, [r0, #-2388]!	; 0xfffff6ac
    1980:	00666544 	rsbeq	r6, r6, r4, asr #10
    1984:	5f4c4148 	svcpl	0x004c4148
    1988:	45525750 	ldrbmi	r5, [r2, #-1872]	; 0xfffff8b0
    198c:	69445f78 	stmdbvs	r4, {r3, r4, r5, r6, r8, r9, sl, fp, ip, lr}^
    1990:	6c626173 	stfvse	f6, [r2], #-460	; 0xfffffe34
    1994:	50435565 	subpl	r5, r3, r5, ror #10
    1998:	61745344 	cmnvs	r4, r4, asr #6
    199c:	7962646e 	stmdbvc	r2!, {r1, r2, r3, r5, r6, sl, sp, lr}^
    19a0:	65646f4d 	strbvs	r6, [r4, #-3917]!	; 0xfffff0b3
    19a4:	4c414800 	mcrrmi	8, 0, r4, r1, cr0
    19a8:	5257505f 	subspl	r5, r7, #95	; 0x5f
    19ac:	505f7845 	subspl	r7, pc, r5, asr #16
    19b0:	505f4456 	subspl	r4, pc, r6, asr r4	; <UNPREDICTABLE>
    19b4:	495f4d56 	ldmdbmi	pc, {r1, r2, r4, r6, r8, sl, fp, lr}^	; <UNPREDICTABLE>
    19b8:	61485152 	cmpvs	r8, r2, asr r1
    19bc:	656c646e 	strbvs	r6, [ip, #-1134]!	; 0xfffffb92
    19c0:	54530072 	ldrbpl	r0, [r3], #-114	; 0xffffff8e
    19c4:	6e45504f 	cdpvs	0, 4, cr5, cr5, cr15, {2}
    19c8:	00797274 	rsbseq	r7, r9, r4, ror r2
    19cc:	5f4c4148 	svcpl	0x004c4148
    19d0:	45525750 	ldrbmi	r5, [r2, #-1872]	; 0xfffff8b0
    19d4:	6e455f78 	mcrvs	15, 2, r5, cr5, cr8, {3}
    19d8:	53726574 	cmnpl	r2, #116, 10	; 0x1d000000
    19dc:	30504f54 	subscc	r4, r0, r4, asr pc
    19e0:	65646f4d 	strbvs	r6, [r4, #-3917]!	; 0xfffff0b3
    19e4:	4c414800 	mcrrmi	8, 0, r4, r1, cr0
    19e8:	5257505f 	subspl	r5, r7, #95	; 0x5f
    19ec:	445f7845 	ldrbmi	r7, [pc], #-2117	; 19f4 <_Min_Stack_Size+0x15f4>
    19f0:	62617369 	rsbvs	r7, r1, #-1543503871	; 0xa4000001
    19f4:	6142656c 	cmpvs	r2, ip, ror #10
    19f8:	72657474 	rsbvc	r7, r5, #116, 8	; 0x74000000
    19fc:	61684379 	smcvs	33849	; 0x8439
    1a00:	6e696772 	mcrvs	7, 3, r6, cr9, cr2, {3}
    1a04:	41480067 	cmpmi	r8, r7, rrx
    1a08:	57505f4c 	ldrbpl	r5, [r0, -ip, asr #30]
    1a0c:	5f784552 	svcpl	0x00784552
    1a10:	56746547 	ldrbtpl	r6, [r4], -r7, asr #10
    1a14:	61746c6f 	cmnvs	r4, pc, ror #24
    1a18:	61526567 	cmpvs	r2, r7, ror #10
    1a1c:	0065676e 	rsbeq	r6, r5, lr, ror #14
    1a20:	69736552 	ldmdbvs	r3!, {r1, r4, r6, r8, sl, sp, lr}^
    1a24:	726f7473 	rsbvc	r7, pc, #1929379840	; 0x73000000
    1a28:	656c6553 	strbvs	r6, [ip, #-1363]!	; 0xfffffaad
    1a2c:	6f697463 	svcvs	0x00697463
    1a30:	4148006e 	cmpmi	r8, lr, rrx
    1a34:	57505f4c 	ldrbpl	r5, [r0, -ip, asr #30]
    1a38:	5f784552 	svcpl	0x00784552
    1a3c:	62616e45 	rsbvs	r6, r1, #1104	; 0x450
    1a40:	7550656c 	ldrbvc	r6, [r0, #-1388]	; 0xfffffa94
    1a44:	70556c6c 	subsvc	r6, r5, ip, ror #24
    1a48:	6c6c7550 	cfstr64vs	mvdx7, [ip], #-320	; 0xfffffec0
    1a4c:	6e776f44 	cdpvs	15, 7, cr6, cr7, cr4, {2}
    1a50:	666e6f43 	strbtvs	r6, [lr], -r3, asr #30
    1a54:	47006769 	strmi	r6, [r0, -r9, ror #14]
    1a58:	004f4950 	subeq	r4, pc, r0, asr r9	; <UNPREDICTABLE>
    1a5c:	52504349 	subspl	r4, r0, #603979777	; 0x24000001
    1a60:	70795400 	rsbsvc	r5, r9, r0, lsl #8
    1a64:	74784565 	ldrbtvc	r4, [r8], #-1381	; 0xfffffa9b
    1a68:	6c656946 			; <UNDEFINED> instruction: 0x6c656946
    1a6c:	61420064 	cmpvs	r2, r4, rrx
    1a70:	64416573 	strbvs	r6, [r1], #-1395	; 0xfffffa8d
    1a74:	73657264 	cmnvc	r5, #100, 4	; 0x40000006
    1a78:	50700073 	rsbspl	r0, r0, r3, ror r0
    1a7c:	6d656572 	cfstr64vs	mvdx6, [r5, #-456]!	; 0xfffffe38
    1a80:	72507470 	subsvc	r7, r0, #112, 8	; 0x70000000
    1a84:	69726f69 	ldmdbvs	r2!, {r0, r3, r5, r6, r8, r9, sl, fp, sp, lr}^
    1a88:	5f007974 	svcpl	0x00007974
    1a8c:	49564e5f 	ldmdbmi	r6, {r0, r1, r2, r3, r4, r6, r9, sl, fp, lr}^
    1a90:	65535f43 	ldrbvs	r5, [r3, #-3907]	; 0xfffff0bd
    1a94:	69725074 	ldmdbvs	r2!, {r2, r4, r5, r6, ip, lr}^
    1a98:	7469726f 	strbtvc	r7, [r9], #-623	; 0xfffffd91
    1a9c:	41520079 	cmpmi	r2, r9, ror r0
    1aa0:	415f5253 	cmpmi	pc, r3, asr r2	; <UNPREDICTABLE>
    1aa4:	53490033 	movtpl	r0, #36915	; 0x9033
    1aa8:	49005250 	stmdbmi	r0, {r4, r6, r9, ip, lr}
    1aac:	66754273 			; <UNDEFINED> instruction: 0x66754273
    1ab0:	61726566 	cmnvs	r2, r6, ror #10
    1ab4:	00656c62 	rsbeq	r6, r5, r2, ror #24
    1ab8:	6f697250 	svcvs	0x00697250
    1abc:	79746972 	ldmdbvc	r4!, {r1, r4, r5, r6, r8, fp, sp, lr}^
    1ac0:	756f7247 	strbvc	r7, [pc, #-583]!	; 1881 <_Min_Stack_Size+0x1481>
    1ac4:	41480070 	hvcmi	32768	; 0x8000
    1ac8:	59535f4c 	ldmdbpl	r3, {r2, r3, r6, r8, r9, sl, fp, ip, lr}^
    1acc:	43495453 	movtmi	r5, #37971	; 0x9453
    1ad0:	52495f4b 	subpl	r5, r9, #300	; 0x12c
    1ad4:	6e614851 	mcrvs	8, 3, r4, cr1, cr1, {2}
    1ad8:	72656c64 	rsbvc	r6, r5, #100, 24	; 0x6400
    1adc:	4c414800 	mcrrmi	8, 0, r4, r1, cr0
    1ae0:	49564e5f 	ldmdbmi	r6, {r0, r1, r2, r3, r4, r6, r9, sl, fp, lr}^
    1ae4:	79535f43 	ldmdbvc	r3, {r0, r1, r6, r8, r9, sl, fp, ip, lr}^
    1ae8:	6d657473 	cfstrdvs	mvd7, [r5, #-460]!	; 0xfffffe34
    1aec:	65736552 	ldrbvs	r6, [r3, #-1362]!	; 0xfffffaae
    1af0:	41480074 	hvcmi	32772	; 0x8004
    1af4:	564e5f4c 	strbpl	r5, [lr], -ip, asr #30
    1af8:	435f4349 	cmpmi	pc, #603979777	; 0x24000001
    1afc:	7261656c 	rsbvc	r6, r1, #108, 10	; 0x1b000000
    1b00:	646e6550 	strbtvs	r6, [lr], #-1360	; 0xfffffab0
    1b04:	49676e69 	stmdbmi	r7!, {r0, r3, r5, r6, r9, sl, fp, sp, lr}^
    1b08:	48005152 	stmdami	r0, {r1, r4, r6, r8, ip, lr}
    1b0c:	4d5f4c41 	ldclmi	12, cr4, [pc, #-260]	; 1a10 <_Min_Stack_Size+0x1610>
    1b10:	445f5550 	ldrbmi	r5, [pc], #-1360	; 1b18 <_Min_Stack_Size+0x1718>
    1b14:	62617369 	rsbvs	r7, r1, #-1543503871	; 0xa4000001
    1b18:	5200656c 	andpl	r6, r0, #108, 10	; 0x1b000000
    1b1c:	5f525341 	svcpl	0x00525341
    1b20:	52003141 	andpl	r3, r0, #1073741840	; 0x40000010
    1b24:	5f525341 	svcpl	0x00525341
    1b28:	4d003241 	sfmmi	f3, 4, [r0, #-260]	; 0xfffffefc
    1b2c:	435f5550 	cmpmi	pc, #80, 10	; 0x14000000
    1b30:	72746e6f 	rsbsvc	r6, r4, #1776	; 0x6f0
    1b34:	48006c6f 	stmdami	r0, {r0, r1, r2, r3, r5, r6, sl, fp, sp, lr}
    1b38:	4e5f4c41 	cdpmi	12, 5, cr4, cr15, cr1, {2}
    1b3c:	5f434956 	svcpl	0x00434956
    1b40:	50746547 	rsbspl	r6, r4, r7, asr #10
    1b44:	726f6972 	rsbvc	r6, pc, #1867776	; 0x1c8000
    1b48:	00797469 	rsbseq	r7, r9, r9, ror #8
    1b4c:	564e5f5f 			; <UNDEFINED> instruction: 0x564e5f5f
    1b50:	435f4349 	cmpmi	pc, #603979777	; 0x24000001
    1b54:	7261656c 	rsbvc	r6, r1, #108, 10	; 0x1b000000
    1b58:	646e6550 	strbtvs	r6, [lr], #-1360	; 0xfffffab0
    1b5c:	49676e69 	stmdbmi	r7!, {r0, r3, r5, r6, r9, sl, fp, sp, lr}^
    1b60:	5f005152 	svcpl	0x00005152
    1b64:	49564e5f 	ldmdbmi	r6, {r0, r1, r2, r3, r4, r6, r9, sl, fp, lr}^
    1b68:	79535f43 	ldmdbvc	r3, {r0, r1, r6, r8, r9, sl, fp, ip, lr}^
    1b6c:	6d657473 	cfstrdvs	mvd7, [r5, #-460]!	; 0xfffffe34
    1b70:	65736552 	ldrbvs	r6, [r3, #-1362]!	; 0xfffffaae
    1b74:	72700074 	rsbsvc	r0, r0, #116	; 0x74
    1b78:	69726f69 	ldmdbvs	r2!, {r0, r3, r5, r6, r8, r9, sl, fp, sp, lr}^
    1b7c:	72677974 	rsbvc	r7, r7, #116, 18	; 0x1d0000
    1b80:	0070756f 	rsbseq	r7, r0, pc, ror #10
    1b84:	52414252 	subpl	r4, r1, #536870917	; 0x20000005
    1b88:	0031415f 	eorseq	r4, r1, pc, asr r1
    1b8c:	52414252 	subpl	r4, r1, #536870917	; 0x20000005
    1b90:	0032415f 	eorseq	r4, r2, pc, asr r1
    1b94:	52414252 	subpl	r4, r1, #536870917	; 0x20000005
    1b98:	0033415f 	eorseq	r4, r3, pc, asr r1
    1b9c:	5f55504d 	svcpl	0x0055504d
    1ba0:	74696e49 	strbtvc	r6, [r9], #-3657	; 0xfffff1b7
    1ba4:	65725000 	ldrbvs	r5, [r2, #-0]!
    1ba8:	74706d65 	ldrbtvc	r6, [r0], #-3429	; 0xfffff29b
    1bac:	6f697250 	svcvs	0x00697250
    1bb0:	79746972 	ldmdbvc	r4!, {r1, r4, r5, r6, r8, fp, sp, lr}^
    1bb4:	73746942 	cmnvc	r4, #1081344	; 0x108000
    1bb8:	55504d00 	ldrbpl	r4, [r0, #-3328]	; 0xfffff300
    1bbc:	6765525f 			; <UNDEFINED> instruction: 0x6765525f
    1bc0:	5f6e6f69 	svcpl	0x006e6f69
    1bc4:	74696e49 	strbtvc	r6, [r9], #-3657	; 0xfffff1b7
    1bc8:	65707954 	ldrbvs	r7, [r0, #-2388]!	; 0xfffff6ac
    1bcc:	00666544 	rsbeq	r6, r6, r4, asr #10
    1bd0:	61437349 	cmpvs	r3, r9, asr #6
    1bd4:	61656863 	cmnvs	r5, r3, ror #16
    1bd8:	00656c62 	rsbeq	r6, r5, r2, ror #24
    1bdc:	564e5f5f 			; <UNDEFINED> instruction: 0x564e5f5f
    1be0:	445f4349 	ldrbmi	r4, [pc], #-841	; 1be8 <_Min_Stack_Size+0x17e8>
    1be4:	62617369 	rsbvs	r7, r1, #-1543503871	; 0xa4000001
    1be8:	5249656c 	subpl	r6, r9, #108, 10	; 0x1b000000
    1bec:	41480051 	qdaddmi	r0, r1, r8
    1bf0:	564e5f4c 	strbpl	r5, [lr], -ip, asr #30
    1bf4:	475f4349 	ldrbmi	r4, [pc, -r9, asr #6]
    1bf8:	65507465 	ldrbvs	r7, [r0, #-1125]	; 0xfffffb9b
    1bfc:	6e69646e 	cdpvs	4, 6, cr6, cr9, cr14, {3}
    1c00:	51524967 	cmppl	r2, r7, ror #18
    1c04:	67657200 	strbvs	r7, [r5, -r0, lsl #4]!
    1c08:	6c61765f 	stclvs	6, cr7, [r1], #-380	; 0xfffffe84
    1c0c:	4d006575 	cfstr32mi	mvfx6, [r0, #-468]	; 0xfffffe2c
    1c10:	545f5550 	ldrbpl	r5, [pc], #-1360	; 1c18 <_Min_Stack_Size+0x1818>
    1c14:	00657079 	rsbeq	r7, r5, r9, ror r0
    1c18:	5f4c4148 	svcpl	0x004c4148
    1c1c:	4349564e 	movtmi	r5, #38478	; 0x964e
    1c20:	7369445f 	cmnvc	r9, #1593835520	; 0x5f000000
    1c24:	656c6261 	strbvs	r6, [ip, #-609]!	; 0xfffffd9f
    1c28:	00515249 	subseq	r5, r1, r9, asr #4
    1c2c:	65636341 	strbvs	r6, [r3, #-833]!	; 0xfffffcbf
    1c30:	65507373 	ldrbvs	r7, [r0, #-883]	; 0xfffffc8d
    1c34:	73696d72 	cmnvc	r9, #7296	; 0x1c80
    1c38:	6e6f6973 			; <UNDEFINED> instruction: 0x6e6f6973
    1c3c:	4e5f5f00 	cdpmi	15, 5, cr5, cr15, cr0, {0}
    1c40:	5f434956 	svcpl	0x00434956
    1c44:	41746547 	cmnmi	r4, r7, asr #10
    1c48:	76697463 	strbtvc	r7, [r9], -r3, ror #8
    1c4c:	72700065 	rsbsvc	r0, r0, #101	; 0x65
    1c50:	69726f69 	ldmdbvs	r2!, {r0, r3, r5, r6, r8, r9, sl, fp, sp, lr}^
    1c54:	5f007974 	svcpl	0x00007974
    1c58:	4253445f 	subsmi	r4, r3, #1593835520	; 0x5f000000
    1c5c:	4e5f5f00 	cdpmi	15, 5, cr5, cr15, cr0, {0}
    1c60:	5f434956 	svcpl	0x00434956
    1c64:	50746553 	rsbspl	r6, r4, r3, asr r5
    1c68:	726f6972 	rsbvc	r6, pc, #1867776	; 0x1c8000
    1c6c:	47797469 	ldrbmi	r7, [r9, -r9, ror #8]!
    1c70:	70756f72 	rsbsvc	r6, r5, r2, ror pc
    1c74:	00676e69 	rsbeq	r6, r7, r9, ror #28
    1c78:	5f4c4148 	svcpl	0x004c4148
    1c7c:	4349564e 	movtmi	r5, #38478	; 0x964e
    1c80:	7465475f 	strbtvc	r4, [r5], #-1887	; 0xfffff8a1
    1c84:	69746341 	ldmdbvs	r4!, {r0, r6, r8, r9, sp, lr}^
    1c88:	5f006576 	svcpl	0x00006576
    1c8c:	49564e5f 	ldmdbmi	r6, {r0, r1, r2, r3, r4, r6, r9, sl, fp, lr}^
    1c90:	65475f43 	strbvs	r5, [r7, #-3907]	; 0xfffff0bd
    1c94:	69725074 	ldmdbvs	r2!, {r2, r4, r5, r6, ip, lr}^
    1c98:	7469726f 	strbtvc	r7, [r9], #-623	; 0xfffffd91
    1c9c:	41480079 	hvcmi	32777	; 0x8009
    1ca0:	564e5f4c 	strbpl	r5, [lr], -ip, asr #30
    1ca4:	535f4349 	cmppl	pc, #603979777	; 0x24000001
    1ca8:	65507465 	ldrbvs	r7, [r0, #-1125]	; 0xfffffb9b
    1cac:	6e69646e 	cdpvs	4, 6, cr6, cr9, cr14, {3}
    1cb0:	51524967 	cmppl	r2, r7, ror #18
    1cb4:	63697400 	cmnvs	r9, #0, 8
    1cb8:	4900736b 	stmdbmi	r0, {r0, r1, r3, r5, r6, r8, r9, ip, sp, lr}
    1cbc:	00524241 	subseq	r4, r2, r1, asr #4
    1cc0:	564e5f5f 			; <UNDEFINED> instruction: 0x564e5f5f
    1cc4:	475f4349 	ldrbmi	r4, [pc, -r9, asr #6]
    1cc8:	65507465 	ldrbvs	r7, [r0, #-1125]	; 0xfffffb9b
    1ccc:	6e69646e 	cdpvs	4, 6, cr6, cr9, cr14, {3}
    1cd0:	51524967 	cmppl	r2, r7, ror #18
    1cd4:	4c414800 	mcrrmi	8, 0, r4, r1, cr0
    1cd8:	49564e5f 	ldmdbmi	r6, {r0, r1, r2, r3, r4, r6, r9, sl, fp, lr}^
    1cdc:	6e455f43 	cdpvs	15, 4, cr5, cr5, cr3, {2}
    1ce0:	656c6261 	strbvs	r6, [ip, #-609]!	; 0xfffffd9f
    1ce4:	00515249 	subseq	r5, r1, r9, asr #4
    1ce8:	53495f5f 	movtpl	r5, #40799	; 0x9f5f
    1cec:	564e0042 	strbpl	r0, [lr], -r2, asr #32
    1cf0:	455f4349 	ldrbmi	r4, [pc, #-841]	; 19af <_Min_Stack_Size+0x15af>
    1cf4:	646f636e 	strbtvs	r6, [pc], #-878	; 1cfc <_Min_Stack_Size+0x18fc>
    1cf8:	69725065 	ldmdbvs	r2!, {r0, r2, r5, r6, ip, lr}^
    1cfc:	7469726f 	strbtvc	r7, [r9], #-623	; 0xfffffd91
    1d00:	43490079 	movtmi	r0, #36985	; 0x9079
    1d04:	53005245 	movwpl	r5, #581	; 0x245
    1d08:	72506275 	subsvc	r6, r0, #1342177287	; 0x50000007
    1d0c:	69726f69 	ldmdbvs	r2!, {r0, r3, r5, r6, r8, r9, sl, fp, sp, lr}^
    1d10:	69427974 	stmdbvs	r2, {r2, r4, r5, r6, r8, fp, ip, sp, lr}^
    1d14:	4e007374 	mcrmi	3, 0, r7, cr0, cr4, {3}
    1d18:	5f434956 	svcpl	0x00434956
    1d1c:	6f636544 	svcvs	0x00636544
    1d20:	72506564 	subsvc	r6, r0, #100, 10	; 0x19000000
    1d24:	69726f69 	ldmdbvs	r2!, {r0, r3, r5, r6, r8, r9, sl, fp, sp, lr}^
    1d28:	48007974 	stmdami	r0, {r2, r4, r5, r6, r8, fp, ip, sp, lr}
    1d2c:	535f4c41 	cmppl	pc, #16640	; 0x4100
    1d30:	49545359 	ldmdbmi	r4, {r0, r3, r4, r6, r8, r9, ip, lr}^
    1d34:	435f4b43 	cmpmi	pc, #68608	; 0x10c00
    1d38:	626c6c61 	rsbvs	r6, ip, #24832	; 0x6100
    1d3c:	006b6361 	rsbeq	r6, fp, r1, ror #6
    1d40:	61736944 	cmnvs	r3, r4, asr #18
    1d44:	45656c62 	strbmi	r6, [r5, #-3170]!	; 0xfffff39e
    1d48:	00636578 	rsbeq	r6, r3, r8, ror r5
    1d4c:	657a6953 	ldrbvs	r6, [sl, #-2387]!	; 0xfffff6ad
    1d50:	445f5f00 	ldrbmi	r5, [pc], #-3840	; 1d58 <_Min_Stack_Size+0x1958>
    1d54:	4900424d 	stmdbmi	r0, {r0, r2, r3, r6, r9, lr}
    1d58:	00524553 	subseq	r4, r2, r3, asr r5
    1d5c:	4349564e 	movtmi	r5, #38478	; 0x964e
    1d60:	7079545f 	rsbsvc	r5, r9, pc, asr r4
    1d64:	72440065 	subvc	r0, r4, #101	; 0x65
    1d68:	72657669 	rsbvc	r7, r5, #110100480	; 0x6900000
    1d6c:	54532f73 	ldrbpl	r2, [r3], #-3955	; 0xfffff08d
    1d70:	4732334d 	ldrmi	r3, [r2, -sp, asr #6]!
    1d74:	5f787834 	svcpl	0x00787834
    1d78:	5f4c4148 	svcpl	0x004c4148
    1d7c:	76697244 	strbtvc	r7, [r9], -r4, asr #4
    1d80:	532f7265 			; <UNDEFINED> instruction: 0x532f7265
    1d84:	732f6372 			; <UNDEFINED> instruction: 0x732f6372
    1d88:	32336d74 	eorscc	r6, r3, #116, 26	; 0x1d00
    1d8c:	78783467 	ldmdavc	r8!, {r0, r1, r2, r5, r6, sl, ip, sp}^
    1d90:	6c61685f 	stclvs	8, cr6, [r1], #-380	; 0xfffffe84
    1d94:	726f635f 	rsbvc	r6, pc, #2080374785	; 0x7c000001
    1d98:	2e786574 	mrccs	5, 3, r6, cr8, cr4, {3}
    1d9c:	5f5f0063 	svcpl	0x005f0063
    1da0:	4349564e 	movtmi	r5, #38478	; 0x964e
    1da4:	7465535f 	strbtvc	r5, [r5], #-863	; 0xfffffca1
    1da8:	646e6550 	strbtvs	r6, [lr], #-1360	; 0xfffffab0
    1dac:	49676e69 	stmdbmi	r7!, {r0, r3, r5, r6, r9, sl, fp, sp, lr}^
    1db0:	52005152 	andpl	r5, r0, #-2147483628	; 0x80000014
    1db4:	00524142 	subseq	r4, r2, r2, asr #2
    1db8:	564e5f5f 			; <UNDEFINED> instruction: 0x564e5f5f
    1dbc:	455f4349 	ldrbmi	r4, [pc, #-841]	; 1a7b <_Min_Stack_Size+0x167b>
    1dc0:	6c62616e 	stfvse	f6, [r2], #-440	; 0xfffffe48
    1dc4:	51524965 	cmppl	r2, r5, ror #18
    1dc8:	69725000 	ldmdbvs	r2!, {ip, lr}^
    1dcc:	7469726f 	strbtvc	r7, [r9], #-623	; 0xfffffd91
    1dd0:	6f724779 	svcvs	0x00724779
    1dd4:	6d547075 	ldclvs	0, cr7, [r4, #-468]	; 0xfffffe2c
    1dd8:	52490070 	subpl	r0, r9, #112	; 0x70
    1ddc:	545f6e51 	ldrbpl	r6, [pc], #-3665	; 1de4 <_Min_Stack_Size+0x19e4>
    1de0:	00657079 	rsbeq	r7, r5, r9, ror r0
    1de4:	6e695f5f 	mcrvs	15, 3, r5, cr9, cr15, {2}
    1de8:	5f323374 	svcpl	0x00323374
    1dec:	69540074 	ldmdbvs	r4, {r2, r4, r5, r6}^
    1df0:	4e736b63 	vsubmi.f64	d22, d3, d19
    1df4:	00626d75 	rsbeq	r6, r2, r5, ror sp
    1df8:	52534152 	subspl	r4, r3, #-2147483628	; 0x80000014
    1dfc:	4c414800 	mcrrmi	8, 0, r4, r1, cr0
    1e00:	5359535f 	cmppl	r9, #2080374785	; 0x7c000001
    1e04:	4b434954 	blmi	10d435c <_Min_Stack_Size+0x10d3f5c>
    1e08:	4b4c435f 	blmi	1312b8c <_Min_Stack_Size+0x131278c>
    1e0c:	72756f53 	rsbsvc	r6, r5, #332	; 0x14c
    1e10:	6f436563 	svcvs	0x00436563
    1e14:	6769666e 	strbvs	r6, [r9, -lr, ror #12]!
    1e18:	50595400 	subspl	r5, r9, r0, lsl #8
    1e1c:	53700045 	cmnpl	r0, #69	; 0x45
    1e20:	72506275 	subsvc	r6, r0, #1342177287	; 0x50000007
    1e24:	69726f69 	ldmdbvs	r2!, {r0, r3, r5, r6, r8, r9, sl, fp, sp, lr}^
    1e28:	48007974 	stmdami	r0, {r2, r4, r5, r6, r8, fp, ip, sp, lr}
    1e2c:	4d5f4c41 	ldclmi	12, cr4, [pc, #-260]	; 1d30 <_Min_Stack_Size+0x1930>
    1e30:	435f5550 	cmpmi	pc, #80, 10	; 0x14000000
    1e34:	69666e6f 	stmdbvs	r6!, {r0, r1, r2, r3, r5, r6, r9, sl, fp, sp, lr}^
    1e38:	67655267 	strbvs	r5, [r5, -r7, ror #4]!
    1e3c:	006e6f69 	rsbeq	r6, lr, r9, ror #30
    1e40:	5f4c4148 	svcpl	0x004c4148
    1e44:	4349564e 	movtmi	r5, #38478	; 0x964e
    1e48:	7465475f 	strbtvc	r4, [r5], #-1887	; 0xfffff8a1
    1e4c:	6f697250 	svcvs	0x00697250
    1e50:	79746972 	ldmdbvc	r4!, {r1, r4, r5, r6, r8, fp, sp, lr}^
    1e54:	756f7247 	strbvc	r7, [pc, #-583]!	; 1c15 <_Min_Stack_Size+0x1815>
    1e58:	676e6970 			; <UNDEFINED> instruction: 0x676e6970
    1e5c:	4c414800 	mcrrmi	8, 0, r4, r1, cr0
    1e60:	55504d5f 	ldrbpl	r4, [r0, #-3423]	; 0xfffff2a1
    1e64:	616e455f 	cmnvs	lr, pc, asr r5
    1e68:	00656c62 	rsbeq	r6, r5, r2, ror #24
    1e6c:	564e5f5f 			; <UNDEFINED> instruction: 0x564e5f5f
    1e70:	475f4349 	ldrbmi	r4, [pc, -r9, asr #6]
    1e74:	72507465 	subsvc	r7, r0, #1694498816	; 0x65000000
    1e78:	69726f69 	ldmdbvs	r2!, {r0, r3, r5, r6, r8, r9, sl, fp, sp, lr}^
    1e7c:	72477974 	subvc	r7, r7, #116, 18	; 0x1d0000
    1e80:	6970756f 	ldmdbvs	r0!, {r0, r1, r2, r3, r5, r6, r8, sl, ip, sp, lr}^
    1e84:	5300676e 	movwpl	r6, #1902	; 0x76e
    1e88:	00524954 	subseq	r4, r2, r4, asr r9
    1e8c:	68537349 	ldmdavs	r3, {r0, r3, r6, r8, r9, ip, sp, lr}^
    1e90:	61657261 	cmnvs	r5, r1, ror #4
    1e94:	00656c62 	rsbeq	r6, r5, r2, ror #24
    1e98:	54737953 	ldrbtpl	r7, [r3], #-2387	; 0xfffff6ad
    1e9c:	5f6b6369 	svcpl	0x006b6369
    1ea0:	666e6f43 	strbtvs	r6, [lr], -r3, asr #30
    1ea4:	53006769 	movwpl	r6, #1897	; 0x769
    1ea8:	65526275 	ldrbvs	r6, [r2, #-629]	; 0xfffffd8b
    1eac:	6e6f6967 	vnmulvs.f16	s13, s30, s15	; <UNPREDICTABLE>
    1eb0:	61736944 	cmnvs	r3, r4, asr #18
    1eb4:	00656c62 	rsbeq	r6, r5, r2, ror #24
    1eb8:	72617473 	rsbvc	r7, r1, #1929379840	; 0x73000000
    1ebc:	5f707574 	svcpl	0x00707574
    1ec0:	336d7473 	cmncc	sp, #1929379840	; 0x73000000
    1ec4:	37346732 			; <UNDEFINED> instruction: 0x37346732
    1ec8:	2e787833 	mrccs	8, 3, r7, cr8, cr3, {1}
    1ecc:	4e470073 	mcrmi	0, 2, r0, cr7, cr3, {3}
    1ed0:	53412055 	movtpl	r2, #4181	; 0x1055
    1ed4:	332e3220 			; <UNDEFINED> instruction: 0x332e3220
    1ed8:	00312e36 	eorseq	r2, r1, r6, lsr lr

Disassembly of section .comment:

00000000 <.comment>:
   0:	3a434347 	bcc	10d0d24 <_Min_Stack_Size+0x10d0924>
   4:	4e472820 	cdpmi	8, 4, cr2, cr7, cr0, {1}
   8:	72412055 	subvc	r2, r1, #85	; 0x55
   c:	6d45206d 	stclvs	0, cr2, [r5, #-436]	; 0xfffffe4c
  10:	64646562 	strbtvs	r6, [r4], #-1378	; 0xfffffa9e
  14:	54206465 	strtpl	r6, [r0], #-1125	; 0xfffffb9b
  18:	636c6f6f 	cmnvs	ip, #444	; 0x1bc
  1c:	6e696168 	powvsez	f6, f1, #0.0
  20:	2e303120 	rsfcssp	f3, f0, f0
  24:	30322d33 	eorscc	r2, r2, r3, lsr sp
  28:	312e3132 			; <UNDEFINED> instruction: 0x312e3132
  2c:	31202930 			; <UNDEFINED> instruction: 0x31202930
  30:	2e332e30 	mrccs	14, 1, r2, cr3, cr0, {1}
  34:	30322031 	eorscc	r2, r2, r1, lsr r0
  38:	38303132 	ldmdacc	r0!, {r1, r4, r5, r8, ip, sp}
  3c:	28203432 	stmdacs	r0!, {r1, r4, r5, sl, ip, sp}
  40:	656c6572 	strbvs	r6, [ip, #-1394]!	; 0xfffffa8e
  44:	29657361 	stmdbcs	r5!, {r0, r5, r6, r8, r9, ip, sp, lr}^
	...

Disassembly of section .debug_frame:

00000000 <.debug_frame>:
   0:	0000000c 	andeq	r0, r0, ip
   4:	ffffffff 			; <UNDEFINED> instruction: 0xffffffff
   8:	7c020001 	stcvc	0, cr0, [r2], {1}
   c:	000d0c0e 	andeq	r0, sp, lr, lsl #24
  10:	0000000c 	andeq	r0, r0, ip
	...
  1c:	00000010 	andeq	r0, r0, r0, lsl r0
  20:	00000018 	andeq	r0, r0, r8, lsl r0
  24:	00000000 	andeq	r0, r0, r0
  28:	08000218 	stmdaeq	r0, {r3, r4, r9}
  2c:	00000064 	andeq	r0, r0, r4, rrx
  30:	83100e41 	tsthi	r0, #1040	; 0x410
  34:	85038404 	strhi	r8, [r3, #-1028]	; 0xfffffbfc
  38:	00018e02 	andeq	r8, r1, r2, lsl #28
  3c:	0000000c 	andeq	r0, r0, ip
  40:	ffffffff 			; <UNDEFINED> instruction: 0xffffffff
  44:	7c020001 	stcvc	0, cr0, [r2], {1}
  48:	000d0c0e 	andeq	r0, sp, lr, lsl #24
  4c:	0000000c 	andeq	r0, r0, ip
  50:	0000003c 	andeq	r0, r0, ip, lsr r0
  54:	0800027c 	stmdaeq	r0, {r2, r3, r4, r5, r6, r9}
  58:	00000004 	andeq	r0, r0, r4
  5c:	0000001c 	andeq	r0, r0, ip, lsl r0
  60:	0000003c 	andeq	r0, r0, ip, lsr r0
  64:	08000280 	stmdaeq	r0, {r7, r9}
  68:	00000072 	andeq	r0, r0, r2, ror r0
  6c:	8e040e41 	cdphi	14, 0, cr0, cr4, cr1, {2}
  70:	580e4101 	stmdapl	lr, {r0, r8, lr}
  74:	040e0a71 	streq	r0, [lr], #-2673	; 0xfffff58f
  78:	00000b42 	andeq	r0, r0, r2, asr #22
  7c:	00000014 	andeq	r0, r0, r4, lsl r0
  80:	0000003c 	andeq	r0, r0, ip, lsr r0
  84:	080002f2 	stmdaeq	r0, {r1, r4, r5, r6, r7, r9}
  88:	00000014 	andeq	r0, r0, r4, lsl r0
  8c:	83080e41 	movwhi	r0, #36417	; 0x8e41
  90:	00018e02 	andeq	r8, r1, r2, lsl #28
  94:	0000000c 	andeq	r0, r0, ip
  98:	ffffffff 			; <UNDEFINED> instruction: 0xffffffff
  9c:	7c020001 	stcvc	0, cr0, [r2], {1}
  a0:	000d0c0e 	andeq	r0, sp, lr, lsl #24
  a4:	0000001c 	andeq	r0, r0, ip, lsl r0
  a8:	00000094 	muleq	r0, r4, r0
  ac:	08000308 	stmdaeq	r0, {r3, r8, r9}
  b0:	00000074 	andeq	r0, r0, r4, ror r0
  b4:	840c0e41 	strhi	r0, [ip], #-3649	; 0xfffff1bf
  b8:	8e028503 	cfsh32hi	mvfx8, mvfx2, #3
  bc:	300e4101 	andcc	r4, lr, r1, lsl #2
  c0:	000c0e73 	andeq	r0, ip, r3, ror lr
  c4:	0000000c 	andeq	r0, r0, ip
  c8:	ffffffff 			; <UNDEFINED> instruction: 0xffffffff
  cc:	7c020001 	stcvc	0, cr0, [r2], {1}
  d0:	000d0c0e 	andeq	r0, sp, lr, lsl #24
  d4:	0000000c 	andeq	r0, r0, ip
  d8:	000000c4 	andeq	r0, r0, r4, asr #1
  dc:	0800037c 	stmdaeq	r0, {r2, r3, r4, r5, r6, r8, r9}
  e0:	00000002 	andeq	r0, r0, r2
  e4:	0000000c 	andeq	r0, r0, ip
  e8:	000000c4 	andeq	r0, r0, r4, asr #1
  ec:	0800037e 	stmdaeq	r0, {r1, r2, r3, r4, r5, r6, r8, r9}
  f0:	00000002 	andeq	r0, r0, r2
  f4:	0000000c 	andeq	r0, r0, ip
  f8:	000000c4 	andeq	r0, r0, r4, asr #1
  fc:	08000380 	stmdaeq	r0, {r7, r8, r9}
 100:	00000002 	andeq	r0, r0, r2
 104:	0000000c 	andeq	r0, r0, ip
 108:	000000c4 	andeq	r0, r0, r4, asr #1
 10c:	08000382 	stmdaeq	r0, {r1, r7, r8, r9}
 110:	00000002 	andeq	r0, r0, r2
 114:	0000000c 	andeq	r0, r0, ip
 118:	000000c4 	andeq	r0, r0, r4, asr #1
 11c:	08000384 	stmdaeq	r0, {r2, r7, r8, r9}
 120:	00000002 	andeq	r0, r0, r2
 124:	0000000c 	andeq	r0, r0, ip
 128:	000000c4 	andeq	r0, r0, r4, asr #1
 12c:	08000386 	stmdaeq	r0, {r1, r2, r7, r8, r9}
 130:	00000002 	andeq	r0, r0, r2
 134:	0000000c 	andeq	r0, r0, ip
 138:	000000c4 	andeq	r0, r0, r4, asr #1
 13c:	08000388 	stmdaeq	r0, {r3, r7, r8, r9}
 140:	00000002 	andeq	r0, r0, r2
 144:	0000000c 	andeq	r0, r0, ip
 148:	000000c4 	andeq	r0, r0, r4, asr #1
 14c:	0800038a 	stmdaeq	r0, {r1, r3, r7, r8, r9}
 150:	00000002 	andeq	r0, r0, r2
 154:	00000014 	andeq	r0, r0, r4, lsl r0
 158:	000000c4 	andeq	r0, r0, r4, asr #1
 15c:	0800038c 	stmdaeq	r0, {r2, r3, r7, r8, r9}
 160:	00000008 	andeq	r0, r0, r8
 164:	83080e41 	movwhi	r0, #36417	; 0x8e41
 168:	00018e02 	andeq	r8, r1, r2, lsl #28
 16c:	0000000c 	andeq	r0, r0, ip
 170:	ffffffff 			; <UNDEFINED> instruction: 0xffffffff
 174:	7c020001 	stcvc	0, cr0, [r2], {1}
 178:	000d0c0e 	andeq	r0, sp, lr, lsl #24
 17c:	00000018 	andeq	r0, r0, r8, lsl r0
 180:	0000016c 	andeq	r0, r0, ip, ror #2
 184:	08000394 	stmdaeq	r0, {r2, r4, r7, r8, r9}
 188:	00000038 	andeq	r0, r0, r8, lsr r0
 18c:	8e040e41 	cdphi	14, 0, cr0, cr4, cr1, {2}
 190:	100e4101 	andne	r4, lr, r1, lsl #2
 194:	00040e56 	andeq	r0, r4, r6, asr lr
 198:	0000000c 	andeq	r0, r0, ip
 19c:	ffffffff 			; <UNDEFINED> instruction: 0xffffffff
 1a0:	7c020001 	stcvc	0, cr0, [r2], {1}
 1a4:	000d0c0e 	andeq	r0, sp, lr, lsl #24
 1a8:	0000000c 	andeq	r0, r0, ip
 1ac:	00000198 	muleq	r0, r8, r1
 1b0:	080003cc 	stmdaeq	r0, {r2, r3, r6, r7, r8, r9}
 1b4:	00000014 	andeq	r0, r0, r4, lsl r0
 1b8:	0000000c 	andeq	r0, r0, ip
 1bc:	00000198 	muleq	r0, r8, r1
 1c0:	00000000 	andeq	r0, r0, r0
 1c4:	00000090 	muleq	r0, r0, r0
 1c8:	0000000c 	andeq	r0, r0, ip
 1cc:	ffffffff 			; <UNDEFINED> instruction: 0xffffffff
 1d0:	7c020001 	stcvc	0, cr0, [r2], {1}
 1d4:	000d0c0e 	andeq	r0, sp, lr, lsl #24
 1d8:	0000000c 	andeq	r0, r0, ip
 1dc:	000001c8 	andeq	r0, r0, r8, asr #3
 1e0:	00000000 	andeq	r0, r0, r0
 1e4:	00000002 	andeq	r0, r0, r2
 1e8:	0000000c 	andeq	r0, r0, ip
 1ec:	000001c8 	andeq	r0, r0, r8, asr #3
 1f0:	00000000 	andeq	r0, r0, r0
 1f4:	00000002 	andeq	r0, r0, r2
 1f8:	00000014 	andeq	r0, r0, r4, lsl r0
 1fc:	000001c8 	andeq	r0, r0, r8, asr #3
 200:	00000000 	andeq	r0, r0, r0
 204:	0000002c 	andeq	r0, r0, ip, lsr #32
 208:	84080e41 	strhi	r0, [r8], #-3649	; 0xfffff1bf
 20c:	00018e02 	andeq	r8, r1, r2, lsl #28
 210:	00000014 	andeq	r0, r0, r4, lsl r0
 214:	000001c8 	andeq	r0, r0, r8, asr #3
 218:	080003e0 	stmdaeq	r0, {r5, r6, r7, r8, r9}
 21c:	00000050 	andeq	r0, r0, r0, asr r0
 220:	84080e46 	strhi	r0, [r8], #-3654	; 0xfffff1ba
 224:	00018e02 	andeq	r8, r1, r2, lsl #28
 228:	00000014 	andeq	r0, r0, r4, lsl r0
 22c:	000001c8 	andeq	r0, r0, r8, asr #3
 230:	08000430 	stmdaeq	r0, {r4, r5, sl}
 234:	0000001e 	andeq	r0, r0, lr, lsl r0
 238:	84080e41 	strhi	r0, [r8], #-3649	; 0xfffff1bf
 23c:	00018e02 	andeq	r8, r1, r2, lsl #28
 240:	0000000c 	andeq	r0, r0, ip
 244:	000001c8 	andeq	r0, r0, r8, asr #3
 248:	08000450 	stmdaeq	r0, {r4, r6, sl}
 24c:	00000018 	andeq	r0, r0, r8, lsl r0
 250:	0000000c 	andeq	r0, r0, ip
 254:	000001c8 	andeq	r0, r0, r8, asr #3
 258:	08000468 	stmdaeq	r0, {r3, r5, r6, sl}
 25c:	0000000c 	andeq	r0, r0, ip
 260:	0000000c 	andeq	r0, r0, ip
 264:	000001c8 	andeq	r0, r0, r8, asr #3
 268:	00000000 	andeq	r0, r0, r0
 26c:	0000000c 	andeq	r0, r0, ip
 270:	00000014 	andeq	r0, r0, r4, lsl r0
 274:	000001c8 	andeq	r0, r0, r8, asr #3
 278:	00000000 	andeq	r0, r0, r0
 27c:	0000002c 	andeq	r0, r0, ip, lsr #32
 280:	84080e41 	strhi	r0, [r8], #-3649	; 0xfffff1bf
 284:	00018e02 	andeq	r8, r1, r2, lsl #28
 288:	0000000c 	andeq	r0, r0, ip
 28c:	000001c8 	andeq	r0, r0, r8, asr #3
 290:	00000000 	andeq	r0, r0, r0
 294:	0000000c 	andeq	r0, r0, ip
 298:	00000018 	andeq	r0, r0, r8, lsl r0
 29c:	000001c8 	andeq	r0, r0, r8, asr #3
 2a0:	08000474 	stmdaeq	r0, {r2, r4, r5, r6, sl}
 2a4:	00000028 	andeq	r0, r0, r8, lsr #32
 2a8:	83100e41 	tsthi	r0, #1040	; 0x410
 2ac:	85038404 	strhi	r8, [r3, #-1028]	; 0xfffffbfc
 2b0:	00018e02 	andeq	r8, r1, r2, lsl #28
 2b4:	0000000c 	andeq	r0, r0, ip
 2b8:	000001c8 	andeq	r0, r0, r8, asr #3
 2bc:	00000000 	andeq	r0, r0, r0
 2c0:	0000000e 	andeq	r0, r0, lr
 2c4:	0000000c 	andeq	r0, r0, ip
 2c8:	000001c8 	andeq	r0, r0, r8, asr #3
 2cc:	00000000 	andeq	r0, r0, r0
 2d0:	0000000e 	andeq	r0, r0, lr
 2d4:	0000000c 	andeq	r0, r0, ip
 2d8:	000001c8 	andeq	r0, r0, r8, asr #3
 2dc:	00000000 	andeq	r0, r0, r0
 2e0:	00000008 	andeq	r0, r0, r8
 2e4:	0000000c 	andeq	r0, r0, ip
 2e8:	000001c8 	andeq	r0, r0, r8, asr #3
 2ec:	00000000 	andeq	r0, r0, r0
 2f0:	0000000c 	andeq	r0, r0, ip
 2f4:	0000000c 	andeq	r0, r0, ip
 2f8:	000001c8 	andeq	r0, r0, r8, asr #3
 2fc:	00000000 	andeq	r0, r0, r0
 300:	00000010 	andeq	r0, r0, r0, lsl r0
 304:	0000000c 	andeq	r0, r0, ip
 308:	000001c8 	andeq	r0, r0, r8, asr #3
 30c:	00000000 	andeq	r0, r0, r0
 310:	00000010 	andeq	r0, r0, r0, lsl r0
 314:	0000000c 	andeq	r0, r0, ip
 318:	000001c8 	andeq	r0, r0, r8, asr #3
 31c:	00000000 	andeq	r0, r0, r0
 320:	00000010 	andeq	r0, r0, r0, lsl r0
 324:	0000000c 	andeq	r0, r0, ip
 328:	000001c8 	andeq	r0, r0, r8, asr #3
 32c:	00000000 	andeq	r0, r0, r0
 330:	00000010 	andeq	r0, r0, r0, lsl r0
 334:	0000000c 	andeq	r0, r0, ip
 338:	000001c8 	andeq	r0, r0, r8, asr #3
 33c:	00000000 	andeq	r0, r0, r0
 340:	00000010 	andeq	r0, r0, r0, lsl r0
 344:	0000000c 	andeq	r0, r0, ip
 348:	000001c8 	andeq	r0, r0, r8, asr #3
 34c:	00000000 	andeq	r0, r0, r0
 350:	00000010 	andeq	r0, r0, r0, lsl r0
 354:	0000000c 	andeq	r0, r0, ip
 358:	000001c8 	andeq	r0, r0, r8, asr #3
 35c:	00000000 	andeq	r0, r0, r0
 360:	00000010 	andeq	r0, r0, r0, lsl r0
 364:	0000000c 	andeq	r0, r0, ip
 368:	000001c8 	andeq	r0, r0, r8, asr #3
 36c:	00000000 	andeq	r0, r0, r0
 370:	00000018 	andeq	r0, r0, r8, lsl r0
 374:	0000000c 	andeq	r0, r0, ip
 378:	000001c8 	andeq	r0, r0, r8, asr #3
 37c:	00000000 	andeq	r0, r0, r0
 380:	00000010 	andeq	r0, r0, r0, lsl r0
 384:	0000000c 	andeq	r0, r0, ip
 388:	000001c8 	andeq	r0, r0, r8, asr #3
 38c:	00000000 	andeq	r0, r0, r0
 390:	00000010 	andeq	r0, r0, r0, lsl r0
 394:	0000000c 	andeq	r0, r0, ip
 398:	000001c8 	andeq	r0, r0, r8, asr #3
 39c:	00000000 	andeq	r0, r0, r0
 3a0:	00000014 	andeq	r0, r0, r4, lsl r0
 3a4:	0000000c 	andeq	r0, r0, ip
 3a8:	000001c8 	andeq	r0, r0, r8, asr #3
 3ac:	00000000 	andeq	r0, r0, r0
 3b0:	00000014 	andeq	r0, r0, r4, lsl r0
 3b4:	0000000c 	andeq	r0, r0, ip
 3b8:	000001c8 	andeq	r0, r0, r8, asr #3
 3bc:	00000000 	andeq	r0, r0, r0
 3c0:	00000014 	andeq	r0, r0, r4, lsl r0
 3c4:	00000014 	andeq	r0, r0, r4, lsl r0
 3c8:	000001c8 	andeq	r0, r0, r8, asr #3
 3cc:	00000000 	andeq	r0, r0, r0
 3d0:	00000034 	andeq	r0, r0, r4, lsr r0
 3d4:	84080e41 	strhi	r0, [r8], #-3649	; 0xfffff1bf
 3d8:	00018e02 	andeq	r8, r1, r2, lsl #28
 3dc:	0000000c 	andeq	r0, r0, ip
 3e0:	000001c8 	andeq	r0, r0, r8, asr #3
 3e4:	00000000 	andeq	r0, r0, r0
 3e8:	00000010 	andeq	r0, r0, r0, lsl r0
 3ec:	0000000c 	andeq	r0, r0, ip
 3f0:	000001c8 	andeq	r0, r0, r8, asr #3
 3f4:	00000000 	andeq	r0, r0, r0
 3f8:	00000010 	andeq	r0, r0, r0, lsl r0
 3fc:	0000000c 	andeq	r0, r0, ip
 400:	000001c8 	andeq	r0, r0, r8, asr #3
 404:	00000000 	andeq	r0, r0, r0
 408:	00000010 	andeq	r0, r0, r0, lsl r0
 40c:	0000000c 	andeq	r0, r0, ip
 410:	000001c8 	andeq	r0, r0, r8, asr #3
 414:	00000000 	andeq	r0, r0, r0
 418:	00000010 	andeq	r0, r0, r0, lsl r0
 41c:	0000000c 	andeq	r0, r0, ip
 420:	000001c8 	andeq	r0, r0, r8, asr #3
 424:	00000000 	andeq	r0, r0, r0
 428:	00000010 	andeq	r0, r0, r0, lsl r0
 42c:	0000000c 	andeq	r0, r0, ip
 430:	000001c8 	andeq	r0, r0, r8, asr #3
 434:	00000000 	andeq	r0, r0, r0
 438:	00000010 	andeq	r0, r0, r0, lsl r0
 43c:	0000000c 	andeq	r0, r0, ip
 440:	ffffffff 			; <UNDEFINED> instruction: 0xffffffff
 444:	7c020001 	stcvc	0, cr0, [r2], {1}
 448:	000d0c0e 	andeq	r0, sp, lr, lsl #24
 44c:	0000000c 	andeq	r0, r0, ip
 450:	0000043c 	andeq	r0, r0, ip, lsr r4
 454:	0800049c 	stmdaeq	r0, {r2, r3, r4, r7, sl}
 458:	00000058 	andeq	r0, r0, r8, asr r0
 45c:	00000018 	andeq	r0, r0, r8, lsl r0
 460:	0000043c 	andeq	r0, r0, ip, lsr r4
 464:	00000000 	andeq	r0, r0, r0
 468:	000000cc 	andeq	r0, r0, ip, asr #1
 46c:	83100e41 	tsthi	r0, #1040	; 0x410
 470:	85038404 	strhi	r8, [r3, #-1028]	; 0xfffffbfc
 474:	00018e02 	andeq	r8, r1, r2, lsl #28
 478:	00000034 	andeq	r0, r0, r4, lsr r0
 47c:	0000043c 	andeq	r0, r0, ip, lsr r4
 480:	080004f4 	stmdaeq	r0, {r2, r4, r5, r6, r7, sl}
 484:	000004e8 	andeq	r0, r0, r8, ror #9
 488:	84100e44 	ldrhi	r0, [r0], #-3652	; 0xfffff1bc
 48c:	86038504 	strhi	r8, [r3], -r4, lsl #10
 490:	41018e02 	tstmi	r1, r2, lsl #28
 494:	5203180e 	andpl	r1, r3, #917504	; 0xe0000
 498:	c4000e02 	strgt	r0, [r0], #-3586	; 0xfffff1fe
 49c:	42cec6c5 	sbcmi	ip, lr, #206569472	; 0xc500000
 4a0:	0484180e 	streq	r1, [r4], #2062	; 0x80e
 4a4:	02860385 	addeq	r0, r6, #335544322	; 0x14000002
 4a8:	0a48018e 	beq	1200ae8 <_Min_Stack_Size+0x12006e8>
 4ac:	0b41100e 	bleq	10444ec <_Min_Stack_Size+0x10440ec>
 4b0:	00000020 	andeq	r0, r0, r0, lsr #32
 4b4:	0000043c 	andeq	r0, r0, ip, lsr r4
 4b8:	00000000 	andeq	r0, r0, r0
 4bc:	0000005c 	andeq	r0, r0, ip, asr r0
 4c0:	84100e41 	ldrhi	r0, [r0], #-3649	; 0xfffff1bf
 4c4:	86038504 	strhi	r8, [r3], -r4, lsl #10
 4c8:	41018e02 	tstmi	r1, r2, lsl #28
 4cc:	0e68280e 	cdpeq	8, 6, cr2, cr8, cr14, {0}
 4d0:	00000010 	andeq	r0, r0, r0, lsl r0
 4d4:	0000000c 	andeq	r0, r0, ip
 4d8:	0000043c 	andeq	r0, r0, ip, lsr r4
 4dc:	080009dc 	stmdaeq	r0, {r2, r3, r4, r6, r7, r8, fp}
 4e0:	00000088 	andeq	r0, r0, r8, lsl #1
 4e4:	00000034 	andeq	r0, r0, r4, lsr r0
 4e8:	0000043c 	andeq	r0, r0, ip, lsr r4
 4ec:	08000a64 	stmdaeq	r0, {r2, r5, r6, r9, fp}
 4f0:	000001f8 	strdeq	r0, [r0], -r8
 4f4:	83180e44 	tsthi	r8, #68, 28	; 0x440
 4f8:	85058406 	strhi	r8, [r5, #-1030]	; 0xfffffbfa
 4fc:	87038604 	strhi	r8, [r3, -r4, lsl #12]
 500:	02018e02 	andeq	r8, r1, #2, 28
 504:	c3000ee5 	movwgt	r0, #3813	; 0xee5
 508:	c7c6c5c4 	strbgt	ip, [r6, r4, asr #11]
 50c:	180e42ce 	stmdane	lr, {r1, r2, r3, r6, r7, r9, lr}
 510:	05840683 	streq	r0, [r4, #1667]	; 0x683
 514:	03860485 	orreq	r0, r6, #-2063597568	; 0x85000000
 518:	018e0287 	orreq	r0, lr, r7, lsl #5
 51c:	0000000c 	andeq	r0, r0, ip
 520:	0000043c 	andeq	r0, r0, ip, lsr r4
 524:	00000000 	andeq	r0, r0, r0
 528:	0000000c 	andeq	r0, r0, ip
 52c:	00000014 	andeq	r0, r0, r4, lsl r0
 530:	0000043c 	andeq	r0, r0, ip, lsr r4
 534:	00000000 	andeq	r0, r0, r0
 538:	00000024 	andeq	r0, r0, r4, lsr #32
 53c:	83080e41 	movwhi	r0, #36417	; 0x8e41
 540:	00018e02 	andeq	r8, r1, r2, lsl #28
 544:	00000014 	andeq	r0, r0, r4, lsl r0
 548:	0000043c 	andeq	r0, r0, ip, lsr r4
 54c:	00000000 	andeq	r0, r0, r0
 550:	00000024 	andeq	r0, r0, r4, lsr #32
 554:	83080e41 	movwhi	r0, #36417	; 0x8e41
 558:	00018e02 	andeq	r8, r1, r2, lsl #28
 55c:	0000000c 	andeq	r0, r0, ip
 560:	0000043c 	andeq	r0, r0, ip, lsr r4
 564:	00000000 	andeq	r0, r0, r0
 568:	000000f4 	strdeq	r0, [r0], -r4
 56c:	0000000c 	andeq	r0, r0, ip
 570:	0000043c 	andeq	r0, r0, ip, lsr r4
 574:	00000000 	andeq	r0, r0, r0
 578:	0000003c 	andeq	r0, r0, ip, lsr r0
 57c:	0000000c 	andeq	r0, r0, ip
 580:	0000043c 	andeq	r0, r0, ip, lsr r4
 584:	00000000 	andeq	r0, r0, r0
 588:	00000010 	andeq	r0, r0, r0, lsl r0
 58c:	0000000c 	andeq	r0, r0, ip
 590:	0000043c 	andeq	r0, r0, ip, lsr r4
 594:	00000000 	andeq	r0, r0, r0
 598:	00000014 	andeq	r0, r0, r4, lsl r0
 59c:	0000000c 	andeq	r0, r0, ip
 5a0:	0000043c 	andeq	r0, r0, ip, lsr r4
 5a4:	00000000 	andeq	r0, r0, r0
 5a8:	00000014 	andeq	r0, r0, r4, lsl r0
 5ac:	0000000c 	andeq	r0, r0, ip
 5b0:	0000043c 	andeq	r0, r0, ip, lsr r4
 5b4:	00000000 	andeq	r0, r0, r0
 5b8:	00000002 	andeq	r0, r0, r2
 5bc:	00000014 	andeq	r0, r0, r4, lsl r0
 5c0:	0000043c 	andeq	r0, r0, ip, lsr r4
 5c4:	00000000 	andeq	r0, r0, r0
 5c8:	00000020 	andeq	r0, r0, r0, lsr #32
 5cc:	83080e41 	movwhi	r0, #36417	; 0x8e41
 5d0:	00018e02 	andeq	r8, r1, r2, lsl #28
 5d4:	0000000c 	andeq	r0, r0, ip
 5d8:	ffffffff 			; <UNDEFINED> instruction: 0xffffffff
 5dc:	7c020001 	stcvc	0, cr0, [r2], {1}
 5e0:	000d0c0e 	andeq	r0, sp, lr, lsl #24
 5e4:	00000020 	andeq	r0, r0, r0, lsr #32
 5e8:	000005d4 	ldrdeq	r0, [r0], -r4
 5ec:	08000c5c 	stmdaeq	r0, {r2, r3, r4, r6, sl, fp}
 5f0:	000001d4 	ldrdeq	r0, [r0], -r4
 5f4:	84140e41 	ldrhi	r0, [r4], #-3649	; 0xfffff1bf
 5f8:	86048505 	strhi	r8, [r4], -r5, lsl #10
 5fc:	8e028703 	cdphi	7, 0, cr8, cr2, cr3, {0}
 600:	200e4101 	andcs	r4, lr, r1, lsl #2
 604:	140edf02 	strne	sp, [lr], #-3842	; 0xfffff0fe
 608:	00000024 	andeq	r0, r0, r4, lsr #32
 60c:	000005d4 	ldrdeq	r0, [r0], -r4
 610:	00000000 	andeq	r0, r0, r0
 614:	0000011c 	andeq	r0, r0, ip, lsl r1
 618:	84140e46 	ldrhi	r0, [r4], #-3654	; 0xfffff1ba
 61c:	86048505 	strhi	r8, [r4], -r5, lsl #10
 620:	8e028703 	cdphi	7, 0, cr8, cr2, cr3, {0}
 624:	0e800201 	cdpeq	2, 8, cr0, cr0, cr1, {0}
 628:	c6c5c400 	strbgt	ip, [r5], r0, lsl #8
 62c:	0000cec7 	andeq	ip, r0, r7, asr #29
 630:	0000000c 	andeq	r0, r0, ip
 634:	000005d4 	ldrdeq	r0, [r0], -r4
 638:	00000000 	andeq	r0, r0, r0
 63c:	0000000e 	andeq	r0, r0, lr
 640:	0000000c 	andeq	r0, r0, ip
 644:	000005d4 	ldrdeq	r0, [r0], -r4
 648:	08000e30 	stmdaeq	r0, {r4, r5, r9, sl, fp}
 64c:	0000000a 	andeq	r0, r0, sl
 650:	0000000c 	andeq	r0, r0, ip
 654:	000005d4 	ldrdeq	r0, [r0], -r4
 658:	08000e3a 	stmdaeq	r0, {r1, r3, r4, r5, r9, sl, fp}
 65c:	00000012 	andeq	r0, r0, r2, lsl r0
 660:	00000018 	andeq	r0, r0, r8, lsl r0
 664:	000005d4 	ldrdeq	r0, [r0], -r4
 668:	00000000 	andeq	r0, r0, r0
 66c:	0000002e 	andeq	r0, r0, lr, lsr #32
 670:	53080e41 	movwpl	r0, #36417	; 0x8e41
 674:	41000e0a 	tstmi	r0, sl, lsl #28
 678:	0000000b 	andeq	r0, r0, fp
 67c:	0000000c 	andeq	r0, r0, ip
 680:	000005d4 	ldrdeq	r0, [r0], -r4
 684:	00000000 	andeq	r0, r0, r0
 688:	00000002 	andeq	r0, r0, r2
 68c:	00000014 	andeq	r0, r0, r4, lsl r0
 690:	000005d4 	ldrdeq	r0, [r0], -r4
 694:	00000000 	andeq	r0, r0, r0
 698:	0000001c 	andeq	r0, r0, ip, lsl r0
 69c:	83080e41 	movwhi	r0, #36417	; 0x8e41
 6a0:	00018e02 	andeq	r8, r1, r2, lsl #28
 6a4:	0000000c 	andeq	r0, r0, ip
 6a8:	ffffffff 			; <UNDEFINED> instruction: 0xffffffff
 6ac:	7c020001 	stcvc	0, cr0, [r2], {1}
 6b0:	000d0c0e 	andeq	r0, sp, lr, lsl #24
 6b4:	0000000c 	andeq	r0, r0, ip
 6b8:	000006a4 	andeq	r0, r0, r4, lsr #13
 6bc:	00000000 	andeq	r0, r0, r0
 6c0:	00000024 	andeq	r0, r0, r4, lsr #32
 6c4:	0000000c 	andeq	r0, r0, ip
 6c8:	000006a4 	andeq	r0, r0, r4, lsr #13
 6cc:	08000e4c 	stmdaeq	r0, {r2, r3, r6, r9, sl, fp}
 6d0:	0000010c 	andeq	r0, r0, ip, lsl #2
 6d4:	0000000c 	andeq	r0, r0, ip
 6d8:	000006a4 	andeq	r0, r0, r4, lsr #13
 6dc:	00000000 	andeq	r0, r0, r0
 6e0:	0000001c 	andeq	r0, r0, ip, lsl r0
 6e4:	0000000c 	andeq	r0, r0, ip
 6e8:	000006a4 	andeq	r0, r0, r4, lsr #13
 6ec:	00000000 	andeq	r0, r0, r0
 6f0:	00000010 	andeq	r0, r0, r0, lsl r0
 6f4:	0000000c 	andeq	r0, r0, ip
 6f8:	000006a4 	andeq	r0, r0, r4, lsr #13
 6fc:	00000000 	andeq	r0, r0, r0
 700:	00000010 	andeq	r0, r0, r0, lsl r0
 704:	0000000c 	andeq	r0, r0, ip
 708:	000006a4 	andeq	r0, r0, r4, lsr #13
 70c:	00000000 	andeq	r0, r0, r0
 710:	00000010 	andeq	r0, r0, r0, lsl r0
 714:	0000000c 	andeq	r0, r0, ip
 718:	000006a4 	andeq	r0, r0, r4, lsr #13
 71c:	00000000 	andeq	r0, r0, r0
 720:	000000bc 	strheq	r0, [r0], -ip
 724:	0000000c 	andeq	r0, r0, ip
 728:	000006a4 	andeq	r0, r0, r4, lsr #13
 72c:	00000000 	andeq	r0, r0, r0
 730:	00000084 	andeq	r0, r0, r4, lsl #1
 734:	0000000c 	andeq	r0, r0, ip
 738:	000006a4 	andeq	r0, r0, r4, lsr #13
 73c:	00000000 	andeq	r0, r0, r0
 740:	000000bc 	strheq	r0, [r0], -ip
 744:	0000000c 	andeq	r0, r0, ip
 748:	000006a4 	andeq	r0, r0, r4, lsr #13
 74c:	00000000 	andeq	r0, r0, r0
 750:	00000088 	andeq	r0, r0, r8, lsl #1
 754:	0000000c 	andeq	r0, r0, ip
 758:	000006a4 	andeq	r0, r0, r4, lsr #13
 75c:	00000000 	andeq	r0, r0, r0
 760:	00000010 	andeq	r0, r0, r0, lsl r0
 764:	0000000c 	andeq	r0, r0, ip
 768:	000006a4 	andeq	r0, r0, r4, lsr #13
 76c:	00000000 	andeq	r0, r0, r0
 770:	00000010 	andeq	r0, r0, r0, lsl r0
 774:	0000000c 	andeq	r0, r0, ip
 778:	000006a4 	andeq	r0, r0, r4, lsr #13
 77c:	00000000 	andeq	r0, r0, r0
 780:	00000010 	andeq	r0, r0, r0, lsl r0
 784:	0000000c 	andeq	r0, r0, ip
 788:	000006a4 	andeq	r0, r0, r4, lsr #13
 78c:	00000000 	andeq	r0, r0, r0
 790:	00000010 	andeq	r0, r0, r0, lsl r0
 794:	0000000c 	andeq	r0, r0, ip
 798:	000006a4 	andeq	r0, r0, r4, lsr #13
 79c:	00000000 	andeq	r0, r0, r0
 7a0:	00000010 	andeq	r0, r0, r0, lsl r0
 7a4:	0000000c 	andeq	r0, r0, ip
 7a8:	000006a4 	andeq	r0, r0, r4, lsr #13
 7ac:	00000000 	andeq	r0, r0, r0
 7b0:	00000010 	andeq	r0, r0, r0, lsl r0
 7b4:	0000000c 	andeq	r0, r0, ip
 7b8:	000006a4 	andeq	r0, r0, r4, lsr #13
 7bc:	00000000 	andeq	r0, r0, r0
 7c0:	00000010 	andeq	r0, r0, r0, lsl r0
 7c4:	0000000c 	andeq	r0, r0, ip
 7c8:	000006a4 	andeq	r0, r0, r4, lsr #13
 7cc:	00000000 	andeq	r0, r0, r0
 7d0:	00000010 	andeq	r0, r0, r0, lsl r0
 7d4:	0000000c 	andeq	r0, r0, ip
 7d8:	000006a4 	andeq	r0, r0, r4, lsr #13
 7dc:	00000000 	andeq	r0, r0, r0
 7e0:	00000010 	andeq	r0, r0, r0, lsl r0
 7e4:	0000000c 	andeq	r0, r0, ip
 7e8:	000006a4 	andeq	r0, r0, r4, lsr #13
 7ec:	00000000 	andeq	r0, r0, r0
 7f0:	00000010 	andeq	r0, r0, r0, lsl r0
 7f4:	0000000c 	andeq	r0, r0, ip
 7f8:	000006a4 	andeq	r0, r0, r4, lsr #13
 7fc:	00000000 	andeq	r0, r0, r0
 800:	00000010 	andeq	r0, r0, r0, lsl r0
 804:	0000000c 	andeq	r0, r0, ip
 808:	000006a4 	andeq	r0, r0, r4, lsr #13
 80c:	00000000 	andeq	r0, r0, r0
 810:	00000010 	andeq	r0, r0, r0, lsl r0
 814:	0000000c 	andeq	r0, r0, ip
 818:	000006a4 	andeq	r0, r0, r4, lsr #13
 81c:	00000000 	andeq	r0, r0, r0
 820:	000001ec 	andeq	r0, r0, ip, ror #3
 824:	0000000c 	andeq	r0, r0, ip
 828:	000006a4 	andeq	r0, r0, r4, lsr #13
 82c:	00000000 	andeq	r0, r0, r0
 830:	00000010 	andeq	r0, r0, r0, lsl r0
 834:	0000000c 	andeq	r0, r0, ip
 838:	000006a4 	andeq	r0, r0, r4, lsr #13
 83c:	00000000 	andeq	r0, r0, r0
 840:	00000054 	andeq	r0, r0, r4, asr r0
 844:	0000000c 	andeq	r0, r0, ip
 848:	000006a4 	andeq	r0, r0, r4, lsr #13
 84c:	00000000 	andeq	r0, r0, r0
 850:	00000038 	andeq	r0, r0, r8, lsr r0
 854:	0000000c 	andeq	r0, r0, ip
 858:	000006a4 	andeq	r0, r0, r4, lsr #13
 85c:	00000000 	andeq	r0, r0, r0
 860:	0000003c 	andeq	r0, r0, ip, lsr r0
 864:	0000000c 	andeq	r0, r0, ip
 868:	000006a4 	andeq	r0, r0, r4, lsr #13
 86c:	00000000 	andeq	r0, r0, r0
 870:	00000024 	andeq	r0, r0, r4, lsr #32
 874:	0000000c 	andeq	r0, r0, ip
 878:	000006a4 	andeq	r0, r0, r4, lsr #13
 87c:	00000000 	andeq	r0, r0, r0
 880:	00000002 	andeq	r0, r0, r2
 884:	0000000c 	andeq	r0, r0, ip
 888:	000006a4 	andeq	r0, r0, r4, lsr #13
 88c:	00000000 	andeq	r0, r0, r0
 890:	00000002 	andeq	r0, r0, r2
 894:	0000000c 	andeq	r0, r0, ip
 898:	000006a4 	andeq	r0, r0, r4, lsr #13
 89c:	00000000 	andeq	r0, r0, r0
 8a0:	00000002 	andeq	r0, r0, r2
 8a4:	0000000c 	andeq	r0, r0, ip
 8a8:	000006a4 	andeq	r0, r0, r4, lsr #13
 8ac:	00000000 	andeq	r0, r0, r0
 8b0:	00000002 	andeq	r0, r0, r2
 8b4:	00000014 	andeq	r0, r0, r4, lsl r0
 8b8:	000006a4 	andeq	r0, r0, r4, lsr #13
 8bc:	00000000 	andeq	r0, r0, r0
 8c0:	00000078 	andeq	r0, r0, r8, ror r0
 8c4:	83080e41 	movwhi	r0, #36417	; 0x8e41
 8c8:	00018e02 	andeq	r8, r1, r2, lsl #28
 8cc:	0000000c 	andeq	r0, r0, ip
 8d0:	000006a4 	andeq	r0, r0, r4, lsr #13
 8d4:	00000000 	andeq	r0, r0, r0
 8d8:	00000010 	andeq	r0, r0, r0, lsl r0
 8dc:	0000000c 	andeq	r0, r0, ip
 8e0:	000006a4 	andeq	r0, r0, r4, lsr #13
 8e4:	00000000 	andeq	r0, r0, r0
 8e8:	00000010 	andeq	r0, r0, r0, lsl r0
 8ec:	0000000c 	andeq	r0, r0, ip
 8f0:	000006a4 	andeq	r0, r0, r4, lsr #13
 8f4:	00000000 	andeq	r0, r0, r0
 8f8:	00000010 	andeq	r0, r0, r0, lsl r0
 8fc:	0000000c 	andeq	r0, r0, ip
 900:	000006a4 	andeq	r0, r0, r4, lsr #13
 904:	08000f58 	stmdaeq	r0, {r3, r4, r6, r8, r9, sl, fp}
 908:	00000010 	andeq	r0, r0, r0, lsl r0
 90c:	0000000c 	andeq	r0, r0, ip
 910:	ffffffff 			; <UNDEFINED> instruction: 0xffffffff
 914:	7c020001 	stcvc	0, cr0, [r2], {1}
 918:	000d0c0e 	andeq	r0, sp, lr, lsl #24
 91c:	0000000c 	andeq	r0, r0, ip
 920:	0000090c 	andeq	r0, r0, ip, lsl #18
 924:	08000f68 	stmdaeq	r0, {r3, r5, r6, r8, r9, sl, fp}
 928:	00000024 	andeq	r0, r0, r4, lsr #32
 92c:	00000014 	andeq	r0, r0, r4, lsl r0
 930:	0000090c 	andeq	r0, r0, ip, lsl #18
 934:	08000f8c 	stmdaeq	r0, {r2, r3, r7, r8, r9, sl, fp}
 938:	00000070 	andeq	r0, r0, r0, ror r0
 93c:	8e040e41 	cdphi	14, 0, cr0, cr4, cr1, {2}
 940:	00000001 	andeq	r0, r0, r1
 944:	0000000c 	andeq	r0, r0, ip
 948:	0000090c 	andeq	r0, r0, ip, lsl #18
 94c:	00000000 	andeq	r0, r0, r0
 950:	0000001c 	andeq	r0, r0, ip, lsl r0
 954:	0000000c 	andeq	r0, r0, ip
 958:	0000090c 	andeq	r0, r0, ip, lsl #18
 95c:	00000000 	andeq	r0, r0, r0
 960:	00000024 	andeq	r0, r0, r4, lsr #32
 964:	0000000c 	andeq	r0, r0, ip
 968:	0000090c 	andeq	r0, r0, ip, lsl #18
 96c:	00000000 	andeq	r0, r0, r0
 970:	00000024 	andeq	r0, r0, r4, lsr #32
 974:	0000000c 	andeq	r0, r0, ip
 978:	0000090c 	andeq	r0, r0, ip, lsl #18
 97c:	08000ffc 	stmdaeq	r0, {r2, r3, r4, r5, r6, r7, r8, r9, sl, fp}
 980:	00000028 	andeq	r0, r0, r8, lsr #32
 984:	0000000c 	andeq	r0, r0, ip
 988:	0000090c 	andeq	r0, r0, ip, lsl #18
 98c:	00000000 	andeq	r0, r0, r0
 990:	00000010 	andeq	r0, r0, r0, lsl r0
 994:	00000014 	andeq	r0, r0, r4, lsl r0
 998:	0000090c 	andeq	r0, r0, ip, lsl #18
 99c:	00000000 	andeq	r0, r0, r0
 9a0:	00000060 	andeq	r0, r0, r0, rrx
 9a4:	84080e41 	strhi	r0, [r8], #-3649	; 0xfffff1bf
 9a8:	00018e02 	andeq	r8, r1, r2, lsl #28
 9ac:	0000000c 	andeq	r0, r0, ip
 9b0:	0000090c 	andeq	r0, r0, ip, lsl #18
 9b4:	00000000 	andeq	r0, r0, r0
 9b8:	0000001c 	andeq	r0, r0, ip, lsl r0
 9bc:	0000000c 	andeq	r0, r0, ip
 9c0:	0000090c 	andeq	r0, r0, ip, lsl #18
 9c4:	00000000 	andeq	r0, r0, r0
 9c8:	00000024 	andeq	r0, r0, r4, lsr #32
 9cc:	0000000c 	andeq	r0, r0, ip
 9d0:	0000090c 	andeq	r0, r0, ip, lsl #18
 9d4:	00000000 	andeq	r0, r0, r0
 9d8:	0000001c 	andeq	r0, r0, ip, lsl r0
 9dc:	0000000c 	andeq	r0, r0, ip
 9e0:	0000090c 	andeq	r0, r0, ip, lsl #18
 9e4:	00000000 	andeq	r0, r0, r0
 9e8:	00000024 	andeq	r0, r0, r4, lsr #32
 9ec:	0000000c 	andeq	r0, r0, ip
 9f0:	0000090c 	andeq	r0, r0, ip, lsl #18
 9f4:	00000000 	andeq	r0, r0, r0
 9f8:	00000020 	andeq	r0, r0, r0, lsr #32
 9fc:	0000000c 	andeq	r0, r0, ip
 a00:	0000090c 	andeq	r0, r0, ip, lsl #18
 a04:	00000000 	andeq	r0, r0, r0
 a08:	00000002 	andeq	r0, r0, r2
 a0c:	00000014 	andeq	r0, r0, r4, lsl r0
 a10:	0000090c 	andeq	r0, r0, ip, lsl #18
 a14:	00000000 	andeq	r0, r0, r0
 a18:	00000008 	andeq	r0, r0, r8
 a1c:	83080e41 	movwhi	r0, #36417	; 0x8e41
 a20:	00018e02 	andeq	r8, r1, r2, lsl #28
 a24:	0000000c 	andeq	r0, r0, ip
 a28:	0000090c 	andeq	r0, r0, ip, lsl #18
 a2c:	00000000 	andeq	r0, r0, r0
 a30:	00000018 	andeq	r0, r0, r8, lsl r0
 a34:	0000000c 	andeq	r0, r0, ip
 a38:	0000090c 	andeq	r0, r0, ip, lsl #18
 a3c:	00000000 	andeq	r0, r0, r0
 a40:	00000014 	andeq	r0, r0, r4, lsl r0
 a44:	0000000c 	andeq	r0, r0, ip
 a48:	0000090c 	andeq	r0, r0, ip, lsl #18
 a4c:	00000000 	andeq	r0, r0, r0
 a50:	00000060 	andeq	r0, r0, r0, rrx
 a54:	0000000c 	andeq	r0, r0, ip
 a58:	ffffffff 			; <UNDEFINED> instruction: 0xffffffff
 a5c:	7c020001 	stcvc	0, cr0, [r2], {1}
 a60:	000d0c0e 	andeq	r0, sp, lr, lsl #24
 a64:	00000018 	andeq	r0, r0, r8, lsl r0
 a68:	00000a54 	andeq	r0, r0, r4, asr sl
 a6c:	08001078 	stmdaeq	r0, {r3, r4, r5, r6, ip}
 a70:	00000048 	andeq	r0, r0, r8, asr #32
 a74:	84100e41 	ldrhi	r0, [r0], #-3649	; 0xfffff1bf
 a78:	86038504 	strhi	r8, [r3], -r4, lsl #10
 a7c:	00018e02 	andeq	r8, r1, r2, lsl #28
 a80:	0000000c 	andeq	r0, r0, ip
 a84:	ffffffff 			; <UNDEFINED> instruction: 0xffffffff
 a88:	7c020001 	stcvc	0, cr0, [r2], {1}
 a8c:	000d0c0e 	andeq	r0, sp, lr, lsl #24
 a90:	0000000c 	andeq	r0, r0, ip
 a94:	00000a80 	andeq	r0, r0, r0, lsl #21
 a98:	080010c0 	stmdaeq	r0, {r6, r7, ip}
 a9c:	00000010 	andeq	r0, r0, r0, lsl r0
